   1              		.arch armv6
   2              		.eabi_attribute 28, 1	@ Tag_ABI_VFP_args
   3              		.eabi_attribute 20, 1	@ Tag_ABI_FP_denormal
   4              		.eabi_attribute 21, 1	@ Tag_ABI_FP_exceptions
   5              		.eabi_attribute 23, 3	@ Tag_ABI_FP_number_model
   6              		.eabi_attribute 24, 1	@ Tag_ABI_align8_needed
   7              		.eabi_attribute 25, 1	@ Tag_ABI_align8_preserved
   8              		.eabi_attribute 26, 2	@ Tag_ABI_enum_size
   9              		.eabi_attribute 30, 2	@ Tag_ABI_optimization_goals
  10              		.eabi_attribute 34, 1	@ Tag_CPU_unaligned_access
  11              		.eabi_attribute 18, 4	@ Tag_ABI_PCS_wchar_t
  12              		.file	"armwave.c"
  13              	@ GNU C17 (Raspbian 8.3.0-6+rpi1) version 8.3.0 (arm-linux-gnueabihf)
  14              	@	compiled by GNU C version 8.3.0, GMP version 6.1.2, MPFR version 4.0.2, MPC version 1.1.0, isl ve
  15              	
  16              	@ GGC heuristics: --param ggc-min-expand=81 --param ggc-min-heapsize=95638
  17              	@ options passed:  -I /usr/local/include/python3.8 -imultilib .
  18              	@ -imultiarch arm-linux-gnueabihf armwave.c -mfloat-abi=hard -mfpu=vfp
  19              	@ -mtls-dialect=gnu -marm -march=armv6+fp -auxbase-strip armwave.s -g -O3
  20              	@ -fverbose-asm -fwrapv
  21              	@ options enabled:  -faggressive-loop-optimizations -falign-jumps
  22              	@ -falign-labels -falign-loops -fauto-inc-dec -fbranch-count-reg
  23              	@ -fcaller-saves -fchkp-check-incomplete-type -fchkp-check-read
  24              	@ -fchkp-check-write -fchkp-instrument-calls -fchkp-narrow-bounds
  25              	@ -fchkp-optimize -fchkp-store-bounds -fchkp-use-static-bounds
  26              	@ -fchkp-use-static-const-bounds -fchkp-use-wrappers -fcode-hoisting
  27              	@ -fcombine-stack-adjustments -fcommon -fcompare-elim -fcprop-registers
  28              	@ -fcrossjumping -fcse-follow-jumps -fdefer-pop
  29              	@ -fdelete-null-pointer-checks -fdevirtualize -fdevirtualize-speculatively
  30              	@ -fdwarf2-cfi-asm -fearly-inlining -feliminate-unused-debug-types
  31              	@ -fexpensive-optimizations -fforward-propagate -ffp-int-builtin-inexact
  32              	@ -ffunction-cse -fgcse -fgcse-after-reload -fgcse-lm -fgnu-runtime
  33              	@ -fgnu-unique -fguess-branch-probability -fhoist-adjacent-loads -fident
  34              	@ -fif-conversion -fif-conversion2 -findirect-inlining -finline
  35              	@ -finline-atomics -finline-functions -finline-functions-called-once
  36              	@ -finline-small-functions -fipa-bit-cp -fipa-cp -fipa-cp-clone -fipa-icf
  37              	@ -fipa-icf-functions -fipa-icf-variables -fipa-profile -fipa-pure-const
  38              	@ -fipa-ra -fipa-reference -fipa-sra -fipa-vrp -fira-hoist-pressure
  39              	@ -fira-share-save-slots -fira-share-spill-slots
  40              	@ -fisolate-erroneous-paths-dereference -fivopts -fkeep-static-consts
  41              	@ -fleading-underscore -flifetime-dse -floop-interchange
  42              	@ -floop-unroll-and-jam -flra-remat -flto-odr-type-merging -fmath-errno
  43              	@ -fmerge-constants -fmerge-debug-strings -fmove-loop-invariants
  44              	@ -fomit-frame-pointer -foptimize-sibling-calls -foptimize-strlen
  45              	@ -fpartial-inlining -fpeel-loops -fpeephole -fpeephole2 -fplt
  46              	@ -fpredictive-commoning -fprefetch-loop-arrays -freg-struct-return
  47              	@ -freorder-blocks -freorder-functions -frerun-cse-after-loop
  48              	@ -fsched-critical-path-heuristic -fsched-dep-count-heuristic
  49              	@ -fsched-group-heuristic -fsched-interblock -fsched-last-insn-heuristic
  50              	@ -fsched-pressure -fsched-rank-heuristic -fsched-spec
  51              	@ -fsched-spec-insn-heuristic -fsched-stalled-insns-dep -fschedule-insns
  52              	@ -fschedule-insns2 -fsection-anchors -fsemantic-interposition
  53              	@ -fshow-column -fshrink-wrap -fshrink-wrap-separate -fsigned-zeros
  54              	@ -fsplit-ivs-in-unroller -fsplit-loops -fsplit-paths -fsplit-wide-types
  55              	@ -fssa-backprop -fssa-phiopt -fstdarg-opt -fstore-merging
  56              	@ -fstrict-aliasing -fstrict-volatile-bitfields -fsync-libcalls
  57              	@ -fthread-jumps -ftoplevel-reorder -ftrapping-math -ftree-bit-ccp
  58              	@ -ftree-builtin-call-dce -ftree-ccp -ftree-ch -ftree-coalesce-vars
  59              	@ -ftree-copy-prop -ftree-cselim -ftree-dce -ftree-dominator-opts
  60              	@ -ftree-dse -ftree-forwprop -ftree-fre -ftree-loop-distribute-patterns
  61              	@ -ftree-loop-distribution -ftree-loop-if-convert -ftree-loop-im
  62              	@ -ftree-loop-ivcanon -ftree-loop-optimize -ftree-loop-vectorize
  63              	@ -ftree-parallelize-loops= -ftree-partial-pre -ftree-phiprop -ftree-pre
  64              	@ -ftree-pta -ftree-reassoc -ftree-scev-cprop -ftree-sink
  65              	@ -ftree-slp-vectorize -ftree-slsr -ftree-sra -ftree-switch-conversion
  66              	@ -ftree-tail-merge -ftree-ter -ftree-vrp -funit-at-a-time -funswitch-loops
  67              	@ -fvar-tracking -fvar-tracking-assignments -fverbose-asm -fwrapv
  68              	@ -fzero-initialized-in-bss -marm -mbe32 -mglibc -mlittle-endian
  69              	@ -mpic-data-is-text-relative -msched-prolog -munaligned-access
  70              	@ -mvectorize-with-neon-quad
  71              	
  72              		.text
  73              	.Ltext0:
  74              		.cfi_sections	.debug_frame
  75              		.align	2
  76              		.global	test_create_gamma
  77              		.arch armv6
  78              		.syntax unified
  79              		.arm
  80              		.fpu vfp
  82              	test_create_gamma:
  83              	.LFB57:
  84              		.file 1 "armwave.c"
   1:armwave.c     **** /*
   2:armwave.c     ****  * This file is part of YAOS and is licenced under the MIT Licence.
   3:armwave.c     ****  *
   4:armwave.c     ****  * armwave: an ARM-optimised waveform rendering engine for the Raspberry Pi 3.  
   5:armwave.c     ****  * This library attempts to use NEON tricks and architectural features of the Pi's
   6:armwave.c     ****  * processor to render waveforms damn quickly.
   7:armwave.c     ****  */
   8:armwave.c     **** 
   9:armwave.c     **** #define _GNU_SOURCE
  10:armwave.c     **** 
  11:armwave.c     **** #include <Python.h>
  12:armwave.c     **** 
  13:armwave.c     **** #include <assert.h>
  14:armwave.c     **** #include <ctype.h>
  15:armwave.c     **** #include <stdio.h>
  16:armwave.c     **** #include <stdint.h>
  17:armwave.c     **** #include <stdlib.h>
  18:armwave.c     **** #include <stdbool.h>
  19:armwave.c     **** #include <malloc.h>
  20:armwave.c     **** #include <string.h>
  21:armwave.c     **** #include <math.h>
  22:armwave.c     **** 
  23:armwave.c     **** #include "armwave.h"
  24:armwave.c     **** 
  25:armwave.c     **** #define ARMWAVE_VER  "v0.0.1"
  26:armwave.c     **** 
  27:armwave.c     **** struct armwave_state_t g_armwave_state;
  28:armwave.c     **** 
  29:armwave.c     **** uint8_t gamma_table[256];
  30:armwave.c     **** 
  31:armwave.c     **** /*
  32:armwave.c     ****  * Create a gamma table.
  33:armwave.c     ****  */
  34:armwave.c     **** void test_create_gamma()
  35:armwave.c     **** {
  85              		.loc 1 35 1 view -0
  86              		.cfi_startproc
  87              		@ args = 0, pretend = 0, frame = 0
  88              		@ frame_needed = 0, uses_anonymous_args = 0
  36:armwave.c     ****     int i;
  89              		.loc 1 36 5 view .LVU1
  37:armwave.c     ****     float gamma = 0.90f;
  90              		.loc 1 37 5 view .LVU2
  91              	.LVL0:
  38:armwave.c     **** 
  39:armwave.c     ****     for(i = 0; i < 256; i++) {
  92              		.loc 1 39 5 view .LVU3
  93              	@ armwave.c:35: {
  35:armwave.c     ****     int i;
  94              		.loc 1 35 1 is_stmt 0 view .LVU4
  95 0000 70402DE9 		push	{r4, r5, r6, lr}	@
  96              		.cfi_def_cfa_offset 16
  97              		.cfi_offset 4, -16
  98              		.cfi_offset 5, -12
  99              		.cfi_offset 6, -8
 100              		.cfi_offset 14, -4
 101 0004 068B2DED 		vpush.64	{d8, d9, d10}	@
 102              		.cfi_def_cfa_offset 40
 103              		.cfi_offset 80, -40
 104              		.cfi_offset 81, -36
 105              		.cfi_offset 82, -32
 106              		.cfi_offset 83, -28
 107              		.cfi_offset 84, -24
 108              		.cfi_offset 85, -20
 109 0008 64409FE5 		ldr	r4, .L6+20	@ ivtmp.33,
 110              	@ armwave.c:40:         gamma_table[i] = pow(i / 255.0f, gamma) * 255.0f;
  40:armwave.c     ****         gamma_table[i] = pow(i / 255.0f, gamma) * 255.0f;
 111              		.loc 1 40 32 view .LVU5
 112 000c 17AA9FED 		vldr.32	s20, .L6+16	@ tmp128,
 113              	@ armwave.c:40:         gamma_table[i] = pow(i / 255.0f, gamma) * 255.0f;
 114              		.loc 1 40 26 view .LVU6
 115 0010 129B9FED 		vldr.64	d9, .L6	@ tmp135,
 116              	@ armwave.c:40:         gamma_table[i] = pow(i / 255.0f, gamma) * 255.0f;
 117              		.loc 1 40 49 view .LVU7
 118 0014 138B9FED 		vldr.64	d8, .L6+8	@ tmp131,
 119 0018 015084E2 		add	r5, r4, #1	@ _25, ivtmp.33,
 120 001c 016C84E2 		add	r6, r4, #256	@ _26, ivtmp.33,
 121 0020 015065E2 		rsb	r5, r5, #1	@ tmp134, _25,
 122              	.LVL1:
 123              	.L2:
 124              		.loc 1 40 9 is_stmt 1 discriminator 3 view .LVU8
 125              	@ armwave.c:40:         gamma_table[i] = pow(i / 255.0f, gamma) * 255.0f;
 126              		.loc 1 40 32 is_stmt 0 discriminator 3 view .LVU9
 127 0024 043085E0 		add	r3, r5, r4	@ tmp125, tmp134, ivtmp.33
 128              	@ armwave.c:40:         gamma_table[i] = pow(i / 255.0f, gamma) * 255.0f;
 129              		.loc 1 40 26 discriminator 3 view .LVU10
 130 0028 491BB0EE 		vmov.f64	d1, d9	@, tmp135
 131              	@ armwave.c:40:         gamma_table[i] = pow(i / 255.0f, gamma) * 255.0f;
 132              		.loc 1 40 32 discriminator 3 view .LVU11
 133 002c 903A07EE 		vmov	s15, r3	@ int	@ tmp125, tmp125
 134 0030 E77AF8EE 		vcvt.f32.s32	s15, s15	@ tmp126, tmp125
 135 0034 8A0A87EE 		vdiv.f32	s0, s15, s20	@ tmp127, tmp126, tmp128
 136              	@ armwave.c:40:         gamma_table[i] = pow(i / 255.0f, gamma) * 255.0f;
 137              		.loc 1 40 26 discriminator 3 view .LVU12
 138 0038 C00AB7EE 		vcvt.f64.f32	d0, s0	@, tmp127
 139 003c FEFFFFEB 		bl	pow		@
 140              	.LVL2:
 141              	@ armwave.c:40:         gamma_table[i] = pow(i / 255.0f, gamma) * 255.0f;
 142              		.loc 1 40 49 discriminator 3 view .LVU13
 143 0040 080B20EE 		vmul.f64	d0, d0, d8	@ tmp130,, tmp131
 144              	@ armwave.c:40:         gamma_table[i] = pow(i / 255.0f, gamma) * 255.0f;
 145              		.loc 1 40 24 discriminator 3 view .LVU14
 146 0044 C07BFCEE 		vcvt.u32.f64	s15, d0	@ tmp132, tmp130
 147 0048 903A17EE 		vmov	r3, s15	@ int	@ tmp132, tmp132
 148 004c 0130E4E5 		strb	r3, [r4, #1]!	@ tmp132, MEM[base: _24, offset: 0B]
 149              	.LVL3:
 150              	@ armwave.c:39:     for(i = 0; i < 256; i++) {
  39:armwave.c     ****         gamma_table[i] = pow(i / 255.0f, gamma) * 255.0f;
 151              		.loc 1 39 5 discriminator 3 view .LVU15
 152 0050 060054E1 		cmp	r4, r6	@ ivtmp.33, _26
 153 0054 F2FFFF1A 		bne	.L2		@,
 154              	@ armwave.c:42: }
  41:armwave.c     ****     }
  42:armwave.c     **** }
 155              		.loc 1 42 1 view .LVU16
 156 0058 068BBDEC 		vldm	sp!, {d8-d10}	@,
 157              		.cfi_restore 84
 158              		.cfi_restore 85
 159              		.cfi_restore 82
 160              		.cfi_restore 83
 161              		.cfi_restore 80
 162              		.cfi_restore 81
 163              		.cfi_def_cfa_offset 16
 164 005c 7080BDE8 		pop	{r4, r5, r6, pc}	@
 165              	.LVL4:
 166              	.L7:
 167              		.loc 1 42 1 view .LVU17
 168              		.align	3
 169              	.L6:
 170 0060 000000C0 		.word	-1073741824
 171 0064 CCCCEC3F 		.word	1072483532
 172 0068 00000000 		.word	0
 173 006c 00E06F40 		.word	1081073664
 174 0070 00007F43 		.word	1132396544
 175 0074 FFFFFFFF 		.word	gamma_table-1
 176              		.cfi_endproc
 177              	.LFE57:
 179              		.align	2
 180              		.global	armwave_init
 181              		.syntax unified
 182              		.arm
 183              		.fpu vfp
 185              	armwave_init:
 186              	.LFB58:
  43:armwave.c     **** 
  44:armwave.c     **** /*
  45:armwave.c     ****  * Initialise things.  STUB, mostly.
  46:armwave.c     ****  */
  47:armwave.c     **** void armwave_init()
  48:armwave.c     **** {
 187              		.loc 1 48 1 is_stmt 1 view -0
 188              		.cfi_startproc
 189              		@ args = 0, pretend = 0, frame = 0
 190              		@ frame_needed = 0, uses_anonymous_args = 0
 191              		@ link register save eliminated.
  49:armwave.c     ****     g_armwave_state.flags = 0;
 192              		.loc 1 49 5 view .LVU19
 193              	@ armwave.c:49:     g_armwave_state.flags = 0;
 194              		.loc 1 49 27 is_stmt 0 view .LVU20
 195 0078 10309FE5 		ldr	r3, .L9	@ tmp110,
 196 007c 0020A0E3 		mov	r2, #0	@ tmp111,
 197              	@ armwave.c:51:     printf("armwave version: %s\n", ARMWAVE_VER);
  50:armwave.c     **** 
  51:armwave.c     ****     printf("armwave version: %s\n", ARMWAVE_VER);
 198              		.loc 1 51 5 view .LVU21
 199 0080 0C109FE5 		ldr	r1, .L9+4	@,
 200 0084 0C009FE5 		ldr	r0, .L9+8	@,
 201              	@ armwave.c:49:     g_armwave_state.flags = 0;
  49:armwave.c     ****     g_armwave_state.flags = 0;
 202              		.loc 1 49 27 view .LVU22
 203 0088 002083E5 		str	r2, [r3]	@ tmp111, g_armwave_state.flags
 204              		.loc 1 51 5 is_stmt 1 view .LVU23
 205 008c FEFFFFEA 		b	printf		@
 206              	.LVL5:
 207              	.L10:
 208              		.align	2
 209              	.L9:
 210 0090 00000000 		.word	g_armwave_state
 211 0094 00000000 		.word	.LC0
 212 0098 08000000 		.word	.LC1
 213              		.cfi_endproc
 214              	.LFE58:
 216              		.align	2
 217              		.global	render_nonaa_to_buffer_1ch_slice
 218              		.syntax unified
 219              		.arm
 220              		.fpu vfp
 222              	render_nonaa_to_buffer_1ch_slice:
 223              	.LVL6:
 224              	.LFB59:
  52:armwave.c     **** }
  53:armwave.c     **** 
  54:armwave.c     **** /*
  55:armwave.c     ****  * 1ch renderer, renders up to slice-height buffer with X-coord of each waveaccess
  56:armwave.c     ****  * pre-computed.
  57:armwave.c     ****  *
  58:armwave.c     ****  * @param    slice_y        Slice to render at
  59:armwave.c     ****  * @param    height         Number of wave points to render (adjust for performance, 
  60:armwave.c     ****  *                          accounting for cache behaviour, etc.)
  61:armwave.c     ****  */
  62:armwave.c     **** void render_nonaa_to_buffer_1ch_slice(uint32_t slice_y, uint32_t height)
  63:armwave.c     **** {
 225              		.loc 1 63 1 view -0
 226              		.cfi_startproc
 227              		@ args = 0, pretend = 0, frame = 24
 228              		@ frame_needed = 0, uses_anonymous_args = 0
  64:armwave.c     ****     int yy, ys, w, scale_value;
 229              		.loc 1 64 5 view .LVU25
  65:armwave.c     ****     uint32_t value, word;
 230              		.loc 1 65 5 view .LVU26
  66:armwave.c     ****     uint8_t *wave_base;
 231              		.loc 1 66 5 view .LVU27
  67:armwave.c     ****     bufftyp_t *write_buffer_base;
 232              		.loc 1 67 5 view .LVU28
  68:armwave.c     ****     bufftyp_t *write_buffer;
 233              		.loc 1 68 5 view .LVU29
  69:armwave.c     **** 
  70:armwave.c     ****     //write_buffer_base = g_armwave_state.ch1_buffer + (slice_y * g_armwave_state.bitdepth_height);
  71:armwave.c     ****     write_buffer_base = g_armwave_state.ch1_buffer + (((slice_y * g_armwave_state.cmp_x_bitdepth_sc
 234              		.loc 1 71 5 view .LVU30
 235              	@ armwave.c:71:     write_buffer_base = g_armwave_state.ch1_buffer + (((slice_y * g_armwave_state.c
 236              		.loc 1 71 40 is_stmt 0 view .LVU31
 237 009c 48319FE5 		ldr	r3, .L21	@ tmp189,
 238              	@ armwave.c:63: {
  63:armwave.c     ****     int yy, ys, w, scale_value;
 239              		.loc 1 63 1 view .LVU32
 240 00a0 F04F2DE9 		push	{r4, r5, r6, r7, r8, r9, r10, fp, lr}	@
 241              		.cfi_def_cfa_offset 36
 242              		.cfi_offset 4, -36
 243              		.cfi_offset 5, -32
 244              		.cfi_offset 6, -28
 245              		.cfi_offset 7, -24
 246              		.cfi_offset 8, -20
 247              		.cfi_offset 9, -16
 248              		.cfi_offset 10, -12
 249              		.cfi_offset 11, -8
 250              		.cfi_offset 14, -4
 251 00a4 1CD04DE2 		sub	sp, sp, #28	@,,
 252              		.cfi_def_cfa_offset 64
 253              	@ armwave.c:71:     write_buffer_base = g_armwave_state.ch1_buffer + (((slice_y * g_armwave_state.c
 254              		.loc 1 71 82 view .LVU33
 255 00a8 247093E5 		ldr	r7, [r3, #36]	@ _2, g_armwave_state.cmp_x_bitdepth_scale
 256              	@ armwave.c:79:     for(w = 0; w < g_armwave_state.waves; w++) {
  72:armwave.c     **** 
  73:armwave.c     ****     //printf("wb=0x%08x b=0x%08x ch1=0x%08x off=%d slice_y=%d height=%d scale=%d bitdepth_height=%d
  74:armwave.c     ****         g_armwave_state.wave_buffer, write_buffer_base, g_armwave_state.ch1_buffer, \
  75:armwave.c     ****         write_buffer_base - g_armwave_state.ch1_buffer, slice_y, height, g_armwave_state.cmp_x_bitd
  76:armwave.c     ****         g_armwave_state.bitdepth_height);
  77:armwave.c     **** 
  78:armwave.c     ****     // roll through each waveform
  79:armwave.c     ****     for(w = 0; w < g_armwave_state.waves; w++) {
 257              		.loc 1 79 35 view .LVU34
 258 00ac 382093E5 		ldr	r2, [r3, #56]	@ _135, g_armwave_state.waves
 259              	@ armwave.c:71:     write_buffer_base = g_armwave_state.ch1_buffer + (((slice_y * g_armwave_state.c
  71:armwave.c     **** 
 260              		.loc 1 71 147 view .LVU35
 261 00b0 405093E5 		ldr	r5, [r3, #64]	@ _6, g_armwave_state.bitdepth_height
 262              	@ armwave.c:71:     write_buffer_base = g_armwave_state.ch1_buffer + (((slice_y * g_armwave_state.c
  71:armwave.c     **** 
 263              		.loc 1 71 65 view .LVU36
 264 00b4 900704E0 		mul	r4, r0, r7	@ tmp192, slice_y, _2
 265              	@ armwave.c:79:     for(w = 0; w < g_armwave_state.waves; w++) {
 266              		.loc 1 79 5 view .LVU37
 267 00b8 000052E3 		cmp	r2, #0	@ _135,
 268              	@ armwave.c:63: {
  63:armwave.c     ****     int yy, ys, w, scale_value;
 269              		.loc 1 63 1 view .LVU38
 270 00bc 01C0A0E1 		mov	ip, r1	@ height, height
 271              	@ armwave.c:71:     write_buffer_base = g_armwave_state.ch1_buffer + (((slice_y * g_armwave_state.c
  71:armwave.c     **** 
 272              		.loc 1 71 105 view .LVU39
 273 00c0 2448A0E1 		lsr	r4, r4, #16	@ tmp193, tmp192,
 274              	@ armwave.c:63: {
  63:armwave.c     ****     int yy, ys, w, scale_value;
 275              		.loc 1 63 1 view .LVU40
 276 00c4 00108DE5 		str	r1, [sp]	@ height, %sfp
 277              	@ armwave.c:79:     for(w = 0; w < g_armwave_state.waves; w++) {
 278              		.loc 1 79 35 view .LVU41
 279 00c8 0C208DE5 		str	r2, [sp, #12]	@ _135, %sfp
 280              	@ armwave.c:71:     write_buffer_base = g_armwave_state.ch1_buffer + (((slice_y * g_armwave_state.c
  71:armwave.c     **** 
 281              		.loc 1 71 40 view .LVU42
 282 00cc 041093E5 		ldr	r1, [r3, #4]	@ _1, g_armwave_state.ch1_buffer
 283              	.LVL7:
 284              	@ armwave.c:71:     write_buffer_base = g_armwave_state.ch1_buffer + (((slice_y * g_armwave_state.c
  71:armwave.c     **** 
 285              		.loc 1 71 130 view .LVU43
 286 00d0 950404E0 		mul	r4, r5, r4	@ _7, _6, tmp193
 287              	.LVL8:
 288              		.loc 1 79 5 is_stmt 1 view .LVU44
 289              		.loc 1 79 5 is_stmt 0 view .LVU45
 290 00d4 420000DA 		ble	.L11		@,
 291              	@ armwave.c:80:         wave_base = g_armwave_state.wave_buffer + slice_y + (w * g_armwave_state.wa
  80:armwave.c     ****         wave_base = g_armwave_state.wave_buffer + slice_y + (w * g_armwave_state.wave_stride);
 292              		.loc 1 80 36 view .LVU46
 293 00d8 142093E5 		ldr	r2, [r3, #20]	@ _8, g_armwave_state.wave_buffer
 294              	@ armwave.c:80:         wave_base = g_armwave_state.wave_buffer + slice_y + (w * g_armwave_state.wa
 295              		.loc 1 80 81 view .LVU47
 296 00dc 343093E5 		ldr	r3, [r3, #52]	@ _9, g_armwave_state.wave_stride
 297 00e0 00005CE3 		cmp	ip, #0	@ height,
 298 00e4 10308DE5 		str	r3, [sp, #16]	@ _9, %sfp
 299 00e8 3D00000A 		beq	.L11		@,
 300 00ec 003082E0 		add	r3, r2, r0	@ ivtmp.48, _8, slice_y
 301 00f0 8720A0E1 		lsl	r2, r7, #1	@ tmp239, _2,
 302 00f4 078082E0 		add	r8, r2, r7	@ tmp237, tmp239, _2
 303 00f8 04308DE5 		str	r3, [sp, #4]	@ ivtmp.48, %sfp
 304 00fc 00B063E2 		rsb	fp, r3, #0	@ ivtmp.49, ivtmp.48
 305              	@ armwave.c:79:     for(w = 0; w < g_armwave_state.waves; w++) {
  79:armwave.c     ****         wave_base = g_armwave_state.wave_buffer + slice_y + (w * g_armwave_state.wave_stride);
 306              		.loc 1 79 11 view .LVU48
 307 0100 0030A0E3 		mov	r3, #0	@ w,
 308 0104 14208DE5 		str	r2, [sp, #20]	@ tmp239, %sfp
 309 0108 08308DE5 		str	r3, [sp, #8]	@ w, %sfp
 310              	.LVL9:
 311              	.L14:
 312              		.loc 1 80 9 is_stmt 1 view .LVU49
  81:armwave.c     **** 
  82:armwave.c     ****         // roll through y and render the slice into the out buffer
  83:armwave.c     ****         // buffer is rendered rotated by 90 degrees
  84:armwave.c     ****         for(yy = 0; yy < height; yy += 4) {
 313              		.loc 1 84 9 view .LVU50
 314              	@ armwave.c:79:     for(w = 0; w < g_armwave_state.waves; w++) {
  79:armwave.c     ****         wave_base = g_armwave_state.wave_buffer + slice_y + (w * g_armwave_state.wave_stride);
 315              		.loc 1 79 11 is_stmt 0 view .LVU51
 316 010c 14E09DE5 		ldr	lr, [sp, #20]	@ ivtmp.44, %sfp
 317 0110 04609DE5 		ldr	r6, [sp, #4]	@ ivtmp.41, %sfp
 318 0114 00C0A0E3 		mov	ip, #0	@ ivtmp.42,
 319              	.LVL10:
 320              	.L13:
  85:armwave.c     ****             //printf("w=%d stride=%d sly=%d wave_base=0x%08x yy=%d\n", w, g_armwave_state.wave_stri
  86:armwave.c     **** 
  87:armwave.c     ****             word = *(uint32_t*)(wave_base + yy);
 321              		.loc 1 87 13 is_stmt 1 view .LVU52
 322              	@ armwave.c:103:                     ((((yy + ys) * g_armwave_state.cmp_x_bitdepth_scale) >> AM_XCO
  88:armwave.c     **** 
  89:armwave.c     ****             for(ys = 0; ys < 4; ys++) {
  90:armwave.c     ****                 scale_value = word & 0xff;
  91:armwave.c     ****                 
  92:armwave.c     ****                 /*
  93:armwave.c     ****                 // prevents saturating behaviour; we lose two ADC counts.
  94:armwave.c     ****                 if(COND_UNLIKELY(scale_value == 0x00 || scale_value == 0xff))
  95:armwave.c     ****                     continue;
  96:armwave.c     ****                 */
  97:armwave.c     **** 
  98:armwave.c     ****                 // Keep math in integer where possible.  We compute the X scale and then multiply t
  99:armwave.c     ****                 // base coordinate.  The value of the point then informs us where to write in typic
 100:armwave.c     ****                 // The bonus of this method is that we tend to hit accesses along a 256 byte line. 
 101:armwave.c     ****                 // we set our accumulation buffer to 16 bits.)
 102:armwave.c     ****                 write_buffer = write_buffer_base + \
 103:armwave.c     ****                     ((((yy + ys) * g_armwave_state.cmp_x_bitdepth_scale) >> AM_XCOORD_MULT_SHIFT) *
 323              		.loc 1 103 74 is_stmt 0 view .LVU53
 324 0118 2C28A0E1 		lsr	r2, ip, #16	@ tmp197, ivtmp.42,
 325              	@ armwave.c:87:             word = *(uint32_t*)(wave_base + yy);
  87:armwave.c     **** 
 326              		.loc 1 87 18 view .LVU54
 327 011c 043096E4 		ldr	r3, [r6], #4	@ word, MEM[base: _264, offset: 0B]
 328              	.LVL11:
  89:armwave.c     ****                 scale_value = word & 0xff;
 329              		.loc 1 89 13 is_stmt 1 view .LVU55
  90:armwave.c     ****                 
 330              		.loc 1 90 17 view .LVU56
 102:armwave.c     ****                     ((((yy + ys) * g_armwave_state.cmp_x_bitdepth_scale) >> AM_XCOORD_MULT_SHIFT) *
 331              		.loc 1 102 17 view .LVU57
 104:armwave.c     **** 
 105:armwave.c     ****                 //printf("write_buff=0x%08x value=%d\n", write_buffer, value);
 106:armwave.c     **** 
 107:armwave.c     ****                 *(write_buffer + scale_value) += 1;
 332              		.loc 1 107 17 view .LVU58
 333              	@ armwave.c:107:                 *(write_buffer + scale_value) += 1;
 334              		.loc 1 107 47 is_stmt 0 view .LVU59
 335 0120 954222E0 		mla	r2, r5, r2, r4	@ tmp199, _6, tmp197, _7
 336              	@ armwave.c:103:                     ((((yy + ys) * g_armwave_state.cmp_x_bitdepth_scale) >> AM_XCO
 103:armwave.c     **** 
 337              		.loc 1 103 34 view .LVU60
 338 0124 0CC087E0 		add	ip, r7, ip	@ _78, _2, ivtmp.42
 339              	.LVL12:
 340              	@ armwave.c:107:                 *(write_buffer + scale_value) += 1;
 341              		.loc 1 107 47 view .LVU61
 342 0128 7320E2E6 		uxtab	r2, r2, r3	@ tmp201, tmp199, word
 343              	@ armwave.c:103:                     ((((yy + ys) * g_armwave_state.cmp_x_bitdepth_scale) >> AM_XCO
 103:armwave.c     **** 
 344              		.loc 1 103 74 view .LVU62
 345 012c 2C08A0E1 		lsr	r0, ip, #16	@ tmp206, _78,
 346              	@ armwave.c:107:                 *(write_buffer + scale_value) += 1;
 347              		.loc 1 107 47 view .LVU63
 348 0130 8220A0E1 		lsl	r2, r2, #1	@ tmp202, tmp201,
 349 0134 954020E0 		mla	r0, r5, r0, r4	@ tmp208, _6, tmp206, _7
 350              	@ armwave.c:108:                 word >>= 8;
 108:armwave.c     ****                 word >>= 8;
 351              		.loc 1 108 22 view .LVU64
 352 0138 23A4A0E1 		lsr	r10, r3, #8	@ word, word,
 353              	@ armwave.c:107:                 *(write_buffer + scale_value) += 1;
 107:armwave.c     ****                 word >>= 8;
 354              		.loc 1 107 47 view .LVU65
 355 013c B29091E1 		ldrh	r9, [r1, r2]	@ *_63, *_63
 356 0140 7A00E0E6 		uxtab	r0, r0, r10	@ tmp211, tmp208, word
 357              	@ armwave.c:103:                     ((((yy + ys) * g_armwave_state.cmp_x_bitdepth_scale) >> AM_XCO
 103:armwave.c     **** 
 358              		.loc 1 103 74 view .LVU66
 359 0144 2EA8A0E1 		lsr	r10, lr, #16	@ tmp216, ivtmp.44,
 360              	@ armwave.c:107:                 *(write_buffer + scale_value) += 1;
 107:armwave.c     ****                 word >>= 8;
 361              		.loc 1 107 47 view .LVU67
 362 0148 019089E2 		add	r9, r9, #1	@ tmp205, *_63,
 363 014c 954A2AE0 		mla	r10, r5, r10, r4	@ tmp218, _6, tmp216, _7
 364 0150 B29081E1 		strh	r9, [r1, r2]	@ movhi	@ tmp205, *_63
 365              		.loc 1 108 17 is_stmt 1 view .LVU68
 366              	.LVL13:
  90:armwave.c     ****                 
 367              		.loc 1 90 17 view .LVU69
 102:armwave.c     ****                     ((((yy + ys) * g_armwave_state.cmp_x_bitdepth_scale) >> AM_XCOORD_MULT_SHIFT) *
 368              		.loc 1 102 17 view .LVU70
 107:armwave.c     ****                 word >>= 8;
 369              		.loc 1 107 17 view .LVU71
 370              	@ armwave.c:103:                     ((((yy + ys) * g_armwave_state.cmp_x_bitdepth_scale) >> AM_XCO
 103:armwave.c     **** 
 371              		.loc 1 103 34 is_stmt 0 view .LVU72
 372 0154 0EE087E0 		add	lr, r7, lr	@ _122, _2, ivtmp.44
 373              	@ armwave.c:108:                 word >>= 8;
 374              		.loc 1 108 22 view .LVU73
 375 0158 2328A0E1 		lsr	r2, r3, #16	@ word, word,
 376              	@ armwave.c:107:                 *(write_buffer + scale_value) += 1;
 107:armwave.c     ****                 word >>= 8;
 377              		.loc 1 107 47 view .LVU74
 378 015c 8000A0E1 		lsl	r0, r0, #1	@ tmp212, tmp211,
 379 0160 7220EAE6 		uxtab	r2, r10, r2	@ tmp221, tmp218, word
 380              	@ armwave.c:103:                     ((((yy + ys) * g_armwave_state.cmp_x_bitdepth_scale) >> AM_XCO
 103:armwave.c     **** 
 381              		.loc 1 103 74 view .LVU75
 382 0164 2EA8A0E1 		lsr	r10, lr, #16	@ tmp226, _122,
 383              	@ armwave.c:107:                 *(write_buffer + scale_value) += 1;
 107:armwave.c     ****                 word >>= 8;
 384              		.loc 1 107 47 view .LVU76
 385 0168 B09091E1 		ldrh	r9, [r1, r0]	@ *_85, *_85
 386              	@ armwave.c:108:                 word >>= 8;
 387              		.loc 1 108 22 view .LVU77
 388 016c 233CA0E1 		lsr	r3, r3, #24	@ word, word,
 389              	.LVL14:
 390              	@ armwave.c:107:                 *(write_buffer + scale_value) += 1;
 107:armwave.c     ****                 word >>= 8;
 391              		.loc 1 107 47 view .LVU78
 392 0170 953A23E0 		mla	r3, r5, r10, r3	@ tmp229, _6, tmp226, word
 393 0174 8220A0E1 		lsl	r2, r2, #1	@ tmp222, tmp221,
 394 0178 019089E2 		add	r9, r9, #1	@ tmp215, *_85,
 395 017c B09081E1 		strh	r9, [r1, r0]	@ movhi	@ tmp215, *_85
 396              		.loc 1 108 17 is_stmt 1 view .LVU79
 397              	.LVL15:
  90:armwave.c     ****                 
 398              		.loc 1 90 17 view .LVU80
 102:armwave.c     ****                     ((((yy + ys) * g_armwave_state.cmp_x_bitdepth_scale) >> AM_XCOORD_MULT_SHIFT) *
 399              		.loc 1 102 17 view .LVU81
 107:armwave.c     ****                 word >>= 8;
 400              		.loc 1 107 17 view .LVU82
 401              	@ armwave.c:107:                 *(write_buffer + scale_value) += 1;
 107:armwave.c     ****                 word >>= 8;
 402              		.loc 1 107 47 is_stmt 0 view .LVU83
 403 0180 043083E0 		add	r3, r3, r4	@ tmp230, tmp229, _7
 404 0184 B20091E1 		ldrh	r0, [r1, r2]	@ *_107, *_107
 405 0188 8330A0E1 		lsl	r3, r3, #1	@ tmp231, tmp230,
 406              	@ armwave.c:84:         for(yy = 0; yy < height; yy += 4) {
  84:armwave.c     ****             //printf("w=%d stride=%d sly=%d wave_base=0x%08x yy=%d\n", w, g_armwave_state.wave_stri
 407              		.loc 1 84 9 view .LVU84
 408 018c 00909DE5 		ldr	r9, [sp]	@ height, %sfp
 409              	@ armwave.c:107:                 *(write_buffer + scale_value) += 1;
 107:armwave.c     ****                 word >>= 8;
 410              		.loc 1 107 47 view .LVU85
 411 0190 010080E2 		add	r0, r0, #1	@ tmp225, *_107,
 412 0194 B20081E1 		strh	r0, [r1, r2]	@ movhi	@ tmp225, *_107
 413              		.loc 1 108 17 is_stmt 1 view .LVU86
 414              	.LVL16:
  90:armwave.c     ****                 
 415              		.loc 1 90 17 view .LVU87
 102:armwave.c     ****                     ((((yy + ys) * g_armwave_state.cmp_x_bitdepth_scale) >> AM_XCOORD_MULT_SHIFT) *
 416              		.loc 1 102 17 view .LVU88
 107:armwave.c     ****                 word >>= 8;
 417              		.loc 1 107 17 view .LVU89
 418              	@ armwave.c:107:                 *(write_buffer + scale_value) += 1;
 107:armwave.c     ****                 word >>= 8;
 419              		.loc 1 107 47 is_stmt 0 view .LVU90
 420 0198 B32091E1 		ldrh	r2, [r1, r3]	@ *_129, *_129
 421              	@ armwave.c:84:         for(yy = 0; yy < height; yy += 4) {
  84:armwave.c     ****             //printf("w=%d stride=%d sly=%d wave_base=0x%08x yy=%d\n", w, g_armwave_state.wave_stri
 422              		.loc 1 84 9 view .LVU91
 423 019c 06008BE0 		add	r0, fp, r6	@ tmp238, ivtmp.49, ivtmp.41
 424 01a0 000059E1 		cmp	r9, r0	@ height, tmp238
 425              	@ armwave.c:107:                 *(write_buffer + scale_value) += 1;
 107:armwave.c     ****                 word >>= 8;
 426              		.loc 1 107 47 view .LVU92
 427 01a4 012082E2 		add	r2, r2, #1	@ tmp234, *_129,
 428 01a8 08C08CE0 		add	ip, ip, r8	@ ivtmp.42, _78, tmp237
 429 01ac 08E08EE0 		add	lr, lr, r8	@ ivtmp.44, _122, tmp237
 430              	.LVL17:
 107:armwave.c     ****                 word >>= 8;
 431              		.loc 1 107 47 view .LVU93
 432 01b0 B32081E1 		strh	r2, [r1, r3]	@ movhi	@ tmp234, *_129
 433              		.loc 1 108 17 is_stmt 1 view .LVU94
 434              	.LVL18:
 435              	@ armwave.c:84:         for(yy = 0; yy < height; yy += 4) {
  84:armwave.c     ****             //printf("w=%d stride=%d sly=%d wave_base=0x%08x yy=%d\n", w, g_armwave_state.wave_stri
 436              		.loc 1 84 9 is_stmt 0 view .LVU95
 437 01b4 D7FFFF8A 		bhi	.L13		@,
 438              	@ armwave.c:79:     for(w = 0; w < g_armwave_state.waves; w++) {
  79:armwave.c     ****         wave_base = g_armwave_state.wave_buffer + slice_y + (w * g_armwave_state.wave_stride);
 439              		.loc 1 79 44 view .LVU96
 440 01b8 08309DE5 		ldr	r3, [sp, #8]	@ w, %sfp
 441              	@ armwave.c:79:     for(w = 0; w < g_armwave_state.waves; w++) {
  79:armwave.c     ****         wave_base = g_armwave_state.wave_buffer + slice_y + (w * g_armwave_state.wave_stride);
 442              		.loc 1 79 5 view .LVU97
 443 01bc 0C209DE5 		ldr	r2, [sp, #12]	@ _135, %sfp
 444              	@ armwave.c:79:     for(w = 0; w < g_armwave_state.waves; w++) {
  79:armwave.c     ****         wave_base = g_armwave_state.wave_buffer + slice_y + (w * g_armwave_state.wave_stride);
 445              		.loc 1 79 44 view .LVU98
 446 01c0 013083E2 		add	r3, r3, #1	@ w, w,
 447              	@ armwave.c:79:     for(w = 0; w < g_armwave_state.waves; w++) {
  79:armwave.c     ****         wave_base = g_armwave_state.wave_buffer + slice_y + (w * g_armwave_state.wave_stride);
 448              		.loc 1 79 5 view .LVU99
 449 01c4 020053E1 		cmp	r3, r2	@ w, _135
 450              	@ armwave.c:79:     for(w = 0; w < g_armwave_state.waves; w++) {
  79:armwave.c     ****         wave_base = g_armwave_state.wave_buffer + slice_y + (w * g_armwave_state.wave_stride);
 451              		.loc 1 79 44 view .LVU100
 452 01c8 08308DE5 		str	r3, [sp, #8]	@ w, %sfp
 453              	.LVL19:
  79:armwave.c     ****         wave_base = g_armwave_state.wave_buffer + slice_y + (w * g_armwave_state.wave_stride);
 454              		.loc 1 79 44 view .LVU101
 455 01cc 04209DE5 		ldr	r2, [sp, #4]	@ ivtmp.48, %sfp
 456 01d0 10309DE5 		ldr	r3, [sp, #16]	@ _9, %sfp
 457              	.LVL20:
  79:armwave.c     ****         wave_base = g_armwave_state.wave_buffer + slice_y + (w * g_armwave_state.wave_stride);
 458              		.loc 1 79 44 view .LVU102
 459 01d4 032082E0 		add	r2, r2, r3	@ ivtmp.48, ivtmp.48, _9
 460 01d8 04208DE5 		str	r2, [sp, #4]	@ ivtmp.48, %sfp
  79:armwave.c     ****         wave_base = g_armwave_state.wave_buffer + slice_y + (w * g_armwave_state.wave_stride);
 461              		.loc 1 79 44 view .LVU103
 462 01dc 03B04BE0 		sub	fp, fp, r3	@ ivtmp.49, ivtmp.49, _9
 463              	@ armwave.c:79:     for(w = 0; w < g_armwave_state.waves; w++) {
  79:armwave.c     ****         wave_base = g_armwave_state.wave_buffer + slice_y + (w * g_armwave_state.wave_stride);
 464              		.loc 1 79 5 view .LVU104
 465 01e0 C9FFFF1A 		bne	.L14		@,
 466              	.LVL21:
 467              	.L11:
 468              	@ armwave.c:112: }
 109:armwave.c     ****             }
 110:armwave.c     ****         }
 111:armwave.c     ****     }
 112:armwave.c     **** }
 469              		.loc 1 112 1 view .LVU105
 470 01e4 1CD08DE2 		add	sp, sp, #28	@,,
 471              		.cfi_def_cfa_offset 36
 472              	.LVL22:
 473              		.loc 1 112 1 view .LVU106
 474              		@ sp needed	@
 475 01e8 F08FBDE8 		pop	{r4, r5, r6, r7, r8, r9, r10, fp, pc}	@
 476              	.LVL23:
 477              	.L22:
 478              		.loc 1 112 1 view .LVU107
 479              		.align	2
 480              	.L21:
 481 01ec 00000000 		.word	g_armwave_state
 482              		.cfi_endproc
 483              	.LFE59:
 485              		.align	2
 486              		.global	armwave_fill_pixbuf_scaled
 487              		.syntax unified
 488              		.arm
 489              		.fpu vfp
 491              	armwave_fill_pixbuf_scaled:
 492              	.LVL24:
 493              	.LFB60:
 113:armwave.c     **** 
 114:armwave.c     **** /*
 115:armwave.c     ****  * Fill a pixbuf with a multiple of a 256-height waveform.
 116:armwave.c     ****  * Rows are repeated as necessary.
 117:armwave.c     ****  */
 118:armwave.c     **** void armwave_fill_pixbuf_scaled(uint32_t *out_buffer)
 119:armwave.c     **** {
 494              		.loc 1 119 1 is_stmt 1 view -0
 495              		.cfi_startproc
 496              		@ args = 0, pretend = 0, frame = 8
 497              		@ frame_needed = 0, uses_anonymous_args = 0
 120:armwave.c     ****     uint32_t xx, yy, ye, y, word, wave_word;
 498              		.loc 1 120 5 view .LVU109
 121:armwave.c     ****     // uint32_t ysub;
 122:armwave.c     ****     int rr, gg, bb, n, nsub, npix, w;
 499              		.loc 1 122 5 view .LVU110
 123:armwave.c     ****     uint8_t r, g, b;
 500              		.loc 1 123 5 view .LVU111
 124:armwave.c     ****     int value; 
 501              		.loc 1 124 5 view .LVU112
 125:armwave.c     ****     // uint8_t row;
 126:armwave.c     ****     uint32_t *base_32ptr = (uint32_t*)g_armwave_state.ch1_buffer;
 502              		.loc 1 126 5 view .LVU113
 127:armwave.c     ****     uint32_t *out_buffer_base = out_buffer;
 503              		.loc 1 127 5 view .LVU114
 128:armwave.c     ****     uint32_t offset;
 504              		.loc 1 128 5 view .LVU115
 129:armwave.c     **** 
 130:armwave.c     ****     if(out_buffer == NULL)
 505              		.loc 1 130 5 view .LVU116
 506              	@ armwave.c:119: {
 119:armwave.c     ****     uint32_t xx, yy, ye, y, word, wave_word;
 507              		.loc 1 119 1 is_stmt 0 view .LVU117
 508 01f0 F04F2DE9 		push	{r4, r5, r6, r7, r8, r9, r10, fp, lr}	@
 509              		.cfi_def_cfa_offset 36
 510              		.cfi_offset 4, -36
 511              		.cfi_offset 5, -32
 512              		.cfi_offset 6, -28
 513              		.cfi_offset 7, -24
 514              		.cfi_offset 8, -20
 515              		.cfi_offset 9, -16
 516              		.cfi_offset 10, -12
 517              		.cfi_offset 11, -8
 518              		.cfi_offset 14, -4
 519              	@ armwave.c:130:     if(out_buffer == NULL)
 520              		.loc 1 130 7 view .LVU118
 521 01f4 006050E2 		subs	r6, r0, #0	@ out_buffer, out_buffer
 522              	@ armwave.c:119: {
 119:armwave.c     ****     uint32_t xx, yy, ye, y, word, wave_word;
 523              		.loc 1 119 1 view .LVU119
 524 01f8 0CD04DE2 		sub	sp, sp, #12	@,,
 525              		.cfi_def_cfa_offset 48
 526              	@ armwave.c:130:     if(out_buffer == NULL)
 527              		.loc 1 130 7 view .LVU120
 528 01fc 1A00000A 		beq	.L23		@,
 529              	@ armwave.c:126:     uint32_t *base_32ptr = (uint32_t*)g_armwave_state.ch1_buffer;
 126:armwave.c     ****     uint32_t *out_buffer_base = out_buffer;
 530              		.loc 1 126 15 view .LVU121
 531 0200 54519FE5 		ldr	r5, .L44	@ tmp221,
 532              	@ armwave.c:134:     memset(out_buffer, 0x00, g_armwave_state.target_width * g_armwave_state.target
 131:armwave.c     ****         return;
 132:armwave.c     **** 
 133:armwave.c     ****     // we don't really want to be doing this if possible;  os.madvise may be a better option
 134:armwave.c     ****     memset(out_buffer, 0x00, g_armwave_state.target_width * g_armwave_state.target_height * 4);
 533              		.loc 1 134 5 view .LVU122
 534 0204 0010A0E3 		mov	r1, #0	@,
 535              	@ armwave.c:134:     memset(out_buffer, 0x00, g_armwave_state.target_width * g_armwave_state.target
 536              		.loc 1 134 59 view .LVU123
 537 0208 583095E5 		ldr	r3, [r5, #88]	@ g_armwave_state.target_width, g_armwave_state.target_width
 538 020c 5C2095E5 		ldr	r2, [r5, #92]	@ g_armwave_state.target_height, g_armwave_state.target_height
 539              	@ armwave.c:126:     uint32_t *base_32ptr = (uint32_t*)g_armwave_state.ch1_buffer;
 126:armwave.c     ****     uint32_t *out_buffer_base = out_buffer;
 540              		.loc 1 126 15 view .LVU124
 541 0210 044095E5 		ldr	r4, [r5, #4]	@ base_32ptr, g_armwave_state.ch1_buffer
 542              		.loc 1 134 5 is_stmt 1 view .LVU125
 543              	@ armwave.c:134:     memset(out_buffer, 0x00, g_armwave_state.target_width * g_armwave_state.target
 544              		.loc 1 134 59 is_stmt 0 view .LVU126
 545 0214 920302E0 		mul	r2, r2, r3	@ tmp177, g_armwave_state.target_height, g_armwave_state.target_width
 546              	@ armwave.c:134:     memset(out_buffer, 0x00, g_armwave_state.target_width * g_armwave_state.target
 547              		.loc 1 134 5 view .LVU127
 548 0218 0221A0E1 		lsl	r2, r2, #2	@, tmp177,
 549 021c FEFFFFEB 		bl	memset		@
 550              	.LVL25:
 135:armwave.c     **** 
 136:armwave.c     ****     npix = g_armwave_state.target_width * g_armwave_state.bitdepth_height; 
 551              		.loc 1 136 5 is_stmt 1 view .LVU128
 552              	@ armwave.c:136:     npix = g_armwave_state.target_width * g_armwave_state.bitdepth_height; 
 553              		.loc 1 136 10 is_stmt 0 view .LVU129
 554 0220 583095E5 		ldr	r3, [r5, #88]	@ g_armwave_state.target_width, g_armwave_state.target_width
 555 0224 400095E5 		ldr	r0, [r5, #64]	@ g_armwave_state.bitdepth_height, g_armwave_state.bitdepth_height
 556 0228 900300E0 		mul	r0, r0, r3	@ npix, g_armwave_state.bitdepth_height, g_armwave_state.target_width
 557              	.LVL26:
 137:armwave.c     ****     
 138:armwave.c     ****     for(n = 0; n < npix; n += 2) {
 558              		.loc 1 138 5 is_stmt 1 view .LVU130
 559              		.loc 1 138 5 is_stmt 0 view .LVU131
 560 022c 000050E3 		cmp	r0, #0	@ npix,
 561 0230 0D0000DA 		ble	.L23		@,
 562              	@ armwave.c:149:                     gg = (g_armwave_state.ch1_color.g * value) >> 8;
 139:armwave.c     ****         //wave_word = g_armwave_state.ch1_buffer[n]
 140:armwave.c     ****         wave_word = *base_32ptr++;
 141:armwave.c     **** 
 142:armwave.c     ****         if(COND_UNLIKELY(wave_word != 0)) {
 143:armwave.c     ****             for(w = 0; w < 2; w++) {
 144:armwave.c     ****                 value = wave_word & 0xffff;
 145:armwave.c     ****                 wave_word >>= 16;
 146:armwave.c     **** 
 147:armwave.c     ****                 if(value != 0) {
 148:armwave.c     ****                     rr = (g_armwave_state.ch1_color.r * value) >> 8;
 149:armwave.c     ****                     gg = (g_armwave_state.ch1_color.g * value) >> 8;
 563              		.loc 1 149 52 view .LVU132
 564 0234 FE36D5E1 		ldrsh	r3, [r5, #110]	@ _16, g_armwave_state.ch1_color.g
 565              	@ armwave.c:148:                     rr = (g_armwave_state.ch1_color.r * value) >> 8;
 148:armwave.c     ****                     gg = (g_armwave_state.ch1_color.g * value) >> 8;
 566              		.loc 1 148 52 view .LVU133
 567 0238 FCB6D5E1 		ldrsh	fp, [r5, #108]	@ _13, g_armwave_state.ch1_color.r
 568              	@ armwave.c:161:                     yy = (nsub & 0xff) * g_armwave_state.vscale_frac;
 150:armwave.c     ****                     bb = (g_armwave_state.ch1_color.b * value) >> 8;
 151:armwave.c     **** 
 152:armwave.c     ****                     r = MIN(rr, 255);
 153:armwave.c     ****                     g = MIN(gg, 255);
 154:armwave.c     ****                     b = MIN(bb, 255);
 155:armwave.c     **** 
 156:armwave.c     ****                     // Ensure 100% alpha channel, if it is used
 157:armwave.c     ****                     word = 0xff000000 | (b << 16) | (g << 8) | r;
 158:armwave.c     **** 
 159:armwave.c     ****                     // Plot the pixels
 160:armwave.c     ****                     nsub = n + w;
 161:armwave.c     ****                     yy = (nsub & 0xff) * g_armwave_state.vscale_frac;
 569              		.loc 1 161 57 view .LVU134
 570 023c 0A6AD5ED 		vldr.32	s13, [r5, #40]	@ _33, g_armwave_state.vscale_frac
 571              	@ armwave.c:149:                     gg = (g_armwave_state.ch1_color.g * value) >> 8;
 149:armwave.c     ****                     bb = (g_armwave_state.ch1_color.b * value) >> 8;
 572              		.loc 1 149 52 view .LVU135
 573 0240 00308DE5 		str	r3, [sp]	@ _16, %sfp
 574              	@ armwave.c:150:                     bb = (g_armwave_state.ch1_color.b * value) >> 8;
 150:armwave.c     ****                     bb = (g_armwave_state.ch1_color.b * value) >> 8;
 575              		.loc 1 150 52 view .LVU136
 576 0244 F037D5E1 		ldrsh	r3, [r5, #112]	@ _19, g_armwave_state.ch1_color.b
 577 0248 04308DE5 		str	r3, [sp, #4]	@ _19, %sfp
 578              	@ armwave.c:138:     for(n = 0; n < npix; n += 2) {
 138:armwave.c     ****         //wave_word = g_armwave_state.ch1_buffer[n]
 579              		.loc 1 138 11 view .LVU137
 580 024c 0030A0E3 		mov	r3, #0	@ n,
 581              	.LVL27:
 582              	.L29:
 140:armwave.c     **** 
 583              		.loc 1 140 9 is_stmt 1 view .LVU138
 584              	@ armwave.c:140:         wave_word = *base_32ptr++;
 140:armwave.c     **** 
 585              		.loc 1 140 19 is_stmt 0 view .LVU139
 586 0250 042094E4 		ldr	r2, [r4], #4	@ wave_word, MEM[base: base_32ptr_62, offset: 4294967292B]
 587              	.LVL28:
 142:armwave.c     ****             for(w = 0; w < 2; w++) {
 588              		.loc 1 142 9 is_stmt 1 view .LVU140
 589              	@ armwave.c:142:         if(COND_UNLIKELY(wave_word != 0)) {
 142:armwave.c     ****             for(w = 0; w < 2; w++) {
 590              		.loc 1 142 11 is_stmt 0 view .LVU141
 591 0254 000052E3 		cmp	r2, #0	@ wave_word,
 592              	@ armwave.c:143:             for(w = 0; w < 2; w++) {
 143:armwave.c     ****                 value = wave_word & 0xffff;
 593              		.loc 1 143 19 view .LVU142
 594 0258 0080A013 		movne	r8, #0	@ w,
 595              	@ armwave.c:142:         if(COND_UNLIKELY(wave_word != 0)) {
 142:armwave.c     ****             for(w = 0; w < 2; w++) {
 596              		.loc 1 142 11 view .LVU143
 597 025c 0400001A 		bne	.L28		@,
 598              	.L25:
 599              	@ armwave.c:138:     for(n = 0; n < npix; n += 2) {
 138:armwave.c     ****         //wave_word = g_armwave_state.ch1_buffer[n]
 600              		.loc 1 138 28 view .LVU144
 601 0260 023083E2 		add	r3, r3, #2	@ n, n,
 602              	.LVL29:
 603              	@ armwave.c:138:     for(n = 0; n < npix; n += 2) {
 138:armwave.c     ****         //wave_word = g_armwave_state.ch1_buffer[n]
 604              		.loc 1 138 5 view .LVU145
 605 0264 030050E1 		cmp	r0, r3	@ npix, n
 606 0268 F8FFFFCA 		bgt	.L29		@,
 607              	.LVL30:
 608              	.L23:
 609              	@ armwave.c:173: }
 162:armwave.c     ****                     ye = ((nsub & 0xff) + 1) * g_armwave_state.vscale_frac;
 163:armwave.c     ****                     xx = (nsub >> 8) / 2;
 164:armwave.c     **** 
 165:armwave.c     ****                     for(y = yy; y < ye; y++) {
 166:armwave.c     ****                         offset = (xx + (y * g_armwave_state.target_width)); 
 167:armwave.c     ****                         *(out_buffer_base + offset) = word;
 168:armwave.c     ****                     }
 169:armwave.c     ****                 }
 170:armwave.c     ****             }
 171:armwave.c     ****         }
 172:armwave.c     ****     }
 173:armwave.c     **** }
 610              		.loc 1 173 1 view .LVU146
 611 026c 0CD08DE2 		add	sp, sp, #12	@,,
 612              		.cfi_remember_state
 613              		.cfi_def_cfa_offset 36
 614              		@ sp needed	@
 615 0270 F08FBDE8 		pop	{r4, r5, r6, r7, r8, r9, r10, fp, pc}	@
 616              	.LVL31:
 617              	.L28:
 618              		.cfi_restore_state
 144:armwave.c     ****                 wave_word >>= 16;
 619              		.loc 1 144 17 is_stmt 1 view .LVU147
 620              	@ armwave.c:144:                 value = wave_word & 0xffff;
 144:armwave.c     ****                 wave_word >>= 16;
 621              		.loc 1 144 23 is_stmt 0 view .LVU148
 622 0274 7290FFE6 		uxth	r9, r2	@ value, wave_word
 623              	.LVL32:
 145:armwave.c     **** 
 624              		.loc 1 145 17 is_stmt 1 view .LVU149
 625              	@ armwave.c:147:                 if(value != 0) {
 147:armwave.c     ****                     rr = (g_armwave_state.ch1_color.r * value) >> 8;
 626              		.loc 1 147 19 is_stmt 0 view .LVU150
 627 0278 000059E3 		cmp	r9, #0	@ value,
 628              	@ armwave.c:145:                 wave_word >>= 16;
 145:armwave.c     **** 
 629              		.loc 1 145 27 view .LVU151
 630 027c 2228A0E1 		lsr	r2, r2, #16	@ wave_word, wave_word,
 631              	.LVL33:
 147:armwave.c     ****                     rr = (g_armwave_state.ch1_color.r * value) >> 8;
 632              		.loc 1 147 17 is_stmt 1 view .LVU152
 633              	@ armwave.c:147:                 if(value != 0) {
 147:armwave.c     ****                     rr = (g_armwave_state.ch1_color.r * value) >> 8;
 634              		.loc 1 147 19 is_stmt 0 view .LVU153
 635 0280 0600001A 		bne	.L43		@,
 636              	.LVL34:
 637              	.L26:
 638              	@ armwave.c:143:             for(w = 0; w < 2; w++) {
 143:armwave.c     ****                 value = wave_word & 0xffff;
 639              		.loc 1 143 13 view .LVU154
 640 0284 010058E3 		cmp	r8, #1	@ w,
 641 0288 F4FFFF0A 		beq	.L25		@,
 642              	@ armwave.c:144:                 value = wave_word & 0xffff;
 144:armwave.c     ****                 wave_word >>= 16;
 643              		.loc 1 144 23 view .LVU155
 644 028c 7290FFE6 		uxth	r9, r2	@ value, wave_word
 645              	@ armwave.c:147:                 if(value != 0) {
 147:armwave.c     ****                     rr = (g_armwave_state.ch1_color.r * value) >> 8;
 646              		.loc 1 147 19 view .LVU156
 647 0290 000059E3 		cmp	r9, #0	@ value,
 648 0294 0180A0E3 		mov	r8, #1	@ w,
 649              	.LVL35:
 144:armwave.c     ****                 wave_word >>= 16;
 650              		.loc 1 144 17 is_stmt 1 view .LVU157
 145:armwave.c     **** 
 651              		.loc 1 145 17 view .LVU158
 652              	@ armwave.c:145:                 wave_word >>= 16;
 145:armwave.c     **** 
 653              		.loc 1 145 27 is_stmt 0 view .LVU159
 654 0298 2228A0E1 		lsr	r2, r2, #16	@ wave_word, wave_word,
 655              	.LVL36:
 147:armwave.c     ****                     rr = (g_armwave_state.ch1_color.r * value) >> 8;
 656              		.loc 1 147 17 is_stmt 1 view .LVU160
 657              	@ armwave.c:147:                 if(value != 0) {
 147:armwave.c     ****                     rr = (g_armwave_state.ch1_color.r * value) >> 8;
 658              		.loc 1 147 19 is_stmt 0 view .LVU161
 659 029c F8FFFF0A 		beq	.L26		@,
 660              	.L43:
 148:armwave.c     ****                     gg = (g_armwave_state.ch1_color.g * value) >> 8;
 661              		.loc 1 148 21 is_stmt 1 view .LVU162
 662              	.LVL37:
 149:armwave.c     ****                     bb = (g_armwave_state.ch1_color.b * value) >> 8;
 663              		.loc 1 149 21 view .LVU163
 150:armwave.c     **** 
 664              		.loc 1 150 21 view .LVU164
 152:armwave.c     ****                     g = MIN(gg, 255);
 665              		.loc 1 152 21 view .LVU165
 153:armwave.c     ****                     b = MIN(bb, 255);
 666              		.loc 1 153 21 view .LVU166
 154:armwave.c     **** 
 667              		.loc 1 154 21 view .LVU167
 157:armwave.c     **** 
 668              		.loc 1 157 21 view .LVU168
 669              	@ armwave.c:150:                     bb = (g_armwave_state.ch1_color.b * value) >> 8;
 150:armwave.c     **** 
 670              		.loc 1 150 55 is_stmt 0 view .LVU169
 671 02a0 04109DE5 		ldr	r1, [sp, #4]	@ _19, %sfp
 672 02a4 08E083E0 		add	lr, r3, r8	@ _130, n, w
 673 02a8 99010CE0 		mul	ip, r9, r1	@ tmp195, value, _19
 674              	@ armwave.c:161:                     yy = (nsub & 0xff) * g_armwave_state.vscale_frac;
 161:armwave.c     ****                     ye = ((nsub & 0xff) + 1) * g_armwave_state.vscale_frac;
 675              		.loc 1 161 32 view .LVU170
 676 02ac 7E10EFE6 		uxtb	r1, lr	@ _31, _130
 677              	@ armwave.c:162:                     ye = ((nsub & 0xff) + 1) * g_armwave_state.vscale_frac;
 162:armwave.c     ****                     xx = (nsub >> 8) / 2;
 678              		.loc 1 162 41 view .LVU171
 679 02b0 017081E2 		add	r7, r1, #1	@ tmp210, _31,
 680              	@ armwave.c:161:                     yy = (nsub & 0xff) * g_armwave_state.vscale_frac;
 161:armwave.c     ****                     ye = ((nsub & 0xff) + 1) * g_armwave_state.vscale_frac;
 681              		.loc 1 161 40 view .LVU172
 682 02b4 901A07EE 		vmov	s15, r1	@ int	@ _31, _31
 683              	@ armwave.c:162:                     ye = ((nsub & 0xff) + 1) * g_armwave_state.vscale_frac;
 162:armwave.c     ****                     xx = (nsub >> 8) / 2;
 684              		.loc 1 162 41 view .LVU173
 685 02b8 107A07EE 		vmov	s14, r7	@ int	@ tmp210, tmp210
 686              	@ armwave.c:149:                     gg = (g_armwave_state.ch1_color.g * value) >> 8;
 149:armwave.c     ****                     bb = (g_armwave_state.ch1_color.b * value) >> 8;
 687              		.loc 1 149 55 view .LVU174
 688 02bc 00109DE5 		ldr	r1, [sp]	@ _16, %sfp
 689              	@ armwave.c:150:                     bb = (g_armwave_state.ch1_color.b * value) >> 8;
 150:armwave.c     **** 
 690              		.loc 1 150 24 view .LVU175
 691 02c0 4CC4A0E1 		asr	ip, ip, #8	@ bb, tmp195,
 692              	.LVL38:
 693              	@ armwave.c:161:                     yy = (nsub & 0xff) * g_armwave_state.vscale_frac;
 161:armwave.c     ****                     ye = ((nsub & 0xff) + 1) * g_armwave_state.vscale_frac;
 694              		.loc 1 161 40 view .LVU176
 695 02c4 E77AF8EE 		vcvt.f32.s32	s15, s15	@ tmp208, _31
 696              	@ armwave.c:162:                     ye = ((nsub & 0xff) + 1) * g_armwave_state.vscale_frac;
 162:armwave.c     ****                     xx = (nsub >> 8) / 2;
 697              		.loc 1 162 46 view .LVU177
 698 02c8 C77AB8EE 		vcvt.f32.s32	s14, s14	@ tmp211, tmp210
 699              	@ armwave.c:149:                     gg = (g_armwave_state.ch1_color.g * value) >> 8;
 149:armwave.c     ****                     bb = (g_armwave_state.ch1_color.b * value) >> 8;
 700              		.loc 1 149 55 view .LVU178
 701 02cc 99010AE0 		mul	r10, r9, r1	@ tmp199, value, _16
 702              	@ armwave.c:148:                     rr = (g_armwave_state.ch1_color.r * value) >> 8;
 148:armwave.c     ****                     gg = (g_armwave_state.ch1_color.g * value) >> 8;
 703              		.loc 1 148 55 view .LVU179
 704 02d0 990B09E0 		mul	r9, r9, fp	@ tmp205, value, _13
 705              	.LVL39:
 706              	@ armwave.c:154:                     b = MIN(bb, 255);
 154:armwave.c     **** 
 707              		.loc 1 154 25 view .LVU180
 708 02d4 FF005CE3 		cmp	ip, #255	@ bb,
 709              	@ armwave.c:149:                     gg = (g_armwave_state.ch1_color.g * value) >> 8;
 149:armwave.c     ****                     bb = (g_armwave_state.ch1_color.b * value) >> 8;
 710              		.loc 1 149 24 view .LVU181
 711 02d8 4AA4A0E1 		asr	r10, r10, #8	@ gg, tmp199,
 712              	.LVL40:
 713              	@ armwave.c:161:                     yy = (nsub & 0xff) * g_armwave_state.vscale_frac;
 161:armwave.c     ****                     ye = ((nsub & 0xff) + 1) * g_armwave_state.vscale_frac;
 714              		.loc 1 161 40 view .LVU182
 715 02dc A67A67EE 		vmul.f32	s15, s15, s13	@ tmp209, tmp208, _33
 716              	@ armwave.c:162:                     ye = ((nsub & 0xff) + 1) * g_armwave_state.vscale_frac;
 162:armwave.c     ****                     xx = (nsub >> 8) / 2;
 717              		.loc 1 162 46 view .LVU183
 718 02e0 267A27EE 		vmul.f32	s14, s14, s13	@ tmp212, tmp211, _33
 719              	@ armwave.c:154:                     b = MIN(bb, 255);
 154:armwave.c     **** 
 720              		.loc 1 154 25 view .LVU184
 721 02e4 FFC0A0A3 		movge	ip, #255	@ bb,
 722              	.LVL41:
 723              	@ armwave.c:153:                     g = MIN(gg, 255);
 153:armwave.c     ****                     b = MIN(bb, 255);
 724              		.loc 1 153 25 view .LVU185
 725 02e8 FF005AE3 		cmp	r10, #255	@ gg,
 726 02ec FFA0A0A3 		movge	r10, #255	@ gg,
 727              	.LVL42:
 728              	@ armwave.c:148:                     rr = (g_armwave_state.ch1_color.r * value) >> 8;
 148:armwave.c     ****                     gg = (g_armwave_state.ch1_color.g * value) >> 8;
 729              		.loc 1 148 24 view .LVU186
 730 02f0 4994A0E1 		asr	r9, r9, #8	@ rr, tmp205,
 731              	.LVL43:
 732              	@ armwave.c:152:                     r = MIN(rr, 255);
 152:armwave.c     ****                     g = MIN(gg, 255);
 733              		.loc 1 152 25 view .LVU187
 734 02f4 FF0059E3 		cmp	r9, #255	@ rr,
 735              	@ armwave.c:157:                     word = 0xff000000 | (b << 16) | (g << 8) | r;
 157:armwave.c     **** 
 736              		.loc 1 157 56 view .LVU188
 737 02f8 0AA4A0E1 		lsl	r10, r10, #8	@ tmp200, gg,
 738              	@ armwave.c:161:                     yy = (nsub & 0xff) * g_armwave_state.vscale_frac;
 161:armwave.c     ****                     ye = ((nsub & 0xff) + 1) * g_armwave_state.vscale_frac;
 739              		.loc 1 161 24 view .LVU189
 740 02fc E77AFCEE 		vcvt.u32.f32	s15, s15	@ yy, tmp209
 741              	@ armwave.c:152:                     r = MIN(rr, 255);
 152:armwave.c     ****                     g = MIN(gg, 255);
 742              		.loc 1 152 25 view .LVU190
 743 0300 FF90A0A3 		movge	r9, #255	@ rr,
 744              	.LVL44:
 745              	@ armwave.c:163:                     xx = (nsub >> 8) / 2;
 163:armwave.c     **** 
 746              		.loc 1 163 32 view .LVU191
 747 0304 4EE4A0E1 		asr	lr, lr, #8	@ tmp213, _130,
 748              	@ armwave.c:157:                     word = 0xff000000 | (b << 16) | (g << 8) | r;
 157:armwave.c     **** 
 749              		.loc 1 157 44 view .LVU192
 750 0308 0CC8A0E1 		lsl	ip, ip, #16	@ tmp196, bb,
 751              	@ armwave.c:157:                     word = 0xff000000 | (b << 16) | (g << 8) | r;
 157:armwave.c     **** 
 752              		.loc 1 157 56 view .LVU193
 753 030c 7AA0FFE6 		uxth	r10, r10	@ tmp201, tmp200
 754              	@ armwave.c:157:                     word = 0xff000000 | (b << 16) | (g << 8) | r;
 157:armwave.c     **** 
 755              		.loc 1 157 44 view .LVU194
 756 0310 FFC80CE2 		and	ip, ip, #16711680	@ tmp197, tmp196,
 757              	@ armwave.c:157:                     word = 0xff000000 | (b << 16) | (g << 8) | r;
 157:armwave.c     **** 
 758              		.loc 1 157 51 view .LVU195
 759 0314 0AC08CE1 		orr	ip, ip, r10	@ tmp203, tmp197, tmp201
 760              	@ armwave.c:157:                     word = 0xff000000 | (b << 16) | (g << 8) | r;
 157:armwave.c     **** 
 761              		.loc 1 157 62 view .LVU196
 762 0318 79A0EFE6 		uxtb	r10, r9	@ rr, rr
 763              	@ armwave.c:161:                     yy = (nsub & 0xff) * g_armwave_state.vscale_frac;
 161:armwave.c     ****                     ye = ((nsub & 0xff) + 1) * g_armwave_state.vscale_frac;
 764              		.loc 1 161 24 view .LVU197
 765 031c 901A17EE 		vmov	r1, s15	@ int	@ yy, yy
 766              	@ armwave.c:162:                     ye = ((nsub & 0xff) + 1) * g_armwave_state.vscale_frac;
 162:armwave.c     ****                     xx = (nsub >> 8) / 2;
 767              		.loc 1 162 24 view .LVU198
 768 0320 C77AFCEE 		vcvt.u32.f32	s15, s14	@ ye, tmp212
 769              	@ armwave.c:163:                     xx = (nsub >> 8) / 2;
 163:armwave.c     **** 
 770              		.loc 1 163 38 view .LVU199
 771 0324 AE9F8EE0 		add	r9, lr, lr, lsr #31	@ tmp215, tmp213, tmp213,
 772              	@ armwave.c:157:                     word = 0xff000000 | (b << 16) | (g << 8) | r;
 157:armwave.c     **** 
 773              		.loc 1 157 62 view .LVU200
 774 0328 0AC08CE1 		orr	ip, ip, r10	@ tmp207, tmp203, rr
 775              	@ armwave.c:157:                     word = 0xff000000 | (b << 16) | (g << 8) | r;
 157:armwave.c     **** 
 776              		.loc 1 157 26 view .LVU201
 777 032c FFE48CE3 		orr	lr, ip, #-16777216	@ word, tmp207,
 778              	.LVL45:
 160:armwave.c     ****                     yy = (nsub & 0xff) * g_armwave_state.vscale_frac;
 779              		.loc 1 160 21 is_stmt 1 view .LVU202
 161:armwave.c     ****                     ye = ((nsub & 0xff) + 1) * g_armwave_state.vscale_frac;
 780              		.loc 1 161 21 view .LVU203
 162:armwave.c     ****                     xx = (nsub >> 8) / 2;
 781              		.loc 1 162 21 view .LVU204
 782              	@ armwave.c:163:                     xx = (nsub >> 8) / 2;
 163:armwave.c     **** 
 783              		.loc 1 163 38 is_stmt 0 view .LVU205
 784 0330 C990A0E1 		asr	r9, r9, #1	@ xx, tmp215,
 785              	@ armwave.c:162:                     ye = ((nsub & 0xff) + 1) * g_armwave_state.vscale_frac;
 162:armwave.c     ****                     xx = (nsub >> 8) / 2;
 786              		.loc 1 162 24 view .LVU206
 787 0334 907A17EE 		vmov	r7, s15	@ int	@ ye, ye
 788              	.LVL46:
 163:armwave.c     **** 
 789              		.loc 1 163 21 is_stmt 1 view .LVU207
 165:armwave.c     ****                         offset = (xx + (y * g_armwave_state.target_width)); 
 790              		.loc 1 165 21 view .LVU208
 165:armwave.c     ****                         offset = (xx + (y * g_armwave_state.target_width)); 
 791              		.loc 1 165 21 is_stmt 0 view .LVU209
 792 0338 070051E1 		cmp	r1, r7	@ yy, ye
 793 033c D0FFFF2A 		bcs	.L26		@,
 794              	.LVL47:
 795              	.L27:
 166:armwave.c     ****                         *(out_buffer_base + offset) = word;
 796              		.loc 1 166 25 is_stmt 1 discriminator 3 view .LVU210
 167:armwave.c     ****                     }
 797              		.loc 1 167 25 discriminator 3 view .LVU211
 798              	@ armwave.c:166:                         offset = (xx + (y * g_armwave_state.target_width)); 
 166:armwave.c     ****                         *(out_buffer_base + offset) = word;
 799              		.loc 1 166 43 is_stmt 0 discriminator 3 view .LVU212
 800 0340 58C095E5 		ldr	ip, [r5, #88]	@ g_armwave_state.target_width, g_armwave_state.target_width
 801              	@ armwave.c:167:                         *(out_buffer_base + offset) = word;
 167:armwave.c     ****                     }
 802              		.loc 1 167 43 discriminator 3 view .LVU213
 803 0344 9C912CE0 		mla	ip, ip, r1, r9	@ tmp220, g_armwave_state.target_width, yy, xx
 804              	.LVL48:
 805              	@ armwave.c:165:                     for(y = yy; y < ye; y++) {
 165:armwave.c     ****                         offset = (xx + (y * g_armwave_state.target_width)); 
 806              		.loc 1 165 42 discriminator 3 view .LVU214
 807 0348 011081E2 		add	r1, r1, #1	@ yy, yy,
 808              	.LVL49:
 809              	@ armwave.c:165:                     for(y = yy; y < ye; y++) {
 165:armwave.c     ****                         offset = (xx + (y * g_armwave_state.target_width)); 
 810              		.loc 1 165 21 discriminator 3 view .LVU215
 811 034c 010057E1 		cmp	r7, r1	@ ye, yy
 812              	@ armwave.c:167:                         *(out_buffer_base + offset) = word;
 167:armwave.c     ****                     }
 813              		.loc 1 167 53 discriminator 3 view .LVU216
 814 0350 0CE186E7 		str	lr, [r6, ip, lsl #2]	@ word, *_44
 815              	@ armwave.c:165:                     for(y = yy; y < ye; y++) {
 165:armwave.c     ****                         offset = (xx + (y * g_armwave_state.target_width)); 
 816              		.loc 1 165 21 discriminator 3 view .LVU217
 817 0354 F9FFFF1A 		bne	.L27		@,
 165:armwave.c     ****                         offset = (xx + (y * g_armwave_state.target_width)); 
 818              		.loc 1 165 21 discriminator 3 view .LVU218
 819 0358 C9FFFFEA 		b	.L26		@
 820              	.L45:
 821              		.align	2
 822              	.L44:
 823 035c 00000000 		.word	g_armwave_state
 824              		.cfi_endproc
 825              	.LFE60:
 827              		.global	__aeabi_idiv
 828              		.align	2
 829              		.global	armwave_generate
 830              		.syntax unified
 831              		.arm
 832              		.fpu vfp
 834              	armwave_generate:
 835              	.LFB61:
 174:armwave.c     **** 
 175:armwave.c     **** /*
 176:armwave.c     ****  * Fill buffers with rendered waveform (only supports Ch1 so far.)
 177:armwave.c     ****  */
 178:armwave.c     **** void armwave_generate()
 179:armwave.c     **** {
 836              		.loc 1 179 1 is_stmt 1 view -0
 837              		.cfi_startproc
 838              		@ args = 0, pretend = 0, frame = 56
 839              		@ frame_needed = 0, uses_anonymous_args = 0
 180:armwave.c     ****     uint32_t yy;
 840              		.loc 1 180 5 view .LVU220
 181:armwave.c     ****     uint32_t xx_rem = g_armwave_state.target_width, ypos = 0;
 841              		.loc 1 181 5 view .LVU221
 842              	.LVL50:
 182:armwave.c     **** 
 183:armwave.c     ****     memset(g_armwave_state.ch1_buffer, 0, g_armwave_state.ch_buff_size);
 843              		.loc 1 183 5 view .LVU222
 844              	@ armwave.c:179: {
 179:armwave.c     ****     uint32_t yy;
 845              		.loc 1 179 1 is_stmt 0 view .LVU223
 846 0360 F04F2DE9 		push	{r4, r5, r6, r7, r8, r9, r10, fp, lr}	@
 847              		.cfi_def_cfa_offset 36
 848              		.cfi_offset 4, -36
 849              		.cfi_offset 5, -32
 850              		.cfi_offset 6, -28
 851              		.cfi_offset 7, -24
 852              		.cfi_offset 8, -20
 853              		.cfi_offset 9, -16
 854              		.cfi_offset 10, -12
 855              		.cfi_offset 11, -8
 856              		.cfi_offset 14, -4
 857              	@ armwave.c:183:     memset(g_armwave_state.ch1_buffer, 0, g_armwave_state.ch_buff_size);
 858              		.loc 1 183 5 view .LVU224
 859 0364 0010A0E3 		mov	r1, #0	@,
 860              	@ armwave.c:183:     memset(g_armwave_state.ch1_buffer, 0, g_armwave_state.ch_buff_size);
 861              		.loc 1 183 58 view .LVU225
 862 0368 D0419FE5 		ldr	r4, .L61	@ tmp198,
 863              	@ armwave.c:179: {
 179:armwave.c     ****     uint32_t yy;
 864              		.loc 1 179 1 view .LVU226
 865 036c 3CD04DE2 		sub	sp, sp, #60	@,,
 866              		.cfi_def_cfa_offset 96
 867              	@ armwave.c:183:     memset(g_armwave_state.ch1_buffer, 0, g_armwave_state.ch_buff_size);
 868              		.loc 1 183 5 view .LVU227
 869 0370 502094E5 		ldr	r2, [r4, #80]	@, g_armwave_state.ch_buff_size
 870 0374 040094E5 		ldr	r0, [r4, #4]	@, g_armwave_state.ch1_buffer
 871 0378 FEFFFFEB 		bl	memset		@
 872              	.LVL51:
 184:armwave.c     **** 
 185:armwave.c     ****     for(yy = 0; yy < (g_armwave_state.wave_length / g_armwave_state.slice_height); yy++) {
 873              		.loc 1 185 5 is_stmt 1 view .LVU228
 874              	@ armwave.c:185:     for(yy = 0; yy < (g_armwave_state.wave_length / g_armwave_state.slice_height);
 875              		.loc 1 185 68 is_stmt 0 view .LVU229
 876 037c 445094E5 		ldr	r5, [r4, #68]	@ _146, g_armwave_state.slice_height
 877              	@ armwave.c:185:     for(yy = 0; yy < (g_armwave_state.wave_length / g_armwave_state.slice_height);
 878              		.loc 1 185 51 view .LVU230
 879 0380 4C0094E5 		ldr	r0, [r4, #76]	@, g_armwave_state.wave_length
 880 0384 0510A0E1 		mov	r1, r5	@, _146
 881              	@ armwave.c:185:     for(yy = 0; yy < (g_armwave_state.wave_length / g_armwave_state.slice_height);
 882              		.loc 1 185 68 view .LVU231
 883 0388 18508DE5 		str	r5, [sp, #24]	@ _146, %sfp
 884              	@ armwave.c:185:     for(yy = 0; yy < (g_armwave_state.wave_length / g_armwave_state.slice_height);
 885              		.loc 1 185 51 view .LVU232
 886 038c FEFFFFEB 		bl	__aeabi_idiv		@
 887              	.LVL52:
 888              	@ armwave.c:185:     for(yy = 0; yy < (g_armwave_state.wave_length / g_armwave_state.slice_height);
 889              		.loc 1 185 5 view .LVU233
 890 0390 003050E2 		subs	r3, r0, #0	@ _130,
 891 0394 30308DE5 		str	r3, [sp, #48]	@ _130, %sfp
 892 0398 6600000A 		beq	.L46		@,
 893              	.LBB10:
 894              	.LBB11:
 895              	@ armwave.c:79:     for(w = 0; w < g_armwave_state.waves; w++) {
  79:armwave.c     ****         wave_base = g_armwave_state.wave_buffer + slice_y + (w * g_armwave_state.wave_stride);
 896              		.loc 1 79 35 view .LVU234
 897 039c 383094E5 		ldr	r3, [r4, #56]	@ _128, g_armwave_state.waves
 898              	@ armwave.c:71:     write_buffer_base = g_armwave_state.ch1_buffer + (((slice_y * g_armwave_state.c
  71:armwave.c     **** 
 899              		.loc 1 71 82 view .LVU235
 900 03a0 242094E5 		ldr	r2, [r4, #36]	@ _17, g_armwave_state.cmp_x_bitdepth_scale
 901              	@ armwave.c:80:         wave_base = g_armwave_state.wave_buffer + slice_y + (w * g_armwave_state.wa
  80:armwave.c     **** 
 902              		.loc 1 80 81 view .LVU236
 903 03a4 340094E5 		ldr	r0, [r4, #52]	@ _24, g_armwave_state.wave_stride
 904 03a8 000053E3 		cmp	r3, #0	@ _128,
 905              	@ armwave.c:79:     for(w = 0; w < g_armwave_state.waves; w++) {
  79:armwave.c     ****         wave_base = g_armwave_state.wave_buffer + slice_y + (w * g_armwave_state.wave_stride);
 906              		.loc 1 79 35 view .LVU237
 907 03ac 28308DE5 		str	r3, [sp, #40]	@ _128, %sfp
 908              	@ armwave.c:71:     write_buffer_base = g_armwave_state.ch1_buffer + (((slice_y * g_armwave_state.c
  71:armwave.c     **** 
 909              		.loc 1 71 40 view .LVU238
 910 03b0 041094E5 		ldr	r1, [r4, #4]	@ _16, g_armwave_state.ch1_buffer
 911              	@ armwave.c:71:     write_buffer_base = g_armwave_state.ch1_buffer + (((slice_y * g_armwave_state.c
  71:armwave.c     **** 
 912              		.loc 1 71 82 view .LVU239
 913 03b4 20208DE5 		str	r2, [sp, #32]	@ _17, %sfp
 914              	@ armwave.c:71:     write_buffer_base = g_armwave_state.ch1_buffer + (((slice_y * g_armwave_state.c
  71:armwave.c     **** 
 915              		.loc 1 71 147 view .LVU240
 916 03b8 40B094E5 		ldr	fp, [r4, #64]	@ _21, g_armwave_state.bitdepth_height
 917              	@ armwave.c:80:         wave_base = g_armwave_state.wave_buffer + slice_y + (w * g_armwave_state.wa
  80:armwave.c     **** 
 918              		.loc 1 80 36 view .LVU241
 919 03bc 143094E5 		ldr	r3, [r4, #20]	@ _23, g_armwave_state.wave_buffer
 920              	@ armwave.c:80:         wave_base = g_armwave_state.wave_buffer + slice_y + (w * g_armwave_state.wa
  80:armwave.c     **** 
 921              		.loc 1 80 81 view .LVU242
 922 03c0 24008DE5 		str	r0, [sp, #36]	@ _24, %sfp
 923 03c4 5B0000DA 		ble	.L46		@,
 924 03c8 000055E3 		cmp	r5, #0	@ _146,
 925 03cc 5900000A 		beq	.L46		@,
 926 03d0 920500E0 		mul	r0, r2, r5	@ _267, _17, _146
 927 03d4 08308DE5 		str	r3, [sp, #8]	@ ivtmp.84, %sfp
 928 03d8 34008DE5 		str	r0, [sp, #52]	@ _267, %sfp
 929 03dc 003063E2 		rsb	r3, r3, #0	@ ivtmp.85, ivtmp.84
 930 03e0 8200A0E1 		lsl	r0, r2, #1	@ tmp259, _17,
 931 03e4 00C0A0E3 		mov	ip, #0	@ ivtmp.83,
 932 03e8 04308DE5 		str	r3, [sp, #4]	@ ivtmp.85, %sfp
 933 03ec 023080E0 		add	r3, r0, r2	@ tmp257, tmp259, _17
 934 03f0 2C008DE5 		str	r0, [sp, #44]	@ tmp259, %sfp
 935 03f4 0CC08DE5 		str	ip, [sp, #12]	@ ivtmp.83, %sfp
 936 03f8 10308DE5 		str	r3, [sp, #16]	@ tmp257, %sfp
 937              	.LBE11:
 938              	.LBE10:
 939              	@ armwave.c:185:     for(yy = 0; yy < (g_armwave_state.wave_length / g_armwave_state.slice_height);
 940              		.loc 1 185 12 view .LVU243
 941 03fc 1CC08DE5 		str	ip, [sp, #28]	@ ivtmp.83, %sfp
 942              	.LVL53:
 943              	.L50:
 186:armwave.c     ****     //for(yy = 0; yy < 10; yy++) {
 187:armwave.c     ****         //printf("armwave_generate: slice %d (y=%d, h=%d)\n", yy, yy * g_armwave_state.slice_height
 188:armwave.c     **** 
 189:armwave.c     ****         render_nonaa_to_buffer_1ch_slice(yy * g_armwave_state.slice_height, g_armwave_state.slice_h
 944              		.loc 1 189 9 is_stmt 1 discriminator 3 view .LVU244
 945              	.LBB13:
 946              	.LBI10:
  62:armwave.c     **** {
 947              		.loc 1 62 6 discriminator 3 view .LVU245
 948              	.LBB12:
  64:armwave.c     ****     uint32_t value, word;
 949              		.loc 1 64 5 discriminator 3 view .LVU246
  65:armwave.c     ****     uint8_t *wave_base;
 950              		.loc 1 65 5 discriminator 3 view .LVU247
  66:armwave.c     ****     bufftyp_t *write_buffer_base;
 951              		.loc 1 66 5 discriminator 3 view .LVU248
  67:armwave.c     ****     bufftyp_t *write_buffer;
 952              		.loc 1 67 5 discriminator 3 view .LVU249
  68:armwave.c     **** 
 953              		.loc 1 68 5 discriminator 3 view .LVU250
  71:armwave.c     **** 
 954              		.loc 1 71 5 discriminator 3 view .LVU251
 955              	@ armwave.c:71:     write_buffer_base = g_armwave_state.ch1_buffer + (((slice_y * g_armwave_state.c
  71:armwave.c     **** 
 956              		.loc 1 71 105 is_stmt 0 discriminator 3 view .LVU252
 957 0400 0C309DE5 		ldr	r3, [sp, #12]	@ ivtmp.83, %sfp
 958              	@ armwave.c:71:     write_buffer_base = g_armwave_state.ch1_buffer + (((slice_y * g_armwave_state.c
  71:armwave.c     **** 
 959              		.loc 1 71 130 discriminator 3 view .LVU253
 960 0404 04A09DE5 		ldr	r10, [sp, #4]	@ ivtmp.80, %sfp
 961 0408 08609DE5 		ldr	r6, [sp, #8]	@ ivtmp.79, %sfp
 962              	@ armwave.c:71:     write_buffer_base = g_armwave_state.ch1_buffer + (((slice_y * g_armwave_state.c
  71:armwave.c     **** 
 963              		.loc 1 71 105 discriminator 3 view .LVU254
 964 040c 2308A0E1 		lsr	r0, r3, #16	@ tmp216, ivtmp.83,
 965              	@ armwave.c:79:     for(w = 0; w < g_armwave_state.waves; w++) {
  79:armwave.c     ****         wave_base = g_armwave_state.wave_buffer + slice_y + (w * g_armwave_state.wave_stride);
 966              		.loc 1 79 11 discriminator 3 view .LVU255
 967 0410 0050A0E3 		mov	r5, #0	@ w,
 968              	@ armwave.c:71:     write_buffer_base = g_armwave_state.ch1_buffer + (((slice_y * g_armwave_state.c
  71:armwave.c     **** 
 969              		.loc 1 71 130 discriminator 3 view .LVU256
 970 0414 9B0000E0 		mul	r0, fp, r0	@ _22, _21, tmp216
 971              	.LVL54:
  79:armwave.c     ****         wave_base = g_armwave_state.wave_buffer + slice_y + (w * g_armwave_state.wave_stride);
 972              		.loc 1 79 5 is_stmt 1 discriminator 3 view .LVU257
 973              	.L49:
  80:armwave.c     **** 
 974              		.loc 1 80 9 view .LVU258
  84:armwave.c     ****             //printf("w=%d stride=%d sly=%d wave_base=0x%08x yy=%d\n", w, g_armwave_state.wave_stri
 975              		.loc 1 84 9 view .LVU259
 976              	@ armwave.c:79:     for(w = 0; w < g_armwave_state.waves; w++) {
  79:armwave.c     ****         wave_base = g_armwave_state.wave_buffer + slice_y + (w * g_armwave_state.wave_stride);
 977              		.loc 1 79 11 is_stmt 0 view .LVU260
 978 0418 2CE09DE5 		ldr	lr, [sp, #44]	@ ivtmp.75, %sfp
 979 041c 0690A0E1 		mov	r9, r6	@ ivtmp.72, ivtmp.79
 980 0420 00C0A0E3 		mov	ip, #0	@ ivtmp.73,
 981 0424 14508DE5 		str	r5, [sp, #20]	@ w, %sfp
 982              	.LVL55:
 983              	.L48:
  87:armwave.c     **** 
 984              		.loc 1 87 13 is_stmt 1 view .LVU261
 985              	@ armwave.c:103:                     ((((yy + ys) * g_armwave_state.cmp_x_bitdepth_scale) >> AM_XCO
 103:armwave.c     **** 
 986              		.loc 1 103 74 is_stmt 0 view .LVU262
 987 0428 2C28A0E1 		lsr	r2, ip, #16	@ tmp217, ivtmp.73,
 988              	@ armwave.c:87:             word = *(uint32_t*)(wave_base + yy);
  87:armwave.c     **** 
 989              		.loc 1 87 18 view .LVU263
 990 042c 043099E4 		ldr	r3, [r9], #4	@ word, MEM[base: _286, offset: 0B]
 991              	.LVL56:
  89:armwave.c     ****                 scale_value = word & 0xff;
 992              		.loc 1 89 13 is_stmt 1 view .LVU264
  90:armwave.c     ****                 
 993              		.loc 1 90 17 view .LVU265
 102:armwave.c     ****                     ((((yy + ys) * g_armwave_state.cmp_x_bitdepth_scale) >> AM_XCOORD_MULT_SHIFT) *
 994              		.loc 1 102 17 view .LVU266
 107:armwave.c     ****                 word >>= 8;
 995              		.loc 1 107 17 view .LVU267
 996              	@ armwave.c:103:                     ((((yy + ys) * g_armwave_state.cmp_x_bitdepth_scale) >> AM_XCO
 103:armwave.c     **** 
 997              		.loc 1 103 34 is_stmt 0 view .LVU268
 998 0430 20509DE5 		ldr	r5, [sp, #32]	@ _17, %sfp
 999              	@ armwave.c:107:                 *(write_buffer + scale_value) += 1;
 107:armwave.c     ****                 word >>= 8;
 1000              		.loc 1 107 47 view .LVU269
 1001 0434 9B0222E0 		mla	r2, fp, r2, r0	@ tmp219, _21, tmp217, _22
 1002              	@ armwave.c:103:                     ((((yy + ys) * g_armwave_state.cmp_x_bitdepth_scale) >> AM_XCO
 103:armwave.c     **** 
 1003              		.loc 1 103 34 view .LVU270
 1004 0438 0CC085E0 		add	ip, r5, ip	@ _89, _17, ivtmp.73
 1005              	.LVL57:
 1006              	@ armwave.c:107:                 *(write_buffer + scale_value) += 1;
 107:armwave.c     ****                 word >>= 8;
 1007              		.loc 1 107 47 view .LVU271
 1008 043c 7320E2E6 		uxtab	r2, r2, r3	@ tmp221, tmp219, word
 1009              	@ armwave.c:103:                     ((((yy + ys) * g_armwave_state.cmp_x_bitdepth_scale) >> AM_XCO
 103:armwave.c     **** 
 1010              		.loc 1 103 74 view .LVU272
 1011 0440 2C48A0E1 		lsr	r4, ip, #16	@ tmp226, _89,
 1012              	@ armwave.c:107:                 *(write_buffer + scale_value) += 1;
 107:armwave.c     ****                 word >>= 8;
 1013              		.loc 1 107 47 view .LVU273
 1014 0444 8220A0E1 		lsl	r2, r2, #1	@ tmp222, tmp221,
 1015 0448 10709DE5 		ldr	r7, [sp, #16]	@ tmp257, %sfp
 1016 044c 9B0424E0 		mla	r4, fp, r4, r0	@ tmp228, _21, tmp226, _22
 1017              	@ armwave.c:108:                 word >>= 8;
 108:armwave.c     ****             }
 1018              		.loc 1 108 22 view .LVU274
 1019 0450 2384A0E1 		lsr	r8, r3, #8	@ word, word,
 1020 0454 0CC087E0 		add	ip, r7, ip	@ ivtmp.73, tmp257, _89
 1021              	@ armwave.c:107:                 *(write_buffer + scale_value) += 1;
 107:armwave.c     ****                 word >>= 8;
 1022              		.loc 1 107 47 view .LVU275
 1023 0458 B27091E1 		ldrh	r7, [r1, r2]	@ *_74, *_74
 1024 045c 7840E4E6 		uxtab	r4, r4, r8	@ tmp231, tmp228, word
 1025              	@ armwave.c:103:                     ((((yy + ys) * g_armwave_state.cmp_x_bitdepth_scale) >> AM_XCO
 103:armwave.c     **** 
 1026              		.loc 1 103 74 view .LVU276
 1027 0460 2E88A0E1 		lsr	r8, lr, #16	@ tmp236, ivtmp.75,
 1028              	@ armwave.c:107:                 *(write_buffer + scale_value) += 1;
 107:armwave.c     ****                 word >>= 8;
 1029              		.loc 1 107 47 view .LVU277
 1030 0464 017087E2 		add	r7, r7, #1	@ tmp225, *_74,
 1031 0468 9B0828E0 		mla	r8, fp, r8, r0	@ tmp238, _21, tmp236, _22
 1032 046c B27081E1 		strh	r7, [r1, r2]	@ movhi	@ tmp225, *_74
 108:armwave.c     ****             }
 1033              		.loc 1 108 17 is_stmt 1 view .LVU278
 1034              	.LVL58:
  90:armwave.c     ****                 
 1035              		.loc 1 90 17 view .LVU279
 102:armwave.c     ****                     ((((yy + ys) * g_armwave_state.cmp_x_bitdepth_scale) >> AM_XCOORD_MULT_SHIFT) *
 1036              		.loc 1 102 17 view .LVU280
 107:armwave.c     ****                 word >>= 8;
 1037              		.loc 1 107 17 view .LVU281
 1038              	@ armwave.c:103:                     ((((yy + ys) * g_armwave_state.cmp_x_bitdepth_scale) >> AM_XCO
 103:armwave.c     **** 
 1039              		.loc 1 103 34 is_stmt 0 view .LVU282
 1040 0470 0EE085E0 		add	lr, r5, lr	@ _133, _17, ivtmp.75
 1041              	@ armwave.c:108:                 word >>= 8;
 108:armwave.c     ****             }
 1042              		.loc 1 108 22 view .LVU283
 1043 0474 2328A0E1 		lsr	r2, r3, #16	@ word, word,
 1044              	@ armwave.c:107:                 *(write_buffer + scale_value) += 1;
 107:armwave.c     ****                 word >>= 8;
 1045              		.loc 1 107 47 view .LVU284
 1046 0478 8440A0E1 		lsl	r4, r4, #1	@ tmp232, tmp231,
 1047 047c 7220E8E6 		uxtab	r2, r8, r2	@ tmp241, tmp238, word
 1048              	@ armwave.c:103:                     ((((yy + ys) * g_armwave_state.cmp_x_bitdepth_scale) >> AM_XCO
 103:armwave.c     **** 
 1049              		.loc 1 103 74 view .LVU285
 1050 0480 2E88A0E1 		lsr	r8, lr, #16	@ tmp246, _133,
 1051              	@ armwave.c:107:                 *(write_buffer + scale_value) += 1;
 107:armwave.c     ****                 word >>= 8;
 1052              		.loc 1 107 47 view .LVU286
 1053 0484 B47091E1 		ldrh	r7, [r1, r4]	@ *_96, *_96
 1054              	@ armwave.c:108:                 word >>= 8;
 108:armwave.c     ****             }
 1055              		.loc 1 108 22 view .LVU287
 1056 0488 233CA0E1 		lsr	r3, r3, #24	@ word, word,
 1057              	.LVL59:
 1058              	@ armwave.c:107:                 *(write_buffer + scale_value) += 1;
 107:armwave.c     ****                 word >>= 8;
 1059              		.loc 1 107 47 view .LVU288
 1060 048c 9B3823E0 		mla	r3, fp, r8, r3	@ tmp249, _21, tmp246, word
 1061 0490 8220A0E1 		lsl	r2, r2, #1	@ tmp242, tmp241,
 1062 0494 017087E2 		add	r7, r7, #1	@ tmp235, *_96,
 1063 0498 B47081E1 		strh	r7, [r1, r4]	@ movhi	@ tmp235, *_96
 108:armwave.c     ****             }
 1064              		.loc 1 108 17 is_stmt 1 view .LVU289
 1065              	.LVL60:
  90:armwave.c     ****                 
 1066              		.loc 1 90 17 view .LVU290
 102:armwave.c     ****                     ((((yy + ys) * g_armwave_state.cmp_x_bitdepth_scale) >> AM_XCOORD_MULT_SHIFT) *
 1067              		.loc 1 102 17 view .LVU291
 107:armwave.c     ****                 word >>= 8;
 1068              		.loc 1 107 17 view .LVU292
 1069              	@ armwave.c:107:                 *(write_buffer + scale_value) += 1;
 107:armwave.c     ****                 word >>= 8;
 1070              		.loc 1 107 47 is_stmt 0 view .LVU293
 1071 049c 003083E0 		add	r3, r3, r0	@ tmp250, tmp249, _22
 1072 04a0 B24091E1 		ldrh	r4, [r1, r2]	@ *_118, *_118
 1073 04a4 8330A0E1 		lsl	r3, r3, #1	@ tmp251, tmp250,
 1074              	@ armwave.c:84:         for(yy = 0; yy < height; yy += 4) {
  84:armwave.c     ****             //printf("w=%d stride=%d sly=%d wave_base=0x%08x yy=%d\n", w, g_armwave_state.wave_stri
 1075              		.loc 1 84 9 view .LVU294
 1076 04a8 18509DE5 		ldr	r5, [sp, #24]	@ _146, %sfp
 1077              	@ armwave.c:107:                 *(write_buffer + scale_value) += 1;
 107:armwave.c     ****                 word >>= 8;
 1078              		.loc 1 107 47 view .LVU295
 1079 04ac 014084E2 		add	r4, r4, #1	@ tmp245, *_118,
 1080 04b0 B24081E1 		strh	r4, [r1, r2]	@ movhi	@ tmp245, *_118
 108:armwave.c     ****             }
 1081              		.loc 1 108 17 is_stmt 1 view .LVU296
 1082              	.LVL61:
  90:armwave.c     ****                 
 1083              		.loc 1 90 17 view .LVU297
 102:armwave.c     ****                     ((((yy + ys) * g_armwave_state.cmp_x_bitdepth_scale) >> AM_XCOORD_MULT_SHIFT) *
 1084              		.loc 1 102 17 view .LVU298
 107:armwave.c     ****                 word >>= 8;
 1085              		.loc 1 107 17 view .LVU299
 1086              	@ armwave.c:107:                 *(write_buffer + scale_value) += 1;
 107:armwave.c     ****                 word >>= 8;
 1087              		.loc 1 107 47 is_stmt 0 view .LVU300
 1088 04b4 B32091E1 		ldrh	r2, [r1, r3]	@ *_140, *_140
 1089 04b8 10709DE5 		ldr	r7, [sp, #16]	@ tmp257, %sfp
 1090              	@ armwave.c:84:         for(yy = 0; yy < height; yy += 4) {
  84:armwave.c     ****             //printf("w=%d stride=%d sly=%d wave_base=0x%08x yy=%d\n", w, g_armwave_state.wave_stri
 1091              		.loc 1 84 9 view .LVU301
 1092 04bc 09408AE0 		add	r4, r10, r9	@ tmp258, ivtmp.80, ivtmp.72
 1093              	@ armwave.c:107:                 *(write_buffer + scale_value) += 1;
 107:armwave.c     ****                 word >>= 8;
 1094              		.loc 1 107 47 view .LVU302
 1095 04c0 012082E2 		add	r2, r2, #1	@ tmp254, *_140,
 1096              	@ armwave.c:84:         for(yy = 0; yy < height; yy += 4) {
  84:armwave.c     ****             //printf("w=%d stride=%d sly=%d wave_base=0x%08x yy=%d\n", w, g_armwave_state.wave_stri
 1097              		.loc 1 84 9 view .LVU303
 1098 04c4 040055E1 		cmp	r5, r4	@ _146, tmp258
 1099 04c8 0EE087E0 		add	lr, r7, lr	@ ivtmp.75, tmp257, _133
 1100              	.LVL62:
 1101              	@ armwave.c:107:                 *(write_buffer + scale_value) += 1;
 107:armwave.c     ****                 word >>= 8;
 1102              		.loc 1 107 47 view .LVU304
 1103 04cc B32081E1 		strh	r2, [r1, r3]	@ movhi	@ tmp254, *_140
 108:armwave.c     ****             }
 1104              		.loc 1 108 17 is_stmt 1 view .LVU305
 1105              	.LVL63:
 1106              	@ armwave.c:84:         for(yy = 0; yy < height; yy += 4) {
  84:armwave.c     ****             //printf("w=%d stride=%d sly=%d wave_base=0x%08x yy=%d\n", w, g_armwave_state.wave_stri
 1107              		.loc 1 84 9 is_stmt 0 view .LVU306
 1108 04d0 D4FFFF8A 		bhi	.L48		@,
 1109 04d4 14509DE5 		ldr	r5, [sp, #20]	@ w, %sfp
 1110              	@ armwave.c:79:     for(w = 0; w < g_armwave_state.waves; w++) {
  79:armwave.c     ****         wave_base = g_armwave_state.wave_buffer + slice_y + (w * g_armwave_state.wave_stride);
 1111              		.loc 1 79 5 view .LVU307
 1112 04d8 28309DE5 		ldr	r3, [sp, #40]	@ _128, %sfp
 1113              	@ armwave.c:79:     for(w = 0; w < g_armwave_state.waves; w++) {
  79:armwave.c     ****         wave_base = g_armwave_state.wave_buffer + slice_y + (w * g_armwave_state.wave_stride);
 1114              		.loc 1 79 44 view .LVU308
 1115 04dc 015085E2 		add	r5, r5, #1	@ w, w,
 1116              	.LVL64:
 1117              	@ armwave.c:79:     for(w = 0; w < g_armwave_state.waves; w++) {
  79:armwave.c     ****         wave_base = g_armwave_state.wave_buffer + slice_y + (w * g_armwave_state.wave_stride);
 1118              		.loc 1 79 5 view .LVU309
 1119 04e0 030055E1 		cmp	r5, r3	@ w, _128
 1120 04e4 24309DE5 		ldr	r3, [sp, #36]	@ _24, %sfp
 1121 04e8 036086E0 		add	r6, r6, r3	@ ivtmp.79, ivtmp.79, _24
  79:armwave.c     ****         wave_base = g_armwave_state.wave_buffer + slice_y + (w * g_armwave_state.wave_stride);
 1122              		.loc 1 79 5 view .LVU310
 1123 04ec 03A04AE0 		sub	r10, r10, r3	@ ivtmp.80, ivtmp.80, _24
 1124 04f0 C8FFFF1A 		bne	.L49		@,
 1125              	.LVL65:
  79:armwave.c     ****         wave_base = g_armwave_state.wave_buffer + slice_y + (w * g_armwave_state.wave_stride);
 1126              		.loc 1 79 5 view .LVU311
 1127              	.LBE12:
 1128              	.LBE13:
 190:armwave.c     ****         xx_rem -= g_armwave_state.slice_height;
 1129              		.loc 1 190 9 is_stmt 1 view .LVU312
 191:armwave.c     ****         ypos += g_armwave_state.slice_height;
 1130              		.loc 1 191 9 view .LVU313
 1131              	@ armwave.c:185:     for(yy = 0; yy < (g_armwave_state.wave_length / g_armwave_state.slice_height);
 185:armwave.c     ****     //for(yy = 0; yy < 10; yy++) {
 1132              		.loc 1 185 86 is_stmt 0 view .LVU314
 1133 04f4 1C309DE5 		ldr	r3, [sp, #28]	@ yy, %sfp
 1134              	@ armwave.c:185:     for(yy = 0; yy < (g_armwave_state.wave_length / g_armwave_state.slice_height);
 185:armwave.c     ****     //for(yy = 0; yy < 10; yy++) {
 1135              		.loc 1 185 5 view .LVU315
 1136 04f8 30209DE5 		ldr	r2, [sp, #48]	@ _130, %sfp
 1137              	@ armwave.c:185:     for(yy = 0; yy < (g_armwave_state.wave_length / g_armwave_state.slice_height);
 185:armwave.c     ****     //for(yy = 0; yy < 10; yy++) {
 1138              		.loc 1 185 86 view .LVU316
 1139 04fc 013083E2 		add	r3, r3, #1	@ yy, yy,
 1140              	@ armwave.c:185:     for(yy = 0; yy < (g_armwave_state.wave_length / g_armwave_state.slice_height);
 185:armwave.c     ****     //for(yy = 0; yy < 10; yy++) {
 1141              		.loc 1 185 5 view .LVU317
 1142 0500 020053E1 		cmp	r3, r2	@ yy, _130
 1143              	@ armwave.c:185:     for(yy = 0; yy < (g_armwave_state.wave_length / g_armwave_state.slice_height);
 185:armwave.c     ****     //for(yy = 0; yy < 10; yy++) {
 1144              		.loc 1 185 86 view .LVU318
 1145 0504 1C308DE5 		str	r3, [sp, #28]	@ yy, %sfp
 1146              	.LVL66:
 185:armwave.c     ****     //for(yy = 0; yy < 10; yy++) {
 1147              		.loc 1 185 86 view .LVU319
 1148 0508 34209DE5 		ldr	r2, [sp, #52]	@ _267, %sfp
 1149 050c 0C309DE5 		ldr	r3, [sp, #12]	@ ivtmp.83, %sfp
 1150              	.LVL67:
 185:armwave.c     ****     //for(yy = 0; yy < 10; yy++) {
 1151              		.loc 1 185 86 view .LVU320
 1152 0510 023083E0 		add	r3, r3, r2	@ ivtmp.83, ivtmp.83, _267
 1153 0514 0C308DE5 		str	r3, [sp, #12]	@ ivtmp.83, %sfp
 1154 0518 08209DE5 		ldr	r2, [sp, #8]	@ ivtmp.84, %sfp
 1155 051c 18309DE5 		ldr	r3, [sp, #24]	@ _146, %sfp
 1156 0520 032082E0 		add	r2, r2, r3	@ ivtmp.84, ivtmp.84, _146
 1157 0524 08208DE5 		str	r2, [sp, #8]	@ ivtmp.84, %sfp
 1158 0528 04209DE5 		ldr	r2, [sp, #4]	@ ivtmp.85, %sfp
 1159 052c 033042E0 		sub	r3, r2, r3	@ ivtmp.85, ivtmp.85, _146
 1160 0530 04308DE5 		str	r3, [sp, #4]	@ ivtmp.85, %sfp
 1161              	@ armwave.c:185:     for(yy = 0; yy < (g_armwave_state.wave_length / g_armwave_state.slice_height);
 185:armwave.c     ****     //for(yy = 0; yy < 10; yy++) {
 1162              		.loc 1 185 5 view .LVU321
 1163 0534 B1FFFF1A 		bne	.L50		@,
 1164              	.LVL68:
 1165              	.L46:
 1166              	@ armwave.c:195: }
 192:armwave.c     ****     }
 193:armwave.c     **** 
 194:armwave.c     ****     //render_nonaa_to_buffer_1ch_slice(ypos, xx_rem);
 195:armwave.c     **** }
 1167              		.loc 1 195 1 view .LVU322
 1168 0538 3CD08DE2 		add	sp, sp, #60	@,,
 1169              		.cfi_def_cfa_offset 36
 1170              		@ sp needed	@
 1171 053c F08FBDE8 		pop	{r4, r5, r6, r7, r8, r9, r10, fp, pc}	@
 1172              	.L62:
 1173              		.align	2
 1174              	.L61:
 1175 0540 00000000 		.word	g_armwave_state
 1176              		.cfi_endproc
 1177              	.LFE61:
 1179              		.align	2
 1180              		.global	armwave_setup_render
 1181              		.syntax unified
 1182              		.arm
 1183              		.fpu vfp
 1185              	armwave_setup_render:
 1186              	.LVL69:
 1187              	.LFB62:
 196:armwave.c     **** 
 197:armwave.c     **** /*
 198:armwave.c     ****  * Setup the renderer with passed parameters.
 199:armwave.c     ****  */
 200:armwave.c     **** void armwave_setup_render(uint32_t start_point, uint32_t end_point, uint32_t waves_max, uint32_t wa
 201:armwave.c     **** {
 1188              		.loc 1 201 1 is_stmt 1 view -0
 1189              		.cfi_startproc
 1190              		@ args = 12, pretend = 0, frame = 0
 1191              		@ frame_needed = 0, uses_anonymous_args = 0
 202:armwave.c     ****     uint32_t length, xx;
 1192              		.loc 1 202 5 view .LVU324
 203:armwave.c     ****     float points_per_pixel;
 1193              		.loc 1 203 5 view .LVU325
 204:armwave.c     **** 
 205:armwave.c     ****     printf("s=%d e=%d w=%d ws=%d tw=%d th=%d rf=0x%08x\n", start_point, end_point, waves_max, wave_
 1194              		.loc 1 205 5 view .LVU326
 1195              	@ armwave.c:201: {
 201:armwave.c     ****     uint32_t length, xx;
 1196              		.loc 1 201 1 is_stmt 0 view .LVU327
 1197 0544 F0432DE9 		push	{r4, r5, r6, r7, r8, r9, lr}	@
 1198              		.cfi_def_cfa_offset 28
 1199              		.cfi_offset 4, -28
 1200              		.cfi_offset 5, -24
 1201              		.cfi_offset 6, -20
 1202              		.cfi_offset 7, -16
 1203              		.cfi_offset 8, -12
 1204              		.cfi_offset 9, -8
 1205              		.cfi_offset 14, -4
 1206 0548 028B2DED 		vpush.64	{d8}	@
 1207              		.cfi_def_cfa_offset 36
 1208              		.cfi_offset 80, -36
 1209              		.cfi_offset 81, -32
 1210 054c 0040A0E1 		mov	r4, r0	@ start_point, start_point
 1211 0550 0150A0E1 		mov	r5, r1	@ end_point, end_point
 1212 0554 0280A0E1 		mov	r8, r2	@ waves_max, waves_max
 1213 0558 14D04DE2 		sub	sp, sp, #20	@,,
 1214              		.cfi_def_cfa_offset 56
 1215              	@ armwave.c:201: {
 201:armwave.c     ****     uint32_t length, xx;
 1216              		.loc 1 201 1 view .LVU328
 1217 055c 0390A0E1 		mov	r9, r3	@ wave_stride, wave_stride
 1218 0560 D863CDE1 		ldrd	r6, [sp, #56]	@,,
 1219 0564 40C09DE5 		ldr	ip, [sp, #64]	@ render_flags, render_flags
 1220              	@ armwave.c:205:     printf("s=%d e=%d w=%d ws=%d tw=%d th=%d rf=0x%08x\n", start_point, end_point,
 1221              		.loc 1 205 5 view .LVU329
 1222 0568 00308DE5 		str	r3, [sp]	@ wave_stride,
 1223 056c F460CDE1 		strd	r6, [sp, #4]	@,,
 1224 0570 0230A0E1 		mov	r3, r2	@, waves_max
 1225              	.LVL70:
 1226              		.loc 1 205 5 view .LVU330
 1227 0574 0CC08DE5 		str	ip, [sp, #12]	@ render_flags,
 1228 0578 0120A0E1 		mov	r2, r1	@, end_point
 1229              	.LVL71:
 1230              		.loc 1 205 5 view .LVU331
 1231 057c 0010A0E1 		mov	r1, r0	@, start_point
 1232              	.LVL72:
 1233              		.loc 1 205 5 view .LVU332
 1234 0580 E8019FE5 		ldr	r0, .L77+12	@,
 1235              	.LVL73:
 1236              		.loc 1 205 5 view .LVU333
 1237 0584 FEFFFFEB 		bl	printf		@
 1238              	.LVL74:
 206:armwave.c     **** 
 207:armwave.c     ****     // TODO these asserts should instead raise PyExc
 208:armwave.c     ****     assert(start_point < end_point);
 1239              		.loc 1 208 5 is_stmt 1 view .LVU334
 1240 0588 050054E1 		cmp	r4, r5	@ start_point, end_point
 1241 058c 6500002A 		bcs	.L74		@,
 209:armwave.c     **** 
 210:armwave.c     ****     /*
 211:armwave.c     ****     // target_height must be a power of two.  Only 256, 512, 1024 and 2048 height buffers are suppo
 212:armwave.c     ****     assert(target_height == 256 || target_height == 512 || target_height == 1024 || target_height =
 213:armwave.c     ****     if(target_height == 256) {
 214:armwave.c     ****         g_armwave_state.row_shift = 8;
 215:armwave.c     ****         g_armwave_state.row_mask = 0x0ff;
 216:armwave.c     ****     } else if(target_height == 512) {
 217:armwave.c     ****         g_armwave_state.row_shift = 9;
 218:armwave.c     ****         g_armwave_state.row_mask = 0x1ff;
 219:armwave.c     ****     } else if(target_height == 1024) {
 220:armwave.c     ****         g_armwave_state.row_shift = 10;
 221:armwave.c     ****         g_armwave_state.row_mask = 0x3ff;
 222:armwave.c     ****     } else if(target_height == 2048) {
 223:armwave.c     ****         g_armwave_state.row_shift = 11;
 224:armwave.c     ****         g_armwave_state.row_mask = 0x7ff;
 225:armwave.c     ****     }
 226:armwave.c     ****     */
 227:armwave.c     **** 
 228:armwave.c     ****     // Calculate the size of each buffer.  Buffers are rotated by 90 degrees to improve cache coher
 229:armwave.c     ****     g_armwave_state.xstride = target_height;
 1242              		.loc 1 229 5 view .LVU335
 1243              	@ armwave.c:240:     g_armwave_state.wave_length = end_point - start_point;
 230:armwave.c     ****     g_armwave_state.vscale_frac = target_height / 255.0f;
 231:armwave.c     ****     g_armwave_state.vscale = (int)g_armwave_state.vscale_frac;
 232:armwave.c     ****     g_armwave_state.wave_stride = wave_stride;
 233:armwave.c     ****     g_armwave_state.waves_max = waves_max;
 234:armwave.c     ****     g_armwave_state.waves = waves_max;  // Need a function to be able to change this on the fly
 235:armwave.c     ****     g_armwave_state.size = target_height * target_width;
 236:armwave.c     ****     g_armwave_state.bitdepth_height = 256 * sizeof(bufftyp_t);  // Always 256 possible levels in 8-
 237:armwave.c     ****     g_armwave_state.ch_buff_size = (g_armwave_state.bitdepth_height + 4) * (target_width + 4) * siz
 238:armwave.c     ****     g_armwave_state.target_width = target_width;
 239:armwave.c     ****     g_armwave_state.target_height = target_height;
 240:armwave.c     ****     g_armwave_state.wave_length = end_point - start_point;
 1244              		.loc 1 240 45 is_stmt 0 view .LVU336
 1245 0590 045045E0 		sub	r5, r5, r4	@ _13, end_point, start_point
 1246              	.LVL75:
 1247              	@ armwave.c:244:         ((g_armwave_state.target_width) * (1.0f / g_armwave_state.wave_length)) * 
 241:armwave.c     **** 
 242:armwave.c     ****     // Calculate compound scaler
 243:armwave.c     ****     g_armwave_state.cmp_x_bitdepth_scale = \
 244:armwave.c     ****         ((g_armwave_state.target_width) * (1.0f / g_armwave_state.wave_length)) * (1 << AM_XCOORD_M
 1248              		.loc 1 244 49 view .LVU337
 1249 0594 725A9FED 		vldr.32	s10, .L77	@ tmp196,
 1250 0598 905A07EE 		vmov	s15, r5	@ int	@ _13, _13
 1251              	@ armwave.c:230:     g_armwave_state.vscale_frac = target_height / 255.0f;
 230:armwave.c     ****     g_armwave_state.vscale_frac = target_height / 255.0f;
 1252              		.loc 1 230 49 view .LVU338
 1253 059c 717A9FED 		vldr.32	s14, .L77+4	@ tmp174,
 1254              	@ armwave.c:244:         ((g_armwave_state.target_width) * (1.0f / g_armwave_state.wave_length)) * 
 1255              		.loc 1 244 81 view .LVU339
 1256 05a0 716A9FED 		vldr.32	s12, .L77+8	@ tmp200,
 1257              	@ armwave.c:237:     g_armwave_state.ch_buff_size = (g_armwave_state.bitdepth_height + 4) * (target
 237:armwave.c     ****     g_armwave_state.target_width = target_width;
 1258              		.loc 1 237 90 view .LVU340
 1259 05a4 043086E2 		add	r3, r6, #4	@ tmp185, target_width,
 1260              	@ armwave.c:244:         ((g_armwave_state.target_width) * (1.0f / g_armwave_state.wave_length)) * 
 1261              		.loc 1 244 49 view .LVU341
 1262 05a8 E76AF8EE 		vcvt.f32.s32	s13, s15	@ tmp194, _13
 1263              	@ armwave.c:230:     g_armwave_state.vscale_frac = target_height / 255.0f;
 230:armwave.c     ****     g_armwave_state.vscale_frac = target_height / 255.0f;
 1264              		.loc 1 230 49 view .LVU342
 1265 05ac 907A07EE 		vmov	s15, r7	@ int	@ target_height, target_height
 1266              	@ armwave.c:229:     g_armwave_state.xstride = target_height;
 229:armwave.c     ****     g_armwave_state.vscale_frac = target_height / 255.0f;
 1267              		.loc 1 229 29 view .LVU343
 1268 05b0 BC419FE5 		ldr	r4, .L77+16	@ tmp242,
 1269              	.LVL76:
 1270              	@ armwave.c:235:     g_armwave_state.size = target_height * target_width;
 235:armwave.c     ****     g_armwave_state.bitdepth_height = 256 * sizeof(bufftyp_t);  // Always 256 possible levels in 8-
 1271              		.loc 1 235 42 view .LVU344
 1272 05b4 970601E0 		mul	r1, r7, r6	@ tmp182, target_height, target_width
 1273              	@ armwave.c:230:     g_armwave_state.vscale_frac = target_height / 255.0f;
 230:armwave.c     ****     g_armwave_state.vscale = (int)g_armwave_state.vscale_frac;
 1274              		.loc 1 230 49 view .LVU345
 1275 05b8 675AF8EE 		vcvt.f32.u32	s11, s15	@ tmp173, target_height
 1276              	@ armwave.c:237:     g_armwave_state.ch_buff_size = (g_armwave_state.bitdepth_height + 4) * (target
 237:armwave.c     ****     g_armwave_state.target_width = target_width;
 1277              		.loc 1 237 95 view .LVU346
 1278 05bc 833383E0 		add	r3, r3, r3, lsl #7	@ tmp188, tmp185, tmp185,
 1279              	@ armwave.c:246:     printf("ch_buff_size=%d, cmp_x_bitdepth_scale=%d (0x%08x), targ_width=%d, wave
 245:armwave.c     **** 
 246:armwave.c     ****     printf("ch_buff_size=%d, cmp_x_bitdepth_scale=%d (0x%08x), targ_width=%d, wave_length=%d, scale
 1280              		.loc 1 246 5 view .LVU347
 1281 05c0 0128A0E3 		mov	r2, #65536	@ tmp203,
 1282              	@ armwave.c:244:         ((g_armwave_state.target_width) * (1.0f / g_armwave_state.wave_length)) * 
 244:armwave.c     **** 
 1283              		.loc 1 244 49 view .LVU348
 1284 05c4 267AC5EE 		vdiv.f32	s15, s10, s13	@ tmp195, tmp196, tmp194
 1285              	@ armwave.c:246:     printf("ch_buff_size=%d, cmp_x_bitdepth_scale=%d (0x%08x), targ_width=%d, wave
 1286              		.loc 1 246 5 view .LVU349
 1287 05c8 04508DE5 		str	r5, [sp, #4]	@ _13,
 1288 05cc 00608DE5 		str	r6, [sp]	@ target_width,
 1289              	@ armwave.c:237:     g_armwave_state.ch_buff_size = (g_armwave_state.bitdepth_height + 4) * (target
 237:armwave.c     ****     g_armwave_state.target_width = target_width;
 1290              		.loc 1 237 95 view .LVU350
 1291 05d0 8331A0E1 		lsl	r3, r3, #3	@ tmp189, tmp188,
 1292              	@ armwave.c:229:     g_armwave_state.xstride = target_height;
 229:armwave.c     ****     g_armwave_state.vscale_frac = target_height / 255.0f;
 1293              		.loc 1 229 29 view .LVU351
 1294 05d4 2C7084E5 		str	r7, [r4, #44]	@ target_height, g_armwave_state.xstride
 230:armwave.c     ****     g_armwave_state.vscale = (int)g_armwave_state.vscale_frac;
 1295              		.loc 1 230 5 is_stmt 1 view .LVU352
 1296              	@ armwave.c:232:     g_armwave_state.wave_stride = wave_stride;
 232:armwave.c     ****     g_armwave_state.waves_max = waves_max;
 1297              		.loc 1 232 33 is_stmt 0 view .LVU353
 1298 05d8 349084E5 		str	r9, [r4, #52]	@ wave_stride, g_armwave_state.wave_stride
 1299              	@ armwave.c:233:     g_armwave_state.waves_max = waves_max;
 233:armwave.c     ****     g_armwave_state.waves = waves_max;  // Need a function to be able to change this on the fly
 1300              		.loc 1 233 31 view .LVU354
 1301 05dc 3C8084E5 		str	r8, [r4, #60]	@ waves_max, g_armwave_state.waves_max
 1302              	@ armwave.c:234:     g_armwave_state.waves = waves_max;  // Need a function to be able to change th
 234:armwave.c     ****     g_armwave_state.size = target_height * target_width;
 1303              		.loc 1 234 27 view .LVU355
 1304 05e0 388084E5 		str	r8, [r4, #56]	@ waves_max, g_armwave_state.waves
 1305              	@ armwave.c:239:     g_armwave_state.target_height = target_height;
 239:armwave.c     ****     g_armwave_state.wave_length = end_point - start_point;
 1306              		.loc 1 239 35 view .LVU356
 1307 05e4 F865C4E1 		strd	r6, [r4, #88]	@, tmp242,
 1308              	@ armwave.c:246:     printf("ch_buff_size=%d, cmp_x_bitdepth_scale=%d (0x%08x), targ_width=%d, wave
 1309              		.loc 1 246 5 view .LVU357
 1310 05e8 08208DE5 		str	r2, [sp, #8]	@ tmp203,
 1311              	@ armwave.c:236:     g_armwave_state.bitdepth_height = 256 * sizeof(bufftyp_t);  // Always 256 poss
 236:armwave.c     ****     g_armwave_state.ch_buff_size = (g_armwave_state.bitdepth_height + 4) * (target_width + 4) * siz
 1312              		.loc 1 236 37 view .LVU358
 1313 05ec 022CA0E3 		mov	r2, #512	@ tmp184,
 1314              	@ armwave.c:235:     g_armwave_state.size = target_height * target_width;
 235:armwave.c     ****     g_armwave_state.bitdepth_height = 256 * sizeof(bufftyp_t);  // Always 256 possible levels in 8-
 1315              		.loc 1 235 26 view .LVU359
 1316 05f0 541084E5 		str	r1, [r4, #84]	@ tmp182, g_armwave_state.size
 1317              	@ armwave.c:236:     g_armwave_state.bitdepth_height = 256 * sizeof(bufftyp_t);  // Always 256 poss
 236:armwave.c     ****     g_armwave_state.ch_buff_size = (g_armwave_state.bitdepth_height + 4) * (target_width + 4) * siz
 1318              		.loc 1 236 37 view .LVU360
 1319 05f4 402084E5 		str	r2, [r4, #64]	@ tmp184, g_armwave_state.bitdepth_height
 1320              	@ armwave.c:246:     printf("ch_buff_size=%d, cmp_x_bitdepth_scale=%d (0x%08x), targ_width=%d, wave
 1321              		.loc 1 246 5 view .LVU361
 1322 05f8 0310A0E1 		mov	r1, r3	@, tmp189
 1323              	@ armwave.c:237:     g_armwave_state.ch_buff_size = (g_armwave_state.bitdepth_height + 4) * (target
 237:armwave.c     ****     g_armwave_state.target_width = target_width;
 1324              		.loc 1 237 34 view .LVU362
 1325 05fc 503084E5 		str	r3, [r4, #80]	@ tmp189, g_armwave_state.ch_buff_size
 1326              	@ armwave.c:230:     g_armwave_state.vscale_frac = target_height / 255.0f;
 230:armwave.c     ****     g_armwave_state.vscale = (int)g_armwave_state.vscale_frac;
 1327              		.loc 1 230 49 view .LVU363
 1328 0600 876AC5EE 		vdiv.f32	s13, s11, s14	@ _3, tmp173, tmp174
 1329              	@ armwave.c:244:         ((g_armwave_state.target_width) * (1.0f / g_armwave_state.wave_length)) * 
 244:armwave.c     **** 
 1330              		.loc 1 244 41 view .LVU364
 1331 0604 106A07EE 		vmov	s14, r6	@ int	@ target_width, target_width
 1332              	@ armwave.c:240:     g_armwave_state.wave_length = end_point - start_point;
 240:armwave.c     **** 
 1333              		.loc 1 240 33 view .LVU365
 1334 0608 4C5084E5 		str	r5, [r4, #76]	@ _13, g_armwave_state.wave_length
 1335              	@ armwave.c:246:     printf("ch_buff_size=%d, cmp_x_bitdepth_scale=%d (0x%08x), targ_width=%d, wave
 1336              		.loc 1 246 5 view .LVU366
 1337 060c 64019FE5 		ldr	r0, .L77+20	@,
 1338              	@ armwave.c:244:         ((g_armwave_state.target_width) * (1.0f / g_armwave_state.wave_length)) * 
 244:armwave.c     **** 
 1339              		.loc 1 244 41 view .LVU367
 1340 0610 C77AB8EE 		vcvt.f32.s32	s14, s14	@ tmp197, target_width
 1341 0614 877A67EE 		vmul.f32	s15, s15, s14	@ tmp198, tmp195, tmp197
 1342              	@ armwave.c:231:     g_armwave_state.vscale = (int)g_armwave_state.vscale_frac;
 231:armwave.c     ****     g_armwave_state.wave_stride = wave_stride;
 1343              		.loc 1 231 30 view .LVU368
 1344 0618 E67ABDEE 		vcvt.s32.f32	s14, s13	@ tmp177, _3
 1345              	@ armwave.c:230:     g_armwave_state.vscale_frac = target_height / 255.0f;
 230:armwave.c     ****     g_armwave_state.vscale = (int)g_armwave_state.vscale_frac;
 1346              		.loc 1 230 33 view .LVU369
 1347 061c 0A6AC4ED 		vstr.32	s13, [r4, #40]	@ _3, g_armwave_state.vscale_frac
 231:armwave.c     ****     g_armwave_state.wave_stride = wave_stride;
 1348              		.loc 1 231 5 is_stmt 1 view .LVU370
 1349              	@ armwave.c:244:         ((g_armwave_state.target_width) * (1.0f / g_armwave_state.wave_length)) * 
 244:armwave.c     **** 
 1350              		.loc 1 244 81 is_stmt 0 view .LVU371
 1351 0620 867A67EE 		vmul.f32	s15, s15, s12	@ tmp199, tmp198, tmp200
 1352              	@ armwave.c:231:     g_armwave_state.vscale = (int)g_armwave_state.vscale_frac;
 231:armwave.c     ****     g_armwave_state.wave_stride = wave_stride;
 1353              		.loc 1 231 30 view .LVU372
 1354 0624 0C7A84ED 		vstr.32	s14, [r4, #48]	@ int	@ tmp177, g_armwave_state.vscale
 232:armwave.c     ****     g_armwave_state.waves_max = waves_max;
 1355              		.loc 1 232 5 is_stmt 1 view .LVU373
 233:armwave.c     ****     g_armwave_state.waves = waves_max;  // Need a function to be able to change this on the fly
 1356              		.loc 1 233 5 view .LVU374
 234:armwave.c     ****     g_armwave_state.size = target_height * target_width;
 1357              		.loc 1 234 5 view .LVU375
 235:armwave.c     ****     g_armwave_state.bitdepth_height = 256 * sizeof(bufftyp_t);  // Always 256 possible levels in 8-
 1358              		.loc 1 235 5 view .LVU376
 236:armwave.c     ****     g_armwave_state.ch_buff_size = (g_armwave_state.bitdepth_height + 4) * (target_width + 4) * siz
 1359              		.loc 1 236 5 view .LVU377
 237:armwave.c     ****     g_armwave_state.target_width = target_width;
 1360              		.loc 1 237 5 view .LVU378
 238:armwave.c     ****     g_armwave_state.target_height = target_height;
 1361              		.loc 1 238 5 view .LVU379
 239:armwave.c     ****     g_armwave_state.wave_length = end_point - start_point;
 1362              		.loc 1 239 5 view .LVU380
 240:armwave.c     **** 
 1363              		.loc 1 240 5 view .LVU381
 243:armwave.c     ****         ((g_armwave_state.target_width) * (1.0f / g_armwave_state.wave_length)) * (1 << AM_XCOORD_M
 1364              		.loc 1 243 5 view .LVU382
 1365              	@ armwave.c:243:     g_armwave_state.cmp_x_bitdepth_scale = \
 243:armwave.c     ****         ((g_armwave_state.target_width) * (1.0f / g_armwave_state.wave_length)) * (1 << AM_XCOORD_M
 1366              		.loc 1 243 42 is_stmt 0 view .LVU383
 1367 0628 E77AFCEE 		vcvt.u32.f32	s15, s15	@ _20, tmp199
 1368 062c 90CA17EE 		vmov	ip, s15	@ int	@ _20, _20
 1369              	@ armwave.c:246:     printf("ch_buff_size=%d, cmp_x_bitdepth_scale=%d (0x%08x), targ_width=%d, wave
 1370              		.loc 1 246 5 view .LVU384
 1371 0630 903A17EE 		vmov	r3, s15	@ int	@, _20
 1372              	@ armwave.c:243:     g_armwave_state.cmp_x_bitdepth_scale = \
 243:armwave.c     ****         ((g_armwave_state.target_width) * (1.0f / g_armwave_state.wave_length)) * (1 << AM_XCOORD_M
 1373              		.loc 1 243 42 view .LVU385
 1374 0634 097AC4ED 		vstr.32	s15, [r4, #36]	@ int	@ _20, g_armwave_state.cmp_x_bitdepth_scale
 1375              		.loc 1 246 5 is_stmt 1 view .LVU386
 1376 0638 0C20A0E1 		mov	r2, ip	@, tmp3
 1377 063c FEFFFFEB 		bl	printf		@
 1378              	.LVL77:
 247:armwave.c     ****         g_armwave_state.ch_buff_size, g_armwave_state.cmp_x_bitdepth_scale, \
 248:armwave.c     ****         g_armwave_state.cmp_x_bitdepth_scale, g_armwave_state.target_width, g_armwave_state.wave_le
 249:armwave.c     ****         (1 << AM_XCOORD_MULT_SHIFT));
 250:armwave.c     **** 
 251:armwave.c     ****     // In 1ch mode, target 1024 x 16 render buffer, reading 16 bytes at a time from each wave, reta
 252:armwave.c     ****     // In 2ch mode, target two 1024 x 8 render buffers, reading 16 bytes at a time from each wave
 253:armwave.c     ****     // In 4ch mode, target four 1024 x 4 render buffers, reading 16 bytes at a time from each wave
 254:armwave.c     ****     g_armwave_state.slice_height = 256; // 64;  
 1379              		.loc 1 254 5 view .LVU387
 1380              	@ armwave.c:256:     if(g_armwave_state.ch1_buffer != NULL)
 255:armwave.c     **** 
 256:armwave.c     ****     if(g_armwave_state.ch1_buffer != NULL)
 1381              		.loc 1 256 23 is_stmt 0 view .LVU388
 1382 0640 040094E5 		ldr	r0, [r4, #4]	@ _21, g_armwave_state.ch1_buffer
 1383              	@ armwave.c:254:     g_armwave_state.slice_height = 256; // 64;  
 254:armwave.c     **** 
 1384              		.loc 1 254 34 view .LVU389
 1385 0644 013CA0E3 		mov	r3, #256	@ tmp205,
 1386              	@ armwave.c:256:     if(g_armwave_state.ch1_buffer != NULL)
 1387              		.loc 1 256 7 view .LVU390
 1388 0648 000050E3 		cmp	r0, #0	@ _21,
 1389              	@ armwave.c:254:     g_armwave_state.slice_height = 256; // 64;  
 254:armwave.c     **** 
 1390              		.loc 1 254 34 view .LVU391
 1391 064c 443084E5 		str	r3, [r4, #68]	@ tmp205, g_armwave_state.slice_height
 1392              		.loc 1 256 5 is_stmt 1 view .LVU392
 1393              	@ armwave.c:256:     if(g_armwave_state.ch1_buffer != NULL)
 1394              		.loc 1 256 7 is_stmt 0 view .LVU393
 1395 0650 0000000A 		beq	.L65		@,
 257:armwave.c     ****         free(g_armwave_state.ch1_buffer);
 1396              		.loc 1 257 9 is_stmt 1 view .LVU394
 1397 0654 FEFFFFEB 		bl	free		@
 1398              	.LVL78:
 1399              	.L65:
 258:armwave.c     **** 
 259:armwave.c     ****     g_armwave_state.ch1_buffer = calloc(g_armwave_state.ch_buff_size, 1);
 1400              		.loc 1 259 5 view .LVU395
 1401              	@ armwave.c:259:     g_armwave_state.ch1_buffer = calloc(g_armwave_state.ch_buff_size, 1);
 1402              		.loc 1 259 34 is_stmt 0 view .LVU396
 1403 0658 0110A0E3 		mov	r1, #1	@,
 1404 065c 500094E5 		ldr	r0, [r4, #80]	@, g_armwave_state.ch_buff_size
 1405 0660 FEFFFFEB 		bl	calloc		@
 1406              	.LVL79:
 1407              	@ armwave.c:261:     assert(g_armwave_state.ch1_buffer != NULL);
 260:armwave.c     **** 
 261:armwave.c     ****     assert(g_armwave_state.ch1_buffer != NULL);
 1408              		.loc 1 261 5 view .LVU397
 1409 0664 000050E3 		cmp	r0, #0	@ _24,
 1410              	@ armwave.c:259:     g_armwave_state.ch1_buffer = calloc(g_armwave_state.ch_buff_size, 1);
 259:armwave.c     **** 
 1411              		.loc 1 259 34 view .LVU398
 1412 0668 0070A0E1 		mov	r7, r0	@ _24,
 1413              	@ armwave.c:259:     g_armwave_state.ch1_buffer = calloc(g_armwave_state.ch_buff_size, 1);
 259:armwave.c     **** 
 1414              		.loc 1 259 32 view .LVU399
 1415 066c 040084E5 		str	r0, [r4, #4]	@ _24, g_armwave_state.ch1_buffer
 1416              		.loc 1 261 5 is_stmt 1 view .LVU400
 1417 0670 3600000A 		beq	.L75		@,
 262:armwave.c     **** 
 263:armwave.c     ****     // Precompute the x-coord to pixel lookup to reduce ALU load
 264:armwave.c     ****     length = end_point - start_point;
 1418              		.loc 1 264 5 view .LVU401
 1419              	.LVL80:
 265:armwave.c     ****     points_per_pixel = length / ((float)(target_width));
 1420              		.loc 1 265 5 view .LVU402
 1421              	@ armwave.c:265:     points_per_pixel = length / ((float)(target_width));
 1422              		.loc 1 265 34 is_stmt 0 view .LVU403
 1423 0674 906A07EE 		vmov	s15, r6	@ int	@ target_width, target_width
 1424              	@ armwave.c:265:     points_per_pixel = length / ((float)(target_width));
 1425              		.loc 1 265 22 view .LVU404
 1426 0678 905A06EE 		vmov	s13, r5	@ int	@ _13, _13
 1427              	@ armwave.c:266:     g_armwave_state.slice_record_height = points_per_pixel * g_armwave_state.slice
 266:armwave.c     ****     g_armwave_state.slice_record_height = points_per_pixel * g_armwave_state.slice_height;
 1428              		.loc 1 266 60 view .LVU405
 1429 067c 117A94ED 		vldr.32	s14, [r4, #68]	@ int	@ tmp253, g_armwave_state.slice_height
 1430              	@ armwave.c:267:     g_armwave_state.xcoord_to_xpixel = malloc(length * sizeof(uint16_t));
 267:armwave.c     ****     g_armwave_state.xcoord_to_xpixel = malloc(length * sizeof(uint16_t));
 1431              		.loc 1 267 40 view .LVU406
 1432 0680 8500A0E1 		lsl	r0, r5, #1	@, _13,
 1433              	@ armwave.c:265:     points_per_pixel = length / ((float)(target_width));
 265:armwave.c     ****     points_per_pixel = length / ((float)(target_width));
 1434              		.loc 1 265 34 view .LVU407
 1435 0684 677AF8EE 		vcvt.f32.u32	s15, s15	@ tmp216, target_width
 1436              	@ armwave.c:265:     points_per_pixel = length / ((float)(target_width));
 265:armwave.c     ****     points_per_pixel = length / ((float)(target_width));
 1437              		.loc 1 265 22 view .LVU408
 1438 0688 666AF8EE 		vcvt.f32.u32	s13, s13	@ tmp215, _13
 1439              	@ armwave.c:266:     g_armwave_state.slice_record_height = points_per_pixel * g_armwave_state.slice
 266:armwave.c     ****     g_armwave_state.slice_record_height = points_per_pixel * g_armwave_state.slice_height;
 1440              		.loc 1 266 60 view .LVU409
 1441 068c C77AB8EE 		vcvt.f32.s32	s14, s14	@ tmp219, tmp253
 1442              	@ armwave.c:265:     points_per_pixel = length / ((float)(target_width));
 265:armwave.c     ****     points_per_pixel = length / ((float)(target_width));
 1443              		.loc 1 265 22 view .LVU410
 1444 0690 A78A86EE 		vdiv.f32	s16, s13, s15	@ points_per_pixel, tmp215, tmp216
 1445              	.LVL81:
 266:armwave.c     ****     g_armwave_state.slice_record_height = points_per_pixel * g_armwave_state.slice_height;
 1446              		.loc 1 266 5 is_stmt 1 view .LVU411
 1447              	@ armwave.c:266:     g_armwave_state.slice_record_height = points_per_pixel * g_armwave_state.slice
 266:armwave.c     ****     g_armwave_state.slice_record_height = points_per_pixel * g_armwave_state.slice_height;
 1448              		.loc 1 266 60 is_stmt 0 view .LVU412
 1449 0694 087A67EE 		vmul.f32	s15, s14, s16	@ tmp221, tmp219, points_per_pixel
 1450              	@ armwave.c:266:     g_armwave_state.slice_record_height = points_per_pixel * g_armwave_state.slice
 266:armwave.c     ****     g_armwave_state.slice_record_height = points_per_pixel * g_armwave_state.slice_height;
 1451              		.loc 1 266 41 view .LVU413
 1452 0698 E77AFDEE 		vcvt.s32.f32	s15, s15	@ tmp222, tmp221
 1453 069c 127AC4ED 		vstr.32	s15, [r4, #72]	@ int	@ tmp222, g_armwave_state.slice_record_height
 1454              		.loc 1 267 5 is_stmt 1 view .LVU414
 1455              	@ armwave.c:267:     g_armwave_state.xcoord_to_xpixel = malloc(length * sizeof(uint16_t));
 1456              		.loc 1 267 40 is_stmt 0 view .LVU415
 1457 06a0 FEFFFFEB 		bl	malloc		@
 1458              	.LVL82:
 1459              	@ armwave.c:269:     assert(g_armwave_state.xcoord_to_xpixel != NULL);
 268:armwave.c     **** 
 269:armwave.c     ****     assert(g_armwave_state.xcoord_to_xpixel != NULL);
 1460              		.loc 1 269 5 view .LVU416
 1461 06a4 000050E3 		cmp	r0, #0	@ _32,
 1462              	@ armwave.c:267:     g_armwave_state.xcoord_to_xpixel = malloc(length * sizeof(uint16_t));
 267:armwave.c     ****     g_armwave_state.xcoord_to_xpixel = malloc(length * sizeof(uint16_t));
 1463              		.loc 1 267 40 view .LVU417
 1464 06a8 0060A0E1 		mov	r6, r0	@ _32,
 1465              	@ armwave.c:267:     g_armwave_state.xcoord_to_xpixel = malloc(length * sizeof(uint16_t));
 267:armwave.c     ****     g_armwave_state.xcoord_to_xpixel = malloc(length * sizeof(uint16_t));
 1466              		.loc 1 267 38 view .LVU418
 1467 06ac 840084E5 		str	r0, [r4, #132]	@ _32, g_armwave_state.xcoord_to_xpixel
 1468              		.loc 1 269 5 is_stmt 1 view .LVU419
 1469 06b0 2100000A 		beq	.L76		@,
 1470              	@ armwave.c:272:         g_armwave_state.xcoord_to_xpixel[xx] = (1.0f / points_per_pixel) * xx;
 270:armwave.c     **** 
 271:armwave.c     ****     for(xx = 0; xx < length; xx++) {
 272:armwave.c     ****         g_armwave_state.xcoord_to_xpixel[xx] = (1.0f / points_per_pixel) * xx;
 1471              		.loc 1 272 54 is_stmt 0 view .LVU420
 1472 06b4 2A7ADFED 		vldr.32	s15, .L77	@ tmp230,
 1473 06b8 020040E2 		sub	r0, r0, #2	@ ivtmp.89, _32,
 1474              	@ armwave.c:271:     for(xx = 0; xx < length; xx++) {
 271:armwave.c     ****         g_armwave_state.xcoord_to_xpixel[xx] = (1.0f / points_per_pixel) * xx;
 1475              		.loc 1 271 12 view .LVU421
 1476 06bc 0030A0E3 		mov	r3, #0	@ xx,
 1477              	@ armwave.c:272:         g_armwave_state.xcoord_to_xpixel[xx] = (1.0f / points_per_pixel) * xx;
 1478              		.loc 1 272 54 view .LVU422
 1479 06c0 887A87EE 		vdiv.f32	s14, s15, s16	@ _33, tmp230, points_per_pixel
 1480              	.L68:
 1481              	.LVL83:
 1482              		.loc 1 272 9 is_stmt 1 discriminator 3 view .LVU423
 1483              	@ armwave.c:272:         g_armwave_state.xcoord_to_xpixel[xx] = (1.0f / points_per_pixel) * xx;
 1484              		.loc 1 272 74 is_stmt 0 discriminator 3 view .LVU424
 1485 06c4 903A07EE 		vmov	s15, r3	@ int	@ xx, xx
 1486              	@ armwave.c:271:     for(xx = 0; xx < length; xx++) {
 271:armwave.c     ****         g_armwave_state.xcoord_to_xpixel[xx] = (1.0f / points_per_pixel) * xx;
 1487              		.loc 1 271 32 discriminator 3 view .LVU425
 1488 06c8 013083E2 		add	r3, r3, #1	@ xx, xx,
 1489              	.LVL84:
 1490              	@ armwave.c:271:     for(xx = 0; xx < length; xx++) {
 271:armwave.c     ****         g_armwave_state.xcoord_to_xpixel[xx] = (1.0f / points_per_pixel) * xx;
 1491              		.loc 1 271 5 discriminator 3 view .LVU426
 1492 06cc 030055E1 		cmp	r5, r3	@ _13, xx
 1493              	@ armwave.c:272:         g_armwave_state.xcoord_to_xpixel[xx] = (1.0f / points_per_pixel) * xx;
 1494              		.loc 1 272 74 discriminator 3 view .LVU427
 1495 06d0 E77AF8EE 		vcvt.f32.s32	s15, s15	@ tmp231, xx
 1496 06d4 877A67EE 		vmul.f32	s15, s15, s14	@ tmp232, tmp231, _33
 1497              	@ armwave.c:272:         g_armwave_state.xcoord_to_xpixel[xx] = (1.0f / points_per_pixel) * xx;
 1498              		.loc 1 272 46 discriminator 3 view .LVU428
 1499 06d8 E77AFCEE 		vcvt.u32.f32	s15, s15	@ tmp233, tmp232
 1500 06dc 902A17EE 		vmov	r2, s15	@ int	@ tmp233, tmp233
 1501 06e0 B220E0E1 		strh	r2, [r0, #2]!	@ movhi	@ tmp233, MEM[base: _102, offset: 0B]
 1502              	@ armwave.c:271:     for(xx = 0; xx < length; xx++) {
 271:armwave.c     ****         g_armwave_state.xcoord_to_xpixel[xx] = (1.0f / points_per_pixel) * xx;
 1503              		.loc 1 271 5 discriminator 3 view .LVU429
 1504 06e4 F6FFFF1A 		bne	.L68		@,
 273:armwave.c     **** 
 274:armwave.c     ****         // printf("xcoord_to_xpixel[%5d] = %5d (scale:%8.3f)\n", xx, g_armwave_state.xcoord_to_xpix
 275:armwave.c     ****     }
 276:armwave.c     **** 
 277:armwave.c     ****     g_armwave_state.out_pixbuf = malloc(sizeof(uint32_t) * g_armwave_state.size);
 1505              		.loc 1 277 5 is_stmt 1 view .LVU430
 1506              	@ armwave.c:277:     g_armwave_state.out_pixbuf = malloc(sizeof(uint32_t) * g_armwave_state.size);
 1507              		.loc 1 277 34 is_stmt 0 view .LVU431
 1508 06e8 540094E5 		ldr	r0, [r4, #84]	@ g_armwave_state.size, g_armwave_state.size
 1509 06ec 0001A0E1 		lsl	r0, r0, #2	@, g_armwave_state.size,
 1510 06f0 FEFFFFEB 		bl	malloc		@
 1511              	.LVL85:
 1512              	@ armwave.c:279:     printf("Ptrs: 0x%08x 0x%08x 0x%08x 0x%08x \n", \
 278:armwave.c     **** 
 279:armwave.c     ****     printf("Ptrs: 0x%08x 0x%08x 0x%08x 0x%08x \n", \
 1513              		.loc 1 279 5 view .LVU432
 1514 06f4 183094E5 		ldr	r3, [r4, #24]	@ g_armwave_state.test_wave_buffer, g_armwave_state.test_wave_buffer
 1515 06f8 0620A0E1 		mov	r2, r6	@, _32
 1516 06fc 00308DE5 		str	r3, [sp]	@ g_armwave_state.test_wave_buffer,
 1517 0700 0710A0E1 		mov	r1, r7	@, _24
 1518              	@ armwave.c:277:     g_armwave_state.out_pixbuf = malloc(sizeof(uint32_t) * g_armwave_state.size);
 277:armwave.c     **** 
 1519              		.loc 1 277 34 view .LVU433
 1520 0704 00C0A0E1 		mov	ip, r0	@ tmp237,
 1521              	@ armwave.c:279:     printf("Ptrs: 0x%08x 0x%08x 0x%08x 0x%08x \n", \
 1522              		.loc 1 279 5 view .LVU434
 1523 0708 0030A0E1 		mov	r3, r0	@, tmp237
 1524              	@ armwave.c:277:     g_armwave_state.out_pixbuf = malloc(sizeof(uint32_t) * g_armwave_state.size);
 277:armwave.c     **** 
 1525              		.loc 1 277 32 view .LVU435
 1526 070c 68C084E5 		str	ip, [r4, #104]	@ tmp237, g_armwave_state.out_pixbuf
 1527              		.loc 1 279 5 is_stmt 1 view .LVU436
 1528 0710 64009FE5 		ldr	r0, .L77+24	@,
 1529 0714 FEFFFFEB 		bl	printf		@
 1530              	.LVL86:
 280:armwave.c     ****         (uint32_t)g_armwave_state.ch1_buffer, \
 281:armwave.c     ****         (uint32_t)g_armwave_state.xcoord_to_xpixel, \
 282:armwave.c     ****         (uint32_t)g_armwave_state.out_pixbuf, \
 283:armwave.c     ****         (uint32_t)g_armwave_state.test_wave_buffer);
 284:armwave.c     **** 
 285:armwave.c     ****     malloc_stats();
 1531              		.loc 1 285 5 view .LVU437
 1532              	@ armwave.c:286: }
 286:armwave.c     **** }
 1533              		.loc 1 286 1 is_stmt 0 view .LVU438
 1534 0718 14D08DE2 		add	sp, sp, #20	@,,
 1535              		.cfi_remember_state
 1536              		.cfi_def_cfa_offset 36
 1537              		@ sp needed	@
 1538 071c 028BBDEC 		vldm	sp!, {d8}	@
 1539              		.cfi_restore 80
 1540              		.cfi_restore 81
 1541              		.cfi_def_cfa_offset 28
 1542              	.LVL87:
 1543              		.loc 1 286 1 view .LVU439
 1544 0720 F043BDE8 		pop	{r4, r5, r6, r7, r8, r9, lr}	@
 1545              		.cfi_restore 14
 1546              		.cfi_restore 9
 1547              		.cfi_restore 8
 1548              		.cfi_restore 7
 1549              		.cfi_restore 6
 1550              		.cfi_restore 5
 1551              		.cfi_restore 4
 1552              		.cfi_def_cfa_offset 0
 1553              	.LVL88:
 1554              	@ armwave.c:285:     malloc_stats();
 285:armwave.c     **** }
 1555              		.loc 1 285 5 view .LVU440
 1556 0724 FEFFFFEA 		b	malloc_stats		@
 1557              	.LVL89:
 1558              	.L74:
 1559              		.cfi_restore_state
 208:armwave.c     **** 
 1560              		.loc 1 208 5 is_stmt 1 discriminator 1 view .LVU441
 1561 0728 50309FE5 		ldr	r3, .L77+28	@,
 1562 072c D020A0E3 		mov	r2, #208	@,
 1563 0730 4C109FE5 		ldr	r1, .L77+32	@,
 1564 0734 4C009FE5 		ldr	r0, .L77+36	@,
 1565 0738 FEFFFFEB 		bl	__assert_fail		@
 1566              	.LVL90:
 1567              	.L76:
 269:armwave.c     **** 
 1568              		.loc 1 269 5 discriminator 1 view .LVU442
 1569 073c 3C309FE5 		ldr	r3, .L77+28	@,
 1570 0740 44209FE5 		ldr	r2, .L77+40	@,
 1571 0744 38109FE5 		ldr	r1, .L77+32	@,
 1572 0748 40009FE5 		ldr	r0, .L77+44	@,
 1573 074c FEFFFFEB 		bl	__assert_fail		@
 1574              	.LVL91:
 1575              	.L75:
 261:armwave.c     **** 
 1576              		.loc 1 261 5 discriminator 1 view .LVU443
 1577 0750 28309FE5 		ldr	r3, .L77+28	@,
 1578 0754 38209FE5 		ldr	r2, .L77+48	@,
 1579 0758 24109FE5 		ldr	r1, .L77+32	@,
 1580 075c 34009FE5 		ldr	r0, .L77+52	@,
 1581 0760 FEFFFFEB 		bl	__assert_fail		@
 1582              	.LVL92:
 1583              	.L78:
 1584              		.align	2
 1585              	.L77:
 1586 0764 0000803F 		.word	1065353216
 1587 0768 00007F43 		.word	1132396544
 1588 076c 00008047 		.word	1199570944
 1589 0770 20000000 		.word	.LC2
 1590 0774 00000000 		.word	g_armwave_state
 1591 0778 70000000 		.word	.LC5
 1592 077c 20010000 		.word	.LC8
 1593 0780 00000000 		.word	.LANCHOR0
 1594 0784 4C000000 		.word	.LC3
 1595 0788 58000000 		.word	.LC4
 1596 078c 0D010000 		.word	269
 1597 0790 F4000000 		.word	.LC7
 1598 0794 05010000 		.word	261
 1599 0798 D0000000 		.word	.LC6
 1600              		.cfi_endproc
 1601              	.LFE62:
 1603              		.align	2
 1604              		.global	armwave_set_wave_pointer
 1605              		.syntax unified
 1606              		.arm
 1607              		.fpu vfp
 1609              	armwave_set_wave_pointer:
 1610              	.LVL93:
 1611              	.LFB63:
 287:armwave.c     **** 
 288:armwave.c     **** /*
 289:armwave.c     ****  * Set wave buffer pointer.  This needs to be changed to support disjointed buffers
 290:armwave.c     ****  * in the future.
 291:armwave.c     ****  */
 292:armwave.c     **** void armwave_set_wave_pointer(uint8_t *wave_buffer)
 293:armwave.c     **** {
 1612              		.loc 1 293 1 view -0
 1613              		.cfi_startproc
 1614              		@ args = 0, pretend = 0, frame = 0
 1615              		@ frame_needed = 0, uses_anonymous_args = 0
 294:armwave.c     ****     assert(wave_buffer != NULL);
 1616              		.loc 1 294 5 view .LVU445
 1617 079c 000050E3 		cmp	r0, #0	@ wave_buffer
 1618              		.loc 1 294 5 is_stmt 0 view .LVU446
 1619 07a0 0200000A 		beq	.L84		@,
 295:armwave.c     ****     g_armwave_state.wave_buffer = wave_buffer;
 1620              		.loc 1 295 5 is_stmt 1 view .LVU447
 1621              	@ armwave.c:295:     g_armwave_state.wave_buffer = wave_buffer;
 1622              		.loc 1 295 33 is_stmt 0 view .LVU448
 1623 07a4 1C309FE5 		ldr	r3, .L85	@ tmp116,
 1624 07a8 140083E5 		str	r0, [r3, #20]	@ wave_buffer, g_armwave_state.wave_buffer
 1625 07ac 1EFF2FE1 		bx	lr	@
 1626              	.L84:
 294:armwave.c     ****     assert(wave_buffer != NULL);
 1627              		.loc 1 294 5 is_stmt 1 discriminator 1 view .LVU449
 1628              	@ armwave.c:293: {
 293:armwave.c     ****     assert(wave_buffer != NULL);
 1629              		.loc 1 293 1 is_stmt 0 discriminator 1 view .LVU450
 1630 07b0 10402DE9 		push	{r4, lr}	@
 1631              		.cfi_def_cfa_offset 8
 1632              		.cfi_offset 4, -8
 1633              		.cfi_offset 14, -4
 1634              	@ armwave.c:294:     assert(wave_buffer != NULL);
 294:armwave.c     ****     assert(wave_buffer != NULL);
 1635              		.loc 1 294 5 discriminator 1 view .LVU451
 1636 07b4 10309FE5 		ldr	r3, .L85+4	@,
 1637 07b8 10209FE5 		ldr	r2, .L85+8	@,
 1638 07bc 10109FE5 		ldr	r1, .L85+12	@,
 1639 07c0 10009FE5 		ldr	r0, .L85+16	@,
 1640              	.LVL94:
 294:armwave.c     ****     assert(wave_buffer != NULL);
 1641              		.loc 1 294 5 discriminator 1 view .LVU452
 1642 07c4 FEFFFFEB 		bl	__assert_fail		@
 1643              	.LVL95:
 1644              	.L86:
 1645              		.align	2
 1646              	.L85:
 1647 07c8 00000000 		.word	g_armwave_state
 1648 07cc 18000000 		.word	.LANCHOR0+24
 1649 07d0 26010000 		.word	294
 1650 07d4 4C000000 		.word	.LC3
 1651 07d8 44010000 		.word	.LC9
 1652              		.cfi_endproc
 1653              	.LFE63:
 1655              		.align	2
 1656              		.global	armwave_set_wave_pointer_as_testbuf
 1657              		.syntax unified
 1658              		.arm
 1659              		.fpu vfp
 1661              	armwave_set_wave_pointer_as_testbuf:
 1662              	.LVL96:
 1663              	.LFB64:
 296:armwave.c     **** }
 297:armwave.c     **** 
 298:armwave.c     **** /*
 299:armwave.c     ****  * Set the wave buffer pointer as the test waveform buffer filled by such functions
 300:armwave.c     ****  * as `armwave_test_create_square` and `armwave_test_create_am_sine`.
 301:armwave.c     ****  */
 302:armwave.c     **** void armwave_set_wave_pointer_as_testbuf(int set)
 303:armwave.c     **** {
 1664              		.loc 1 303 1 is_stmt 1 view -0
 1665              		.cfi_startproc
 1666              		@ args = 0, pretend = 0, frame = 0
 1667              		@ frame_needed = 0, uses_anonymous_args = 0
 1668              		@ link register save eliminated.
 304:armwave.c     ****     if(set > g_armwave_state.test_wave_buffer_nsets) {
 1669              		.loc 1 304 5 view .LVU454
 1670              	@ armwave.c:304:     if(set > g_armwave_state.test_wave_buffer_nsets) {
 1671              		.loc 1 304 29 is_stmt 0 view .LVU455
 1672 07dc 24309FE5 		ldr	r3, .L90	@ tmp117,
 1673              	@ armwave.c:304:     if(set > g_armwave_state.test_wave_buffer_nsets) {
 1674              		.loc 1 304 7 view .LVU456
 1675 07e0 202093E5 		ldr	r2, [r3, #32]	@ g_armwave_state.test_wave_buffer_nsets, g_armwave_state.test_wave_buffer_nsets
 1676 07e4 000052E1 		cmp	r2, r0	@ g_armwave_state.test_wave_buffer_nsets, set
 1677 07e8 0400003A 		bcc	.L89		@,
 305:armwave.c     ****         printf("armwave_set_wave_pointer_as_testbuf: error, nsets exceeded\n");
 306:armwave.c     ****         return;
 307:armwave.c     ****     }
 308:armwave.c     **** 
 309:armwave.c     ****     g_armwave_state.wave_buffer = g_armwave_state.test_wave_buffer + (g_armwave_state.test_wave_buf
 1678              		.loc 1 309 5 is_stmt 1 view .LVU457
 1679              	@ armwave.c:309:     g_armwave_state.wave_buffer = g_armwave_state.test_wave_buffer + (g_armwave_st
 1680              		.loc 1 309 111 is_stmt 0 view .LVU458
 1681 07ec 1C1093E5 		ldr	r1, [r3, #28]	@ g_armwave_state.test_wave_buffer_stride, g_armwave_state.test_wave_buffer_stri
 1682              	@ armwave.c:309:     g_armwave_state.wave_buffer = g_armwave_state.test_wave_buffer + (g_armwave_st
 1683              		.loc 1 309 68 view .LVU459
 1684 07f0 182093E5 		ldr	r2, [r3, #24]	@ g_armwave_state.test_wave_buffer, g_armwave_state.test_wave_buffer
 1685 07f4 912020E0 		mla	r0, r1, r0, r2	@ tmp125, g_armwave_state.test_wave_buffer_stride, set, g_armwave_state.test_wa
 1686              	.LVL97:
 1687              	@ armwave.c:309:     g_armwave_state.wave_buffer = g_armwave_state.test_wave_buffer + (g_armwave_st
 1688              		.loc 1 309 33 view .LVU460
 1689 07f8 140083E5 		str	r0, [r3, #20]	@ tmp125, g_armwave_state.wave_buffer
 1690              	@ armwave.c:310: }
 310:armwave.c     **** }
 1691              		.loc 1 310 1 view .LVU461
 1692 07fc 1EFF2FE1 		bx	lr	@
 1693              	.LVL98:
 1694              	.L89:
 305:armwave.c     ****         printf("armwave_set_wave_pointer_as_testbuf: error, nsets exceeded\n");
 1695              		.loc 1 305 9 is_stmt 1 view .LVU462
 1696 0800 04009FE5 		ldr	r0, .L90+4	@,
 1697              	.LVL99:
 305:armwave.c     ****         printf("armwave_set_wave_pointer_as_testbuf: error, nsets exceeded\n");
 1698              		.loc 1 305 9 is_stmt 0 view .LVU463
 1699 0804 FEFFFFEA 		b	puts		@
 1700              	.LVL100:
 1701              	.L91:
 1702              		.align	2
 1703              	.L90:
 1704 0808 00000000 		.word	g_armwave_state
 1705 080c 58010000 		.word	.LC10
 1706              		.cfi_endproc
 1707              	.LFE64:
 1709              		.align	2
 1710              		.global	armwave_set_wave_pointer_u32
 1711              		.syntax unified
 1712              		.arm
 1713              		.fpu vfp
 1715              	armwave_set_wave_pointer_u32:
 1716              	.LVL101:
 1717              	.LFB65:
 311:armwave.c     **** 
 312:armwave.c     **** /*
 313:armwave.c     ****  * Set wave buffer pointer from a 32-bit uint.  This needs to be changed to support 
 314:armwave.c     ****  * disjointed buffers in the future.
 315:armwave.c     ****  */
 316:armwave.c     **** void armwave_set_wave_pointer_u32(uint32_t wave_buffer_ptr)
 317:armwave.c     **** {
 1718              		.loc 1 317 1 is_stmt 1 view -0
 1719              		.cfi_startproc
 1720              		@ args = 0, pretend = 0, frame = 0
 1721              		@ frame_needed = 0, uses_anonymous_args = 0
 318:armwave.c     ****     assert(wave_buffer_ptr != 0);
 1722              		.loc 1 318 5 view .LVU465
 1723 0810 000050E3 		cmp	r0, #0	@ wave_buffer_ptr
 1724              		.loc 1 318 5 is_stmt 0 view .LVU466
 1725 0814 0200000A 		beq	.L97		@,
 319:armwave.c     ****     g_armwave_state.wave_buffer = (uint8_t*)wave_buffer_ptr;
 1726              		.loc 1 319 5 is_stmt 1 view .LVU467
 1727              	@ armwave.c:319:     g_armwave_state.wave_buffer = (uint8_t*)wave_buffer_ptr;
 1728              		.loc 1 319 33 is_stmt 0 view .LVU468
 1729 0818 1C309FE5 		ldr	r3, .L98	@ tmp117,
 1730 081c 140083E5 		str	r0, [r3, #20]	@ wave_buffer_ptr, g_armwave_state.wave_buffer
 1731 0820 1EFF2FE1 		bx	lr	@
 1732              	.L97:
 318:armwave.c     ****     assert(wave_buffer_ptr != 0);
 1733              		.loc 1 318 5 is_stmt 1 discriminator 1 view .LVU469
 1734              	@ armwave.c:317: {
 317:armwave.c     ****     assert(wave_buffer_ptr != 0);
 1735              		.loc 1 317 1 is_stmt 0 discriminator 1 view .LVU470
 1736 0824 10402DE9 		push	{r4, lr}	@
 1737              		.cfi_def_cfa_offset 8
 1738              		.cfi_offset 4, -8
 1739              		.cfi_offset 14, -4
 1740              	@ armwave.c:318:     assert(wave_buffer_ptr != 0);
 318:armwave.c     ****     assert(wave_buffer_ptr != 0);
 1741              		.loc 1 318 5 discriminator 1 view .LVU471
 1742 0828 10309FE5 		ldr	r3, .L98+4	@,
 1743 082c 10209FE5 		ldr	r2, .L98+8	@,
 1744 0830 10109FE5 		ldr	r1, .L98+12	@,
 1745 0834 10009FE5 		ldr	r0, .L98+16	@,
 1746              	.LVL102:
 318:armwave.c     ****     assert(wave_buffer_ptr != 0);
 1747              		.loc 1 318 5 discriminator 1 view .LVU472
 1748 0838 FEFFFFEB 		bl	__assert_fail		@
 1749              	.LVL103:
 1750              	.L99:
 1751              		.align	2
 1752              	.L98:
 1753 083c 00000000 		.word	g_armwave_state
 1754 0840 34000000 		.word	.LANCHOR0+52
 1755 0844 3E010000 		.word	318
 1756 0848 4C000000 		.word	.LC3
 1757 084c 94010000 		.word	.LC11
 1758              		.cfi_endproc
 1759              	.LFE65:
 1761              		.align	2
 1762              		.global	armwave_clear_buffer
 1763              		.syntax unified
 1764              		.arm
 1765              		.fpu vfp
 1767              	armwave_clear_buffer:
 1768              	.LVL104:
 1769              	.LFB66:
 320:armwave.c     **** }
 321:armwave.c     **** 
 322:armwave.c     **** /*
 323:armwave.c     ****  * Clear the working buffer (fill it with all zeros.)
 324:armwave.c     ****  */
 325:armwave.c     **** void armwave_clear_buffer(uint32_t flags)
 326:armwave.c     **** {
 1770              		.loc 1 326 1 is_stmt 1 view -0
 1771              		.cfi_startproc
 1772              		@ args = 0, pretend = 0, frame = 0
 1773              		@ frame_needed = 0, uses_anonymous_args = 0
 1774              		@ link register save eliminated.
 327:armwave.c     ****     // Flags ignored, only one buffer cleared
 328:armwave.c     ****     memset(g_armwave_state.ch1_buffer, 0, g_armwave_state.ch_buff_size);
 1775              		.loc 1 328 5 view .LVU474
 1776              	@ armwave.c:328:     memset(g_armwave_state.ch1_buffer, 0, g_armwave_state.ch_buff_size);
 1777              		.loc 1 328 58 is_stmt 0 view .LVU475
 1778 0850 0C309FE5 		ldr	r3, .L101	@ tmp114,
 1779              	@ armwave.c:328:     memset(g_armwave_state.ch1_buffer, 0, g_armwave_state.ch_buff_size);
 1780              		.loc 1 328 5 view .LVU476
 1781 0854 0010A0E3 		mov	r1, #0	@,
 1782 0858 502093E5 		ldr	r2, [r3, #80]	@, g_armwave_state.ch_buff_size
 1783 085c 040093E5 		ldr	r0, [r3, #4]	@, g_armwave_state.ch1_buffer
 1784              	.LVL105:
 1785              		.loc 1 328 5 view .LVU477
 1786 0860 FEFFFFEA 		b	memset		@
 1787              	.LVL106:
 1788              	.L102:
 1789              		.align	2
 1790              	.L101:
 1791 0864 00000000 		.word	g_armwave_state
 1792              		.cfi_endproc
 1793              	.LFE66:
 1795              		.align	2
 1796              		.global	armwave_set_channel_colour
 1797              		.syntax unified
 1798              		.arm
 1799              		.fpu vfp
 1801              	armwave_set_channel_colour:
 1802              	.LVL107:
 1803              	.LFB67:
 329:armwave.c     **** }
 330:armwave.c     **** 
 331:armwave.c     **** /*
 332:armwave.c     ****  * Set the render colour for a channel.  R/G/B may exceed 255 for saturation effects.
 333:armwave.c     ****  */
 334:armwave.c     **** void armwave_set_channel_colour(int ch, int r, int g, int b)
 335:armwave.c     **** {
 1804              		.loc 1 335 1 is_stmt 1 view -0
 1805              		.cfi_startproc
 1806              		@ args = 0, pretend = 0, frame = 0
 1807              		@ frame_needed = 0, uses_anonymous_args = 0
 1808              		@ link register save eliminated.
 336:armwave.c     ****     // Only 1ch supported for now
 337:armwave.c     ****     switch(ch) {
 1809              		.loc 1 337 5 view .LVU479
 1810 0868 010050E3 		cmp	r0, #1	@ ch,
 338:armwave.c     ****         case 1:
 339:armwave.c     ****             g_armwave_state.ch1_color.r = r;
 1811              		.loc 1 339 13 view .LVU480
 1812              	@ armwave.c:339:             g_armwave_state.ch1_color.r = r;
 1813              		.loc 1 339 41 is_stmt 0 view .LVU481
 1814 086c 0C009F05 		ldreq	r0, .L105	@ tmp117,
 1815              	.LVL108:
 1816              		.loc 1 339 41 view .LVU482
 1817 0870 BC16C001 		strheq	r1, [r0, #108]	@ movhi	@ r, g_armwave_state.ch1_color.r
 340:armwave.c     ****             g_armwave_state.ch1_color.g = g;
 1818              		.loc 1 340 13 is_stmt 1 view .LVU483
 1819              	@ armwave.c:340:             g_armwave_state.ch1_color.g = g;
 1820              		.loc 1 340 41 is_stmt 0 view .LVU484
 1821 0874 BE26C001 		strheq	r2, [r0, #110]	@ movhi	@ g, g_armwave_state.ch1_color.g
 341:armwave.c     ****             g_armwave_state.ch1_color.b = b;
 1822              		.loc 1 341 13 is_stmt 1 view .LVU485
 1823              	@ armwave.c:341:             g_armwave_state.ch1_color.b = b;
 1824              		.loc 1 341 41 is_stmt 0 view .LVU486
 1825 0878 B037C001 		strheq	r3, [r0, #112]	@ movhi	@ b, g_armwave_state.ch1_color.b
 342:armwave.c     ****             break;
 1826              		.loc 1 342 13 is_stmt 1 view .LVU487
 1827              	@ armwave.c:344: }
 343:armwave.c     ****     }
 344:armwave.c     **** }
 1828              		.loc 1 344 1 is_stmt 0 view .LVU488
 1829 087c 1EFF2FE1 		bx	lr	@
 1830              	.L106:
 1831              		.align	2
 1832              	.L105:
 1833 0880 00000000 		.word	g_armwave_state
 1834              		.cfi_endproc
 1835              	.LFE67:
 1837              		.align	2
 1838              		.global	armwave_dump_ppm_debug
 1839              		.syntax unified
 1840              		.arm
 1841              		.fpu vfp
 1843              	armwave_dump_ppm_debug:
 1844              	.LVL109:
 1845              	.LFB68:
 345:armwave.c     **** 
 346:armwave.c     **** /*
 347:armwave.c     ****  * Dump a ppm of a buffer to a file.
 348:armwave.c     ****  */
 349:armwave.c     **** void armwave_dump_ppm_debug(uint32_t *buffer, char *fn)
 350:armwave.c     **** {
 1846              		.loc 1 350 1 is_stmt 1 view -0
 1847              		.cfi_startproc
 1848              		@ args = 0, pretend = 0, frame = 0
 1849              		@ frame_needed = 0, uses_anonymous_args = 0
 351:armwave.c     ****     FILE *fp = fopen(fn, "wb");
 1850              		.loc 1 351 5 view .LVU490
 1851              	@ armwave.c:350: {
 350:armwave.c     ****     FILE *fp = fopen(fn, "wb");
 1852              		.loc 1 350 1 is_stmt 0 view .LVU491
 1853 0884 0130A0E1 		mov	r3, r1	@ fn, fn
 1854 0888 F0432DE9 		push	{r4, r5, r6, r7, r8, r9, lr}	@
 1855              		.cfi_def_cfa_offset 28
 1856              		.cfi_offset 4, -28
 1857              		.cfi_offset 5, -24
 1858              		.cfi_offset 6, -20
 1859              		.cfi_offset 7, -16
 1860              		.cfi_offset 8, -12
 1861              		.cfi_offset 9, -8
 1862              		.cfi_offset 14, -4
 1863 088c 0080A0E1 		mov	r8, r0	@ buffer, buffer
 1864 0890 0CD04DE2 		sub	sp, sp, #12	@,,
 1865              		.cfi_def_cfa_offset 40
 1866              	@ armwave.c:351:     FILE *fp = fopen(fn, "wb");
 1867              		.loc 1 351 16 view .LVU492
 1868 0894 C4109FE5 		ldr	r1, .L115	@,
 1869              	.LVL110:
 1870              		.loc 1 351 16 view .LVU493
 1871 0898 0300A0E1 		mov	r0, r3	@, fn
 1872              	.LVL111:
 1873              		.loc 1 351 16 view .LVU494
 1874 089c FEFFFFEB 		bl	fopen64		@
 1875              	.LVL112:
 1876              	@ armwave.c:358:     fprintf(fp, "%d %d\n", g_armwave_state.target_width, g_armwave_state.target_he
 352:armwave.c     ****     uint32_t data;
 353:armwave.c     ****     int xx, yy;
 354:armwave.c     **** 
 355:armwave.c     ****     //printf("in_buffer=0x%08x\n", buffer);
 356:armwave.c     **** 
 357:armwave.c     ****     fputs("P3\n", fp);
 358:armwave.c     ****     fprintf(fp, "%d %d\n", g_armwave_state.target_width, g_armwave_state.target_height);
 1877              		.loc 1 358 5 view .LVU495
 1878 08a0 BC609FE5 		ldr	r6, .L115+4	@ tmp150,
 1879              	@ armwave.c:357:     fputs("P3\n", fp);
 357:armwave.c     ****     fprintf(fp, "%d %d\n", g_armwave_state.target_width, g_armwave_state.target_height);
 1880              		.loc 1 357 5 view .LVU496
 1881 08a4 0320A0E3 		mov	r2, #3	@,
 1882 08a8 0110A0E3 		mov	r1, #1	@,
 1883              	@ armwave.c:351:     FILE *fp = fopen(fn, "wb");
 351:armwave.c     ****     uint32_t data;
 1884              		.loc 1 351 16 view .LVU497
 1885 08ac 0070A0E1 		mov	r7, r0	@ fp,
 1886              	.LVL113:
 352:armwave.c     ****     uint32_t data;
 1887              		.loc 1 352 5 is_stmt 1 view .LVU498
 353:armwave.c     **** 
 1888              		.loc 1 353 5 view .LVU499
 357:armwave.c     ****     fprintf(fp, "%d %d\n", g_armwave_state.target_width, g_armwave_state.target_height);
 1889              		.loc 1 357 5 view .LVU500
 1890 08b0 0030A0E1 		mov	r3, r0	@, fp
 1891 08b4 AC009FE5 		ldr	r0, .L115+8	@,
 1892              	.LVL114:
 357:armwave.c     ****     fprintf(fp, "%d %d\n", g_armwave_state.target_width, g_armwave_state.target_height);
 1893              		.loc 1 357 5 is_stmt 0 view .LVU501
 1894 08b8 FEFFFFEB 		bl	fwrite		@
 1895              	.LVL115:
 1896              		.loc 1 358 5 is_stmt 1 view .LVU502
 1897 08bc D825C6E1 		ldrd	r2, [r6, #88]	@, tmp150,
 1898 08c0 A4109FE5 		ldr	r1, .L115+12	@,
 1899 08c4 0700A0E1 		mov	r0, r7	@, fp
 1900 08c8 FEFFFFEB 		bl	fprintf		@
 1901              	.LVL116:
 359:armwave.c     ****     fputs("255\n", fp);
 1902              		.loc 1 359 5 view .LVU503
 1903 08cc 0420A0E3 		mov	r2, #4	@,
 1904 08d0 0730A0E1 		mov	r3, r7	@, fp
 1905 08d4 0110A0E3 		mov	r1, #1	@,
 1906 08d8 90009FE5 		ldr	r0, .L115+16	@,
 1907 08dc FEFFFFEB 		bl	fwrite		@
 1908              	.LVL117:
 360:armwave.c     **** 
 361:armwave.c     ****     for(yy = 0; yy < g_armwave_state.target_height; yy++) {
 1909              		.loc 1 361 5 view .LVU504
 1910              	@ armwave.c:361:     for(yy = 0; yy < g_armwave_state.target_height; yy++) {
 1911              		.loc 1 361 37 is_stmt 0 view .LVU505
 1912 08e0 5C2096E5 		ldr	r2, [r6, #92]	@ prephitmp_53, g_armwave_state.target_height
 1913              	@ armwave.c:361:     for(yy = 0; yy < g_armwave_state.target_height; yy++) {
 1914              		.loc 1 361 5 view .LVU506
 1915 08e4 000052E3 		cmp	r2, #0	@ prephitmp_53,
 1916 08e8 180000DA 		ble	.L108		@,
 1917 08ec 583096E5 		ldr	r3, [r6, #88]	@ _13, g_armwave_state.target_width
 1918              	@ armwave.c:366:             fprintf(fp, "%3d %3d %3d\n", data & 0xff, (data >> 8) & 0xff, (data >>
 362:armwave.c     ****         for(xx = 0; xx < g_armwave_state.target_width; xx++) {
 363:armwave.c     ****             data = *(buffer + (xx + (yy * g_armwave_state.target_width)));
 364:armwave.c     ****             //printf("xx,yy=%4d,%4d, word=0x%08x\n", xx, yy, data);
 365:armwave.c     **** 
 366:armwave.c     ****             fprintf(fp, "%3d %3d %3d\n", data & 0xff, (data >> 8) & 0xff, (data >> 16) & 0xff);
 1919              		.loc 1 366 13 view .LVU507
 1920 08f0 7C909FE5 		ldr	r9, .L115+20	@ tmp152,
 1921              	@ armwave.c:361:     for(yy = 0; yy < g_armwave_state.target_height; yy++) {
 361:armwave.c     ****         for(xx = 0; xx < g_armwave_state.target_width; xx++) {
 1922              		.loc 1 361 12 view .LVU508
 1923 08f4 0050A0E3 		mov	r5, #0	@ yy,
 1924              	.LVL118:
 1925              	.L109:
 1926              	@ armwave.c:362:         for(xx = 0; xx < g_armwave_state.target_width; xx++) {
 362:armwave.c     ****         for(xx = 0; xx < g_armwave_state.target_width; xx++) {
 1927              		.loc 1 362 9 view .LVU509
 1928 08f8 000053E3 		cmp	r3, #0	@ _13,
 1929              	@ armwave.c:362:         for(xx = 0; xx < g_armwave_state.target_width; xx++) {
 362:armwave.c     ****         for(xx = 0; xx < g_armwave_state.target_width; xx++) {
 1930              		.loc 1 362 16 view .LVU510
 1931 08fc 0040A0C3 		movgt	r4, #0	@ xx,
 1932              	@ armwave.c:362:         for(xx = 0; xx < g_armwave_state.target_width; xx++) {
 362:armwave.c     ****         for(xx = 0; xx < g_armwave_state.target_width; xx++) {
 1933              		.loc 1 362 9 view .LVU511
 1934 0900 0F0000DA 		ble	.L111		@,
 1935              	.LVL119:
 1936              	.L110:
 363:armwave.c     ****             //printf("xx,yy=%4d,%4d, word=0x%08x\n", xx, yy, data);
 1937              		.loc 1 363 13 is_stmt 1 discriminator 3 view .LVU512
 1938              	@ armwave.c:363:             data = *(buffer + (xx + (yy * g_armwave_state.target_width)));
 363:armwave.c     ****             //printf("xx,yy=%4d,%4d, word=0x%08x\n", xx, yy, data);
 1939              		.loc 1 363 29 is_stmt 0 discriminator 3 view .LVU513
 1940 0904 954323E0 		mla	r3, r5, r3, r4	@ tmp141, yy, _13, xx
 1941              	@ armwave.c:366:             fprintf(fp, "%3d %3d %3d\n", data & 0xff, (data >> 8) & 0xff, (data >>
 1942              		.loc 1 366 13 discriminator 3 view .LVU514
 1943 0908 0910A0E1 		mov	r1, r9	@, tmp152
 1944 090c 0700A0E1 		mov	r0, r7	@, fp
 1945              	@ armwave.c:363:             data = *(buffer + (xx + (yy * g_armwave_state.target_width)));
 363:armwave.c     ****             //printf("xx,yy=%4d,%4d, word=0x%08x\n", xx, yy, data);
 1946              		.loc 1 363 18 discriminator 3 view .LVU515
 1947 0910 032198E7 		ldr	r2, [r8, r3, lsl #2]	@ data, *_7
 1948              	.LVL120:
 1949              		.loc 1 366 13 is_stmt 1 discriminator 3 view .LVU516
 1950              	@ armwave.c:362:         for(xx = 0; xx < g_armwave_state.target_width; xx++) {
 362:armwave.c     ****         for(xx = 0; xx < g_armwave_state.target_width; xx++) {
 1951              		.loc 1 362 58 is_stmt 0 discriminator 3 view .LVU517
 1952 0914 014084E2 		add	r4, r4, #1	@ xx, xx,
 1953              	.LVL121:
 1954              	@ armwave.c:366:             fprintf(fp, "%3d %3d %3d\n", data & 0xff, (data >> 8) & 0xff, (data >>
 1955              		.loc 1 366 81 discriminator 3 view .LVU518
 1956 0918 22C8A0E1 		lsr	ip, r2, #16	@ tmp146, data,
 1957              	@ armwave.c:366:             fprintf(fp, "%3d %3d %3d\n", data & 0xff, (data >> 8) & 0xff, (data >>
 1958              		.loc 1 366 61 discriminator 3 view .LVU519
 1959 091c 2234A0E1 		lsr	r3, r2, #8	@ tmp142, data,
 1960              	@ armwave.c:366:             fprintf(fp, "%3d %3d %3d\n", data & 0xff, (data >> 8) & 0xff, (data >>
 1961              		.loc 1 366 13 discriminator 3 view .LVU520
 1962 0920 7CC0EFE6 		uxtb	ip, ip	@ tmp147, tmp146
 1963 0924 7330EFE6 		uxtb	r3, r3	@, tmp142
 1964 0928 00C08DE5 		str	ip, [sp]	@ tmp147,
 1965 092c 7220EFE6 		uxtb	r2, r2	@, data
 1966              	.LVL122:
 1967              		.loc 1 366 13 discriminator 3 view .LVU521
 1968 0930 FEFFFFEB 		bl	fprintf		@
 1969              	.LVL123:
 1970              	@ armwave.c:362:         for(xx = 0; xx < g_armwave_state.target_width; xx++) {
 362:armwave.c     ****         for(xx = 0; xx < g_armwave_state.target_width; xx++) {
 1971              		.loc 1 362 41 discriminator 3 view .LVU522
 1972 0934 583096E5 		ldr	r3, [r6, #88]	@ _13, g_armwave_state.target_width
 1973              	@ armwave.c:362:         for(xx = 0; xx < g_armwave_state.target_width; xx++) {
 362:armwave.c     ****         for(xx = 0; xx < g_armwave_state.target_width; xx++) {
 1974              		.loc 1 362 9 discriminator 3 view .LVU523
 1975 0938 040053E1 		cmp	r3, r4	@ _13, xx
 1976 093c F0FFFFCA 		bgt	.L110		@,
 1977 0940 5C2096E5 		ldr	r2, [r6, #92]	@ prephitmp_53, g_armwave_state.target_height
 1978              	.LVL124:
 1979              	.L111:
 1980              	@ armwave.c:361:     for(yy = 0; yy < g_armwave_state.target_height; yy++) {
 361:armwave.c     ****         for(xx = 0; xx < g_armwave_state.target_width; xx++) {
 1981              		.loc 1 361 55 discriminator 2 view .LVU524
 1982 0944 015085E2 		add	r5, r5, #1	@ yy, yy,
 1983              	.LVL125:
 1984              	@ armwave.c:361:     for(yy = 0; yy < g_armwave_state.target_height; yy++) {
 361:armwave.c     ****         for(xx = 0; xx < g_armwave_state.target_width; xx++) {
 1985              		.loc 1 361 5 discriminator 2 view .LVU525
 1986 0948 020055E1 		cmp	r5, r2	@ yy, prephitmp_53
 1987 094c E9FFFFBA 		blt	.L109		@,
 1988              	.LVL126:
 1989              	.L108:
 367:armwave.c     ****         }
 368:armwave.c     ****     }
 369:armwave.c     **** 
 370:armwave.c     ****     fclose(fp);
 1990              		.loc 1 370 5 is_stmt 1 view .LVU526
 1991 0950 0700A0E1 		mov	r0, r7	@, fp
 1992              	@ armwave.c:371: }
 371:armwave.c     **** }
 1993              		.loc 1 371 1 is_stmt 0 view .LVU527
 1994 0954 0CD08DE2 		add	sp, sp, #12	@,,
 1995              		.cfi_def_cfa_offset 28
 1996              		@ sp needed	@
 1997 0958 F043BDE8 		pop	{r4, r5, r6, r7, r8, r9, lr}	@
 1998              		.cfi_restore 14
 1999              		.cfi_restore 9
 2000              		.cfi_restore 8
 2001              		.cfi_restore 7
 2002              		.cfi_restore 6
 2003              		.cfi_restore 5
 2004              		.cfi_restore 4
 2005              		.cfi_def_cfa_offset 0
 2006              	.LVL127:
 2007              	@ armwave.c:370:     fclose(fp);
 370:armwave.c     **** }
 2008              		.loc 1 370 5 view .LVU528
 2009 095c FEFFFFEA 		b	fclose		@
 2010              	.LVL128:
 2011              	.L116:
 370:armwave.c     **** }
 2012              		.loc 1 370 5 view .LVU529
 2013              		.align	2
 2014              	.L115:
 2015 0960 AC010000 		.word	.LC12
 2016 0964 00000000 		.word	g_armwave_state
 2017 0968 B0010000 		.word	.LC13
 2018 096c B4010000 		.word	.LC14
 2019 0970 BC010000 		.word	.LC15
 2020 0974 C4010000 		.word	.LC16
 2021              		.cfi_endproc
 2022              	.LFE68:
 2024              		.align	2
 2025              		.global	armwave_test_init
 2026              		.syntax unified
 2027              		.arm
 2028              		.fpu vfp
 2030              	armwave_test_init:
 2031              	.LVL129:
 2032              	.LFB69:
 372:armwave.c     **** 
 373:armwave.c     **** /*
 374:armwave.c     ****  * Initialise some test functionry.
 375:armwave.c     ****  */
 376:armwave.c     **** void armwave_test_init(int wave_size, int nwaves, int render_width, int render_height)
 377:armwave.c     **** {
 2033              		.loc 1 377 1 is_stmt 1 view -0
 2034              		.cfi_startproc
 2035              		@ args = 0, pretend = 0, frame = 0
 2036              		@ frame_needed = 0, uses_anonymous_args = 0
 378:armwave.c     ****     test_create_gamma();
 2037              		.loc 1 378 5 view .LVU531
 2038              	.LBB18:
 2039              	.LBI18:
  34:armwave.c     **** {
 2040              		.loc 1 34 6 view .LVU532
  34:armwave.c     **** {
 2041              		.loc 1 34 6 is_stmt 0 view .LVU533
 2042              	.LBE18:
 2043              	@ armwave.c:377: {
 377:armwave.c     ****     test_create_gamma();
 2044              		.loc 1 377 1 view .LVU534
 2045 0978 F0472DE9 		push	{r4, r5, r6, r7, r8, r9, r10, lr}	@
 2046              		.cfi_def_cfa_offset 32
 2047              		.cfi_offset 4, -32
 2048              		.cfi_offset 5, -28
 2049              		.cfi_offset 6, -24
 2050              		.cfi_offset 7, -20
 2051              		.cfi_offset 8, -16
 2052              		.cfi_offset 9, -12
 2053              		.cfi_offset 10, -8
 2054              		.cfi_offset 14, -4
 2055 097c 068B2DED 		vpush.64	{d8, d9, d10}	@
 2056              		.cfi_def_cfa_offset 56
 2057              		.cfi_offset 80, -56
 2058              		.cfi_offset 81, -52
 2059              		.cfi_offset 82, -48
 2060              		.cfi_offset 83, -44
 2061              		.cfi_offset 84, -40
 2062              		.cfi_offset 85, -36
 2063 0980 BC409FE5 		ldr	r4, .L121+20	@ ivtmp.103,
 2064              	.LBB21:
 2065              	.LBB19:
 2066              	@ armwave.c:40:         gamma_table[i] = pow(i / 255.0f, gamma) * 255.0f;
  40:armwave.c     ****     }
 2067              		.loc 1 40 32 view .LVU535
 2068 0984 2DAA9FED 		vldr.32	s20, .L121+16	@ tmp136,
 2069              	@ armwave.c:40:         gamma_table[i] = pow(i / 255.0f, gamma) * 255.0f;
  40:armwave.c     ****     }
 2070              		.loc 1 40 26 view .LVU536
 2071 0988 289B9FED 		vldr.64	d9, .L121	@ tmp151,
 2072              	@ armwave.c:40:         gamma_table[i] = pow(i / 255.0f, gamma) * 255.0f;
  40:armwave.c     ****     }
 2073              		.loc 1 40 49 view .LVU537
 2074 098c 298B9FED 		vldr.64	d8, .L121+8	@ tmp139,
 2075 0990 01C084E2 		add	ip, r4, #1	@ _38, ivtmp.103,
 2076              	.LBE19:
 2077              	.LBE21:
 2078              	@ armwave.c:377: {
 377:armwave.c     ****     test_create_gamma();
 2079              		.loc 1 377 1 view .LVU538
 2080 0994 10D04DE2 		sub	sp, sp, #16	@,,
 2081              		.cfi_def_cfa_offset 72
 2082              	@ armwave.c:377: {
 377:armwave.c     ****     test_create_gamma();
 2083              		.loc 1 377 1 view .LVU539
 2084 0998 0060A0E1 		mov	r6, r0	@ wave_size, wave_size
 2085 099c 0170A0E1 		mov	r7, r1	@ nwaves, nwaves
 2086 09a0 0280A0E1 		mov	r8, r2	@ render_width, render_width
 2087 09a4 0390A0E1 		mov	r9, r3	@ render_height, render_height
 2088 09a8 01AC84E2 		add	r10, r4, #256	@ _39, ivtmp.103,
 2089 09ac 01506CE2 		rsb	r5, ip, #1	@ tmp150, _38,
 2090              	.LVL130:
 2091              	.L118:
 2092              	.LBB22:
 2093              	.LBB20:
  40:armwave.c     ****     }
 2094              		.loc 1 40 9 is_stmt 1 view .LVU540
 2095              	@ armwave.c:40:         gamma_table[i] = pow(i / 255.0f, gamma) * 255.0f;
  40:armwave.c     ****     }
 2096              		.loc 1 40 32 is_stmt 0 view .LVU541
 2097 09b0 043085E0 		add	r3, r5, r4	@ tmp133, tmp150, ivtmp.103
 2098              	@ armwave.c:40:         gamma_table[i] = pow(i / 255.0f, gamma) * 255.0f;
  40:armwave.c     ****     }
 2099              		.loc 1 40 26 view .LVU542
 2100 09b4 491BB0EE 		vmov.f64	d1, d9	@, tmp151
 2101              	@ armwave.c:40:         gamma_table[i] = pow(i / 255.0f, gamma) * 255.0f;
  40:armwave.c     ****     }
 2102              		.loc 1 40 32 view .LVU543
 2103 09b8 903A07EE 		vmov	s15, r3	@ int	@ tmp133, tmp133
 2104 09bc E77AF8EE 		vcvt.f32.s32	s15, s15	@ tmp134, tmp133
 2105 09c0 8A0A87EE 		vdiv.f32	s0, s15, s20	@ tmp135, tmp134, tmp136
 2106              	@ armwave.c:40:         gamma_table[i] = pow(i / 255.0f, gamma) * 255.0f;
  40:armwave.c     ****     }
 2107              		.loc 1 40 26 view .LVU544
 2108 09c4 C00AB7EE 		vcvt.f64.f32	d0, s0	@, tmp135
 2109 09c8 FEFFFFEB 		bl	pow		@
 2110              	.LVL131:
 2111              	@ armwave.c:40:         gamma_table[i] = pow(i / 255.0f, gamma) * 255.0f;
  40:armwave.c     ****     }
 2112              		.loc 1 40 49 view .LVU545
 2113 09cc 080B20EE 		vmul.f64	d0, d0, d8	@ tmp138,, tmp139
 2114              	@ armwave.c:40:         gamma_table[i] = pow(i / 255.0f, gamma) * 255.0f;
  40:armwave.c     ****     }
 2115              		.loc 1 40 24 view .LVU546
 2116 09d0 C07BFCEE 		vcvt.u32.f64	s15, d0	@ tmp140, tmp138
 2117 09d4 900A17EE 		vmov	r0, s15	@ int	@ tmp140, tmp140
 2118 09d8 0100E4E5 		strb	r0, [r4, #1]!	@ tmp140, MEM[base: _37, offset: 0B]
 2119              	.LVL132:
 2120              	@ armwave.c:39:     for(i = 0; i < 256; i++) {
  39:armwave.c     ****         gamma_table[i] = pow(i / 255.0f, gamma) * 255.0f;
 2121              		.loc 1 39 5 view .LVU547
 2122 09dc 0A0054E1 		cmp	r4, r10	@ ivtmp.103, _39
 2123 09e0 F2FFFF1A 		bne	.L118		@,
 2124              	.LVL133:
  39:armwave.c     ****         gamma_table[i] = pow(i / 255.0f, gamma) * 255.0f;
 2125              		.loc 1 39 5 view .LVU548
 2126              	.LBE20:
 2127              	.LBE22:
 379:armwave.c     **** 
 380:armwave.c     ****     // make ch1 yellowish by default
 381:armwave.c     ****     armwave_set_channel_colour(1, 2550, 1780, 250);
 2128              		.loc 1 381 5 is_stmt 1 view .LVU549
 2129              	.LBB23:
 2130              	.LBI23:
 334:armwave.c     **** {
 2131              		.loc 1 334 6 view .LVU550
 2132              	.LBB24:
 337:armwave.c     ****         case 1:
 2133              		.loc 1 337 5 view .LVU551
 339:armwave.c     ****             g_armwave_state.ch1_color.g = g;
 2134              		.loc 1 339 13 view .LVU552
 340:armwave.c     ****             g_armwave_state.ch1_color.b = b;
 2135              		.loc 1 340 13 view .LVU553
 2136              	@ armwave.c:339:             g_armwave_state.ch1_color.r = r;
 339:armwave.c     ****             g_armwave_state.ch1_color.g = g;
 2137              		.loc 1 339 41 is_stmt 0 view .LVU554
 2138 09e4 5CC09FE5 		ldr	ip, .L121+24	@ tmp142,
 2139 09e8 5C409FE5 		ldr	r4, .L121+28	@ tmp143,
 2140              	.LBE24:
 2141              	.LBE23:
 2142              	@ armwave.c:383:     armwave_setup_render(0, wave_size, nwaves, wave_size, render_width, render_hei
 382:armwave.c     **** 
 383:armwave.c     ****     armwave_setup_render(0, wave_size, nwaves, wave_size, render_width, render_height, 0x00000000);
 2143              		.loc 1 383 5 view .LVU555
 2144 09ec 0000A0E3 		mov	r0, #0	@ tmp147,
 2145              	.LBB28:
 2146              	.LBB25:
 2147              	@ armwave.c:341:             g_armwave_state.ch1_color.b = b;
 341:armwave.c     ****             break;
 2148              		.loc 1 341 41 view .LVU556
 2149 09f0 FAE0A0E3 		mov	lr, #250	@ tmp146,
 2150              	.LBE25:
 2151              	.LBE28:
 2152              	@ armwave.c:383:     armwave_setup_render(0, wave_size, nwaves, wave_size, render_width, render_hei
 2153              		.loc 1 383 5 view .LVU557
 2154 09f4 08008DE5 		str	r0, [sp, #8]	@ tmp147,
 2155 09f8 04908DE5 		str	r9, [sp, #4]	@ render_height,
 2156 09fc 00808DE5 		str	r8, [sp]	@ render_width,
 2157 0a00 0610A0E1 		mov	r1, r6	@, tmp3
 2158 0a04 0720A0E1 		mov	r2, r7	@, nwaves
 2159              	.LBB29:
 2160              	.LBB26:
 2161              	@ armwave.c:339:             g_armwave_state.ch1_color.r = r;
 339:armwave.c     ****             g_armwave_state.ch1_color.g = g;
 2162              		.loc 1 339 41 view .LVU558
 2163 0a08 6C408CE5 		str	r4, [ip, #108]	@ tmp143, MEM[(short int *)&g_armwave_state + 108B]
 341:armwave.c     ****             break;
 2164              		.loc 1 341 13 is_stmt 1 view .LVU559
 2165              	.LBE26:
 2166              	.LBE29:
 2167              	@ armwave.c:383:     armwave_setup_render(0, wave_size, nwaves, wave_size, render_width, render_hei
 2168              		.loc 1 383 5 is_stmt 0 view .LVU560
 2169 0a0c 0630A0E1 		mov	r3, r6	@, wave_size
 2170              	.LBB30:
 2171              	.LBB27:
 2172              	@ armwave.c:341:             g_armwave_state.ch1_color.b = b;
 341:armwave.c     ****             break;
 2173              		.loc 1 341 41 view .LVU561
 2174 0a10 B0E7CCE1 		strh	lr, [ip, #112]	@ movhi	@ tmp146, g_armwave_state.ch1_color.b
 342:armwave.c     ****     }
 2175              		.loc 1 342 13 is_stmt 1 view .LVU562
 2176              	.LVL134:
 342:armwave.c     ****     }
 2177              		.loc 1 342 13 is_stmt 0 view .LVU563
 2178              	.LBE27:
 2179              	.LBE30:
 2180              		.loc 1 383 5 is_stmt 1 view .LVU564
 2181 0a14 FEFFFFEB 		bl	armwave_setup_render		@
 2182              	.LVL135:
 384:armwave.c     **** 
 385:armwave.c     ****     printf("armwave version: %s\n", ARMWAVE_VER);
 2183              		.loc 1 385 5 view .LVU565
 2184 0a18 30109FE5 		ldr	r1, .L121+32	@,
 2185 0a1c 30009FE5 		ldr	r0, .L121+36	@,
 2186              	@ armwave.c:386: }
 386:armwave.c     **** }
 2187              		.loc 1 386 1 is_stmt 0 view .LVU566
 2188 0a20 10D08DE2 		add	sp, sp, #16	@,,
 2189              		.cfi_def_cfa_offset 56
 2190              		@ sp needed	@
 2191 0a24 068BBDEC 		vldm	sp!, {d8-d10}	@,
 2192              		.cfi_restore 84
 2193              		.cfi_restore 85
 2194              		.cfi_restore 82
 2195              		.cfi_restore 83
 2196              		.cfi_restore 80
 2197              		.cfi_restore 81
 2198              		.cfi_def_cfa_offset 32
 2199 0a28 F047BDE8 		pop	{r4, r5, r6, r7, r8, r9, r10, lr}	@
 2200              		.cfi_restore 14
 2201              		.cfi_restore 10
 2202              		.cfi_restore 9
 2203              		.cfi_restore 8
 2204              		.cfi_restore 7
 2205              		.cfi_restore 6
 2206              		.cfi_restore 5
 2207              		.cfi_restore 4
 2208              		.cfi_def_cfa_offset 0
 2209              	.LVL136:
 2210              	@ armwave.c:385:     printf("armwave version: %s\n", ARMWAVE_VER);
 385:armwave.c     **** }
 2211              		.loc 1 385 5 view .LVU567
 2212 0a2c FEFFFFEA 		b	printf		@
 2213              	.LVL137:
 2214              	.L122:
 2215              		.align	3
 2216              	.L121:
 2217 0a30 000000C0 		.word	-1073741824
 2218 0a34 CCCCEC3F 		.word	1072483532
 2219 0a38 00000000 		.word	0
 2220 0a3c 00E06F40 		.word	1081073664
 2221 0a40 00007F43 		.word	1132396544
 2222 0a44 FFFFFFFF 		.word	gamma_table-1
 2223 0a48 00000000 		.word	g_armwave_state
 2224 0a4c F609F406 		.word	116656630
 2225 0a50 00000000 		.word	.LC0
 2226 0a54 08000000 		.word	.LC1
 2227              		.cfi_endproc
 2228              	.LFE69:
 2230              		.align	2
 2231              		.global	armwave_test_fill_outbuf
 2232              		.syntax unified
 2233              		.arm
 2234              		.fpu vfp
 2236              	armwave_test_fill_outbuf:
 2237              	.LFB70:
 387:armwave.c     **** 
 388:armwave.c     **** /*
 389:armwave.c     ****  * Render image to the local allocated buffer.
 390:armwave.c     ****  */
 391:armwave.c     **** void armwave_test_fill_outbuf()
 392:armwave.c     **** {
 2238              		.loc 1 392 1 is_stmt 1 view -0
 2239              		.cfi_startproc
 2240              		@ args = 0, pretend = 0, frame = 0
 2241              		@ frame_needed = 0, uses_anonymous_args = 0
 2242              		@ link register save eliminated.
 393:armwave.c     ****     armwave_fill_pixbuf_scaled(g_armwave_state.out_pixbuf);
 2243              		.loc 1 393 5 view .LVU569
 2244 0a58 04309FE5 		ldr	r3, .L124	@ tmp111,
 2245 0a5c 680093E5 		ldr	r0, [r3, #104]	@, g_armwave_state.out_pixbuf
 2246 0a60 FEFFFFEA 		b	armwave_fill_pixbuf_scaled		@
 2247              	.LVL138:
 2248              	.L125:
 2249              		.align	2
 2250              	.L124:
 2251 0a64 00000000 		.word	g_armwave_state
 2252              		.cfi_endproc
 2253              	.LFE70:
 2255              		.align	2
 2256              		.global	armwave_test_dump_buffer_to_ppm
 2257              		.syntax unified
 2258              		.arm
 2259              		.fpu vfp
 2261              	armwave_test_dump_buffer_to_ppm:
 2262              	.LVL139:
 2263              	.LFB71:
 394:armwave.c     **** }
 395:armwave.c     **** 
 396:armwave.c     **** /*
 397:armwave.c     ****  * Dump the working local allocated buffer to a ppm file for debug.
 398:armwave.c     ****  */
 399:armwave.c     **** void armwave_test_dump_buffer_to_ppm(char *fn)
 400:armwave.c     **** {
 2264              		.loc 1 400 1 view -0
 2265              		.cfi_startproc
 2266              		@ args = 0, pretend = 0, frame = 0
 2267              		@ frame_needed = 0, uses_anonymous_args = 0
 2268              		@ link register save eliminated.
 401:armwave.c     ****     armwave_dump_ppm_debug(g_armwave_state.out_pixbuf, fn);
 2269              		.loc 1 401 5 view .LVU571
 2270 0a68 08309FE5 		ldr	r3, .L127	@ tmp112,
 2271 0a6c 0010A0E1 		mov	r1, r0	@, fn
 2272 0a70 680093E5 		ldr	r0, [r3, #104]	@, g_armwave_state.out_pixbuf
 2273              	.LVL140:
 2274              		.loc 1 401 5 is_stmt 0 view .LVU572
 2275 0a74 FEFFFFEA 		b	armwave_dump_ppm_debug		@
 2276              	.LVL141:
 2277              	.L128:
 2278              		.loc 1 401 5 view .LVU573
 2279              		.align	2
 2280              	.L127:
 2281 0a78 00000000 		.word	g_armwave_state
 2282              		.cfi_endproc
 2283              	.LFE71:
 2285              		.align	2
 2286              		.global	armwave_test_fill_gdkbuf
 2287              		.syntax unified
 2288              		.arm
 2289              		.fpu vfp
 2291              	armwave_test_fill_gdkbuf:
 2292              	.LVL142:
 2293              	.LFB72:
 402:armwave.c     **** }
 403:armwave.c     **** 
 404:armwave.c     **** /*
 405:armwave.c     ****  * Render GDK buffer with test funtionry.
 406:armwave.c     ****  */
 407:armwave.c     **** void armwave_test_fill_gdkbuf(PyObject *buf)
 408:armwave.c     **** {
 2294              		.loc 1 408 1 is_stmt 1 view -0
 2295              		.cfi_startproc
 2296              		@ args = 0, pretend = 0, frame = 0
 2297              		@ frame_needed = 0, uses_anonymous_args = 0
 2298              		@ link register save eliminated.
 409:armwave.c     ****     //PyObject *mv;
 410:armwave.c     ****     //Py_buffer *buf = malloc(sizeof(Py_buffer));
 411:armwave.c     **** 
 412:armwave.c     ****     // Holy jesus dear mother of God, what have we done?
 413:armwave.c     ****     void *out_pixbuf = ((uint32_t ***)buf)[2][10];
 2299              		.loc 1 413 5 view .LVU575
 414:armwave.c     ****     
 415:armwave.c     ****     // TODO: use armwave_fill_pixbuf_256 for 256-height buffers for performance?
 416:armwave.c     ****     armwave_fill_pixbuf_scaled(out_pixbuf);
 2300              		.loc 1 416 5 view .LVU576
 2301              	@ armwave.c:413:     void *out_pixbuf = ((uint32_t ***)buf)[2][10];
 413:armwave.c     ****     
 2302              		.loc 1 413 11 is_stmt 0 view .LVU577
 2303 0a7c 083090E5 		ldr	r3, [r0, #8]	@ MEM[(uint32_t * * *)buf_2(D) + 8B], MEM[(uint32_t * * *)buf_2(D) + 8B]
 2304              	@ armwave.c:416:     armwave_fill_pixbuf_scaled(out_pixbuf);
 2305              		.loc 1 416 5 view .LVU578
 2306 0a80 280093E5 		ldr	r0, [r3, #40]	@, MEM[(uint32_t * *)_1 + 40B]
 2307              	.LVL143:
 2308              		.loc 1 416 5 view .LVU579
 2309 0a84 FEFFFFEA 		b	armwave_fill_pixbuf_scaled		@
 2310              	.LVL144:
 2311              		.loc 1 416 5 view .LVU580
 2312              		.cfi_endproc
 2313              	.LFE72:
 2315              		.align	2
 2316              		.global	armwave_test_buffer_alloc
 2317              		.syntax unified
 2318              		.arm
 2319              		.fpu vfp
 2321              	armwave_test_buffer_alloc:
 2322              	.LVL145:
 2323              	.LFB73:
 417:armwave.c     **** }
 418:armwave.c     **** 
 419:armwave.c     **** /*
 420:armwave.c     ****  * Allocate a test buffer, freeing any existing buffer.
 421:armwave.c     ****  */
 422:armwave.c     **** void armwave_test_buffer_alloc(int nsets)
 423:armwave.c     **** {
 2324              		.loc 1 423 1 is_stmt 1 view -0
 2325              		.cfi_startproc
 2326              		@ args = 0, pretend = 0, frame = 0
 2327              		@ frame_needed = 0, uses_anonymous_args = 0
 424:armwave.c     ****     if(g_armwave_state.test_wave_buffer != NULL) {
 2328              		.loc 1 424 5 view .LVU582
 2329              	@ armwave.c:423: {
 423:armwave.c     ****     if(g_armwave_state.test_wave_buffer != NULL) {
 2330              		.loc 1 423 1 is_stmt 0 view .LVU583
 2331 0a88 70402DE9 		push	{r4, r5, r6, lr}	@
 2332              		.cfi_def_cfa_offset 16
 2333              		.cfi_offset 4, -16
 2334              		.cfi_offset 5, -12
 2335              		.cfi_offset 6, -8
 2336              		.cfi_offset 14, -4
 2337              	@ armwave.c:423: {
 423:armwave.c     ****     if(g_armwave_state.test_wave_buffer != NULL) {
 2338              		.loc 1 423 1 view .LVU584
 2339 0a8c 0060A0E1 		mov	r6, r0	@ nsets, nsets
 2340              	@ armwave.c:424:     if(g_armwave_state.test_wave_buffer != NULL) {
 2341              		.loc 1 424 23 view .LVU585
 2342 0a90 44409FE5 		ldr	r4, .L137	@ tmp128,
 2343 0a94 180094E5 		ldr	r0, [r4, #24]	@ _1, g_armwave_state.test_wave_buffer
 2344              	.LVL146:
 2345              	@ armwave.c:424:     if(g_armwave_state.test_wave_buffer != NULL) {
 2346              		.loc 1 424 7 view .LVU586
 2347 0a98 000050E3 		cmp	r0, #0	@ _1,
 2348 0a9c 0000000A 		beq	.L131		@,
 425:armwave.c     ****         free(g_armwave_state.test_wave_buffer);
 2349              		.loc 1 425 9 is_stmt 1 view .LVU587
 2350 0aa0 FEFFFFEB 		bl	free		@
 2351              	.LVL147:
 2352              	.L131:
 426:armwave.c     ****     }
 427:armwave.c     **** 
 428:armwave.c     ****     //printf("armwave_test_buffer_alloc: length=%d max=%d\n", g_armwave_state.wave_length, g_armwav
 429:armwave.c     **** 
 430:armwave.c     ****     g_armwave_state.test_wave_buffer = calloc(g_armwave_state.wave_length * g_armwave_state.waves_m
 2353              		.loc 1 430 5 view .LVU588
 2354              	@ armwave.c:430:     g_armwave_state.test_wave_buffer = calloc(g_armwave_state.wave_length * g_armw
 2355              		.loc 1 430 75 is_stmt 0 view .LVU589
 2356 0aa4 4C3094E5 		ldr	r3, [r4, #76]	@ g_armwave_state.wave_length, g_armwave_state.wave_length
 2357 0aa8 3C5094E5 		ldr	r5, [r4, #60]	@ g_armwave_state.waves_max, g_armwave_state.waves_max
 2358              	@ armwave.c:430:     g_armwave_state.test_wave_buffer = calloc(g_armwave_state.wave_length * g_armw
 2359              		.loc 1 430 40 view .LVU590
 2360 0aac 0610A0E1 		mov	r1, r6	@, nsets
 2361              	@ armwave.c:430:     g_armwave_state.test_wave_buffer = calloc(g_armwave_state.wave_length * g_armw
 2362              		.loc 1 430 75 view .LVU591
 2363 0ab0 950305E0 		mul	r5, r5, r3	@ _4, g_armwave_state.waves_max, g_armwave_state.wave_length
 2364              	@ armwave.c:430:     g_armwave_state.test_wave_buffer = calloc(g_armwave_state.wave_length * g_armw
 2365              		.loc 1 430 40 view .LVU592
 2366 0ab4 0500A0E1 		mov	r0, r5	@, _4
 2367 0ab8 FEFFFFEB 		bl	calloc		@
 2368              	.LVL148:
 2369              	@ armwave.c:432:     if(g_armwave_state.test_wave_buffer == NULL) {
 431:armwave.c     **** 
 432:armwave.c     ****     if(g_armwave_state.test_wave_buffer == NULL) {
 2370              		.loc 1 432 7 view .LVU593
 2371 0abc 000050E3 		cmp	r0, #0	@ tmp124,
 2372              	@ armwave.c:430:     g_armwave_state.test_wave_buffer = calloc(g_armwave_state.wave_length * g_armw
 430:armwave.c     **** 
 2373              		.loc 1 430 38 view .LVU594
 2374 0ac0 180084E5 		str	r0, [r4, #24]	@ tmp124, g_armwave_state.test_wave_buffer
 2375              		.loc 1 432 5 is_stmt 1 view .LVU595
 2376              	@ armwave.c:432:     if(g_armwave_state.test_wave_buffer == NULL) {
 2377              		.loc 1 432 7 is_stmt 0 view .LVU596
 2378 0ac4 7080BD18 		popne	{r4, r5, r6, pc}	@
 433:armwave.c     ****         printf("armwave_test_buffer_alloc: failed to allocate test wave buffer (%d bytes, %d sets)\
 2379              		.loc 1 433 9 is_stmt 1 view .LVU597
 2380 0ac8 960501E0 		mul	r1, r6, r5	@, nsets, _4
 2381 0acc 0620A0E1 		mov	r2, r6	@, nsets
 2382 0ad0 08009FE5 		ldr	r0, .L137+4	@,
 2383              	@ armwave.c:437: }
 434:armwave.c     ****             g_armwave_state.wave_length * g_armwave_state.waves_max * nsets, nsets);
 435:armwave.c     ****         return;
 436:armwave.c     ****     }
 437:armwave.c     **** }
 2384              		.loc 1 437 1 is_stmt 0 view .LVU598
 2385 0ad4 7040BDE8 		pop	{r4, r5, r6, lr}	@
 2386              		.cfi_restore 14
 2387              		.cfi_restore 6
 2388              		.cfi_restore 5
 2389              		.cfi_restore 4
 2390              		.cfi_def_cfa_offset 0
 2391              	.LVL149:
 2392              	@ armwave.c:433:         printf("armwave_test_buffer_alloc: failed to allocate test wave buffer (%d
 433:armwave.c     ****         printf("armwave_test_buffer_alloc: failed to allocate test wave buffer (%d bytes, %d sets)\
 2393              		.loc 1 433 9 view .LVU599
 2394 0ad8 FEFFFFEA 		b	printf		@
 2395              	.LVL150:
 2396              	.L138:
 433:armwave.c     ****         printf("armwave_test_buffer_alloc: failed to allocate test wave buffer (%d bytes, %d sets)\
 2397              		.loc 1 433 9 view .LVU600
 2398              		.align	2
 2399              	.L137:
 2400 0adc 00000000 		.word	g_armwave_state
 2401 0ae0 D4010000 		.word	.LC17
 2402              		.cfi_endproc
 2403              	.LFE73:
 2405              		.align	2
 2406              		.global	armwave_fill_pixbuf_into_pybuffer
 2407              		.syntax unified
 2408              		.arm
 2409              		.fpu vfp
 2411              	armwave_fill_pixbuf_into_pybuffer:
 2412              	.LVL151:
 2413              	.LFB74:
 438:armwave.c     **** 
 439:armwave.c     **** /*
 440:armwave.c     ****  * Fill a pixbuf PyBuffer with a rendered waveform.
 441:armwave.c     ****  */
 442:armwave.c     **** PyObject *armwave_fill_pixbuf_into_pybuffer(PyObject *buf_obj)
 443:armwave.c     **** {
 2414              		.loc 1 443 1 is_stmt 1 view -0
 2415              		.cfi_startproc
 2416              		@ args = 0, pretend = 0, frame = 48
 2417              		@ frame_needed = 0, uses_anonymous_args = 0
 444:armwave.c     ****     Py_buffer buffer;
 2418              		.loc 1 444 5 view .LVU602
 445:armwave.c     ****     int ret;
 2419              		.loc 1 445 5 view .LVU603
 446:armwave.c     **** 
 447:armwave.c     ****     //printf("armwave_fill_pixbuf_into_pybuffer: start\n");
 448:armwave.c     **** 
 449:armwave.c     ****     ret = PyObject_GetBuffer(buf_obj, &buffer, PyBUF_SIMPLE | PyBUF_WRITABLE);
 2420              		.loc 1 449 5 view .LVU604
 2421              	@ armwave.c:443: {
 443:armwave.c     ****     Py_buffer buffer;
 2422              		.loc 1 443 1 is_stmt 0 view .LVU605
 2423 0ae4 04E02DE5 		str	lr, [sp, #-4]!	@,
 2424              		.cfi_def_cfa_offset 4
 2425              		.cfi_offset 14, -4
 2426 0ae8 34D04DE2 		sub	sp, sp, #52	@,,
 2427              		.cfi_def_cfa_offset 56
 2428              	@ armwave.c:449:     ret = PyObject_GetBuffer(buf_obj, &buffer, PyBUF_SIMPLE | PyBUF_WRITABLE);
 2429              		.loc 1 449 11 view .LVU606
 2430 0aec 04108DE2 		add	r1, sp, #4	@ tmp131,,
 2431 0af0 0120A0E3 		mov	r2, #1	@,
 2432 0af4 FEFFFFEB 		bl	PyObject_GetBuffer		@
 2433              	.LVL152:
 450:armwave.c     **** 
 451:armwave.c     ****     if(ret != 0) {
 2434              		.loc 1 451 5 is_stmt 1 view .LVU607
 2435              	@ armwave.c:451:     if(ret != 0) {
 2436              		.loc 1 451 7 is_stmt 0 view .LVU608
 2437 0af8 000050E3 		cmp	r0, #0	@,
 2438 0afc 0A00001A 		bne	.L143		@,
 452:armwave.c     ****         printf("armwave_fill_pixbuf_into_pybuffer: PyObject_GetBuffer() failed, returning PyFalse\n
 453:armwave.c     ****         Py_RETURN_FALSE;
 454:armwave.c     ****     }
 455:armwave.c     **** 
 456:armwave.c     ****     //printf("PyObject_GetBuffer did not trigger assert: buffer->buf=0x%08x, buffer->obj=0x%08x, bu
 457:armwave.c     **** 
 458:armwave.c     ****     armwave_fill_pixbuf_scaled(buffer.buf);
 2439              		.loc 1 458 5 is_stmt 1 view .LVU609
 2440 0b00 04009DE5 		ldr	r0, [sp, #4]	@, buffer.buf
 2441              	.LVL153:
 2442              		.loc 1 458 5 is_stmt 0 view .LVU610
 2443 0b04 FEFFFFEB 		bl	armwave_fill_pixbuf_scaled		@
 2444              	.LVL154:
 459:armwave.c     ****     //printf("armwave_fill_pixbuf_into_pybuffer: buffer fill done\n");
 460:armwave.c     **** 
 461:armwave.c     ****     PyBuffer_Release(&buffer);
 2445              		.loc 1 461 5 is_stmt 1 view .LVU611
 2446 0b08 04008DE2 		add	r0, sp, #4	@ tmp132,,
 2447 0b0c FEFFFFEB 		bl	PyBuffer_Release		@
 2448              	.LVL155:
 462:armwave.c     ****     //printf("armwave_fill_pixbuf_into_pybuffer: done\n");
 463:armwave.c     **** 
 464:armwave.c     ****     Py_RETURN_TRUE;
 2449              		.loc 1 464 5 view .LVU612
 2450              	.LBB31:
 2451              	.LBI31:
 2452              		.file 2 "/usr/local/include/python3.8/object.h"
   1:/usr/local/include/python3.8/object.h **** #ifndef Py_OBJECT_H
   2:/usr/local/include/python3.8/object.h **** #define Py_OBJECT_H
   3:/usr/local/include/python3.8/object.h **** 
   4:/usr/local/include/python3.8/object.h **** #include "pymem.h"   /* _Py_tracemalloc_config */
   5:/usr/local/include/python3.8/object.h **** 
   6:/usr/local/include/python3.8/object.h **** #ifdef __cplusplus
   7:/usr/local/include/python3.8/object.h **** extern "C" {
   8:/usr/local/include/python3.8/object.h **** #endif
   9:/usr/local/include/python3.8/object.h **** 
  10:/usr/local/include/python3.8/object.h **** 
  11:/usr/local/include/python3.8/object.h **** /* Object and type object interface */
  12:/usr/local/include/python3.8/object.h **** 
  13:/usr/local/include/python3.8/object.h **** /*
  14:/usr/local/include/python3.8/object.h **** Objects are structures allocated on the heap.  Special rules apply to
  15:/usr/local/include/python3.8/object.h **** the use of objects to ensure they are properly garbage-collected.
  16:/usr/local/include/python3.8/object.h **** Objects are never allocated statically or on the stack; they must be
  17:/usr/local/include/python3.8/object.h **** accessed through special macros and functions only.  (Type objects are
  18:/usr/local/include/python3.8/object.h **** exceptions to the first rule; the standard types are represented by
  19:/usr/local/include/python3.8/object.h **** statically initialized type objects, although work on type/class unification
  20:/usr/local/include/python3.8/object.h **** for Python 2.2 made it possible to have heap-allocated type objects too).
  21:/usr/local/include/python3.8/object.h **** 
  22:/usr/local/include/python3.8/object.h **** An object has a 'reference count' that is increased or decreased when a
  23:/usr/local/include/python3.8/object.h **** pointer to the object is copied or deleted; when the reference count
  24:/usr/local/include/python3.8/object.h **** reaches zero there are no references to the object left and it can be
  25:/usr/local/include/python3.8/object.h **** removed from the heap.
  26:/usr/local/include/python3.8/object.h **** 
  27:/usr/local/include/python3.8/object.h **** An object has a 'type' that determines what it represents and what kind
  28:/usr/local/include/python3.8/object.h **** of data it contains.  An object's type is fixed when it is created.
  29:/usr/local/include/python3.8/object.h **** Types themselves are represented as objects; an object contains a
  30:/usr/local/include/python3.8/object.h **** pointer to the corresponding type object.  The type itself has a type
  31:/usr/local/include/python3.8/object.h **** pointer pointing to the object representing the type 'type', which
  32:/usr/local/include/python3.8/object.h **** contains a pointer to itself!.
  33:/usr/local/include/python3.8/object.h **** 
  34:/usr/local/include/python3.8/object.h **** Objects do not float around in memory; once allocated an object keeps
  35:/usr/local/include/python3.8/object.h **** the same size and address.  Objects that must hold variable-size data
  36:/usr/local/include/python3.8/object.h **** can contain pointers to variable-size parts of the object.  Not all
  37:/usr/local/include/python3.8/object.h **** objects of the same type have the same size; but the size cannot change
  38:/usr/local/include/python3.8/object.h **** after allocation.  (These restrictions are made so a reference to an
  39:/usr/local/include/python3.8/object.h **** object can be simply a pointer -- moving an object would require
  40:/usr/local/include/python3.8/object.h **** updating all the pointers, and changing an object's size would require
  41:/usr/local/include/python3.8/object.h **** moving it if there was another object right next to it.)
  42:/usr/local/include/python3.8/object.h **** 
  43:/usr/local/include/python3.8/object.h **** Objects are always accessed through pointers of the type 'PyObject *'.
  44:/usr/local/include/python3.8/object.h **** The type 'PyObject' is a structure that only contains the reference count
  45:/usr/local/include/python3.8/object.h **** and the type pointer.  The actual memory allocated for an object
  46:/usr/local/include/python3.8/object.h **** contains other data that can only be accessed after casting the pointer
  47:/usr/local/include/python3.8/object.h **** to a pointer to a longer structure type.  This longer type must start
  48:/usr/local/include/python3.8/object.h **** with the reference count and type fields; the macro PyObject_HEAD should be
  49:/usr/local/include/python3.8/object.h **** used for this (to accommodate for future changes).  The implementation
  50:/usr/local/include/python3.8/object.h **** of a particular object type can cast the object pointer to the proper
  51:/usr/local/include/python3.8/object.h **** type and back.
  52:/usr/local/include/python3.8/object.h **** 
  53:/usr/local/include/python3.8/object.h **** A standard interface exists for objects that contain an array of items
  54:/usr/local/include/python3.8/object.h **** whose size is determined when the object is allocated.
  55:/usr/local/include/python3.8/object.h **** */
  56:/usr/local/include/python3.8/object.h **** 
  57:/usr/local/include/python3.8/object.h **** /* Py_DEBUG implies Py_REF_DEBUG. */
  58:/usr/local/include/python3.8/object.h **** #if defined(Py_DEBUG) && !defined(Py_REF_DEBUG)
  59:/usr/local/include/python3.8/object.h **** #define Py_REF_DEBUG
  60:/usr/local/include/python3.8/object.h **** #endif
  61:/usr/local/include/python3.8/object.h **** 
  62:/usr/local/include/python3.8/object.h **** #if defined(Py_LIMITED_API) && defined(Py_REF_DEBUG)
  63:/usr/local/include/python3.8/object.h **** #error Py_LIMITED_API is incompatible with Py_DEBUG, Py_TRACE_REFS, and Py_REF_DEBUG
  64:/usr/local/include/python3.8/object.h **** #endif
  65:/usr/local/include/python3.8/object.h **** 
  66:/usr/local/include/python3.8/object.h **** 
  67:/usr/local/include/python3.8/object.h **** #ifdef Py_TRACE_REFS
  68:/usr/local/include/python3.8/object.h **** /* Define pointers to support a doubly-linked list of all live heap objects. */
  69:/usr/local/include/python3.8/object.h **** #define _PyObject_HEAD_EXTRA            \
  70:/usr/local/include/python3.8/object.h ****     struct _object *_ob_next;           \
  71:/usr/local/include/python3.8/object.h ****     struct _object *_ob_prev;
  72:/usr/local/include/python3.8/object.h **** 
  73:/usr/local/include/python3.8/object.h **** #define _PyObject_EXTRA_INIT 0, 0,
  74:/usr/local/include/python3.8/object.h **** 
  75:/usr/local/include/python3.8/object.h **** #else
  76:/usr/local/include/python3.8/object.h **** #define _PyObject_HEAD_EXTRA
  77:/usr/local/include/python3.8/object.h **** #define _PyObject_EXTRA_INIT
  78:/usr/local/include/python3.8/object.h **** #endif
  79:/usr/local/include/python3.8/object.h **** 
  80:/usr/local/include/python3.8/object.h **** /* PyObject_HEAD defines the initial segment of every PyObject. */
  81:/usr/local/include/python3.8/object.h **** #define PyObject_HEAD                   PyObject ob_base;
  82:/usr/local/include/python3.8/object.h **** 
  83:/usr/local/include/python3.8/object.h **** #define PyObject_HEAD_INIT(type)        \
  84:/usr/local/include/python3.8/object.h ****     { _PyObject_EXTRA_INIT              \
  85:/usr/local/include/python3.8/object.h ****     1, type },
  86:/usr/local/include/python3.8/object.h **** 
  87:/usr/local/include/python3.8/object.h **** #define PyVarObject_HEAD_INIT(type, size)       \
  88:/usr/local/include/python3.8/object.h ****     { PyObject_HEAD_INIT(type) size },
  89:/usr/local/include/python3.8/object.h **** 
  90:/usr/local/include/python3.8/object.h **** /* PyObject_VAR_HEAD defines the initial segment of all variable-size
  91:/usr/local/include/python3.8/object.h ****  * container objects.  These end with a declaration of an array with 1
  92:/usr/local/include/python3.8/object.h ****  * element, but enough space is malloc'ed so that the array actually
  93:/usr/local/include/python3.8/object.h ****  * has room for ob_size elements.  Note that ob_size is an element count,
  94:/usr/local/include/python3.8/object.h ****  * not necessarily a byte count.
  95:/usr/local/include/python3.8/object.h ****  */
  96:/usr/local/include/python3.8/object.h **** #define PyObject_VAR_HEAD      PyVarObject ob_base;
  97:/usr/local/include/python3.8/object.h **** #define Py_INVALID_SIZE (Py_ssize_t)-1
  98:/usr/local/include/python3.8/object.h **** 
  99:/usr/local/include/python3.8/object.h **** /* Nothing is actually declared to be a PyObject, but every pointer to
 100:/usr/local/include/python3.8/object.h ****  * a Python object can be cast to a PyObject*.  This is inheritance built
 101:/usr/local/include/python3.8/object.h ****  * by hand.  Similarly every pointer to a variable-size Python object can,
 102:/usr/local/include/python3.8/object.h ****  * in addition, be cast to PyVarObject*.
 103:/usr/local/include/python3.8/object.h ****  */
 104:/usr/local/include/python3.8/object.h **** typedef struct _object {
 105:/usr/local/include/python3.8/object.h ****     _PyObject_HEAD_EXTRA
 106:/usr/local/include/python3.8/object.h ****     Py_ssize_t ob_refcnt;
 107:/usr/local/include/python3.8/object.h ****     struct _typeobject *ob_type;
 108:/usr/local/include/python3.8/object.h **** } PyObject;
 109:/usr/local/include/python3.8/object.h **** 
 110:/usr/local/include/python3.8/object.h **** /* Cast argument to PyObject* type. */
 111:/usr/local/include/python3.8/object.h **** #define _PyObject_CAST(op) ((PyObject*)(op))
 112:/usr/local/include/python3.8/object.h **** 
 113:/usr/local/include/python3.8/object.h **** typedef struct {
 114:/usr/local/include/python3.8/object.h ****     PyObject ob_base;
 115:/usr/local/include/python3.8/object.h ****     Py_ssize_t ob_size; /* Number of items in variable part */
 116:/usr/local/include/python3.8/object.h **** } PyVarObject;
 117:/usr/local/include/python3.8/object.h **** 
 118:/usr/local/include/python3.8/object.h **** /* Cast argument to PyVarObject* type. */
 119:/usr/local/include/python3.8/object.h **** #define _PyVarObject_CAST(op) ((PyVarObject*)(op))
 120:/usr/local/include/python3.8/object.h **** 
 121:/usr/local/include/python3.8/object.h **** #define Py_REFCNT(ob)           (_PyObject_CAST(ob)->ob_refcnt)
 122:/usr/local/include/python3.8/object.h **** #define Py_TYPE(ob)             (_PyObject_CAST(ob)->ob_type)
 123:/usr/local/include/python3.8/object.h **** #define Py_SIZE(ob)             (_PyVarObject_CAST(ob)->ob_size)
 124:/usr/local/include/python3.8/object.h **** 
 125:/usr/local/include/python3.8/object.h **** /*
 126:/usr/local/include/python3.8/object.h **** Type objects contain a string containing the type name (to help somewhat
 127:/usr/local/include/python3.8/object.h **** in debugging), the allocation parameters (see PyObject_New() and
 128:/usr/local/include/python3.8/object.h **** PyObject_NewVar()),
 129:/usr/local/include/python3.8/object.h **** and methods for accessing objects of the type.  Methods are optional, a
 130:/usr/local/include/python3.8/object.h **** nil pointer meaning that particular kind of access is not available for
 131:/usr/local/include/python3.8/object.h **** this type.  The Py_DECREF() macro uses the tp_dealloc method without
 132:/usr/local/include/python3.8/object.h **** checking for a nil pointer; it should always be implemented except if
 133:/usr/local/include/python3.8/object.h **** the implementation can guarantee that the reference count will never
 134:/usr/local/include/python3.8/object.h **** reach zero (e.g., for statically allocated type objects).
 135:/usr/local/include/python3.8/object.h **** 
 136:/usr/local/include/python3.8/object.h **** NB: the methods for certain type groups are now contained in separate
 137:/usr/local/include/python3.8/object.h **** method blocks.
 138:/usr/local/include/python3.8/object.h **** */
 139:/usr/local/include/python3.8/object.h **** 
 140:/usr/local/include/python3.8/object.h **** typedef PyObject * (*unaryfunc)(PyObject *);
 141:/usr/local/include/python3.8/object.h **** typedef PyObject * (*binaryfunc)(PyObject *, PyObject *);
 142:/usr/local/include/python3.8/object.h **** typedef PyObject * (*ternaryfunc)(PyObject *, PyObject *, PyObject *);
 143:/usr/local/include/python3.8/object.h **** typedef int (*inquiry)(PyObject *);
 144:/usr/local/include/python3.8/object.h **** typedef Py_ssize_t (*lenfunc)(PyObject *);
 145:/usr/local/include/python3.8/object.h **** typedef PyObject *(*ssizeargfunc)(PyObject *, Py_ssize_t);
 146:/usr/local/include/python3.8/object.h **** typedef PyObject *(*ssizessizeargfunc)(PyObject *, Py_ssize_t, Py_ssize_t);
 147:/usr/local/include/python3.8/object.h **** typedef int(*ssizeobjargproc)(PyObject *, Py_ssize_t, PyObject *);
 148:/usr/local/include/python3.8/object.h **** typedef int(*ssizessizeobjargproc)(PyObject *, Py_ssize_t, Py_ssize_t, PyObject *);
 149:/usr/local/include/python3.8/object.h **** typedef int(*objobjargproc)(PyObject *, PyObject *, PyObject *);
 150:/usr/local/include/python3.8/object.h **** 
 151:/usr/local/include/python3.8/object.h **** typedef int (*objobjproc)(PyObject *, PyObject *);
 152:/usr/local/include/python3.8/object.h **** typedef int (*visitproc)(PyObject *, void *);
 153:/usr/local/include/python3.8/object.h **** typedef int (*traverseproc)(PyObject *, visitproc, void *);
 154:/usr/local/include/python3.8/object.h **** 
 155:/usr/local/include/python3.8/object.h **** 
 156:/usr/local/include/python3.8/object.h **** typedef void (*freefunc)(void *);
 157:/usr/local/include/python3.8/object.h **** typedef void (*destructor)(PyObject *);
 158:/usr/local/include/python3.8/object.h **** typedef PyObject *(*getattrfunc)(PyObject *, char *);
 159:/usr/local/include/python3.8/object.h **** typedef PyObject *(*getattrofunc)(PyObject *, PyObject *);
 160:/usr/local/include/python3.8/object.h **** typedef int (*setattrfunc)(PyObject *, char *, PyObject *);
 161:/usr/local/include/python3.8/object.h **** typedef int (*setattrofunc)(PyObject *, PyObject *, PyObject *);
 162:/usr/local/include/python3.8/object.h **** typedef PyObject *(*reprfunc)(PyObject *);
 163:/usr/local/include/python3.8/object.h **** typedef Py_hash_t (*hashfunc)(PyObject *);
 164:/usr/local/include/python3.8/object.h **** typedef PyObject *(*richcmpfunc) (PyObject *, PyObject *, int);
 165:/usr/local/include/python3.8/object.h **** typedef PyObject *(*getiterfunc) (PyObject *);
 166:/usr/local/include/python3.8/object.h **** typedef PyObject *(*iternextfunc) (PyObject *);
 167:/usr/local/include/python3.8/object.h **** typedef PyObject *(*descrgetfunc) (PyObject *, PyObject *, PyObject *);
 168:/usr/local/include/python3.8/object.h **** typedef int (*descrsetfunc) (PyObject *, PyObject *, PyObject *);
 169:/usr/local/include/python3.8/object.h **** typedef int (*initproc)(PyObject *, PyObject *, PyObject *);
 170:/usr/local/include/python3.8/object.h **** typedef PyObject *(*newfunc)(struct _typeobject *, PyObject *, PyObject *);
 171:/usr/local/include/python3.8/object.h **** typedef PyObject *(*allocfunc)(struct _typeobject *, Py_ssize_t);
 172:/usr/local/include/python3.8/object.h **** 
 173:/usr/local/include/python3.8/object.h **** #ifdef Py_LIMITED_API
 174:/usr/local/include/python3.8/object.h **** /* In Py_LIMITED_API, PyTypeObject is an opaque structure. */
 175:/usr/local/include/python3.8/object.h **** typedef struct _typeobject PyTypeObject;
 176:/usr/local/include/python3.8/object.h **** #else
 177:/usr/local/include/python3.8/object.h **** /* PyTypeObject is defined in cpython/object.h */
 178:/usr/local/include/python3.8/object.h **** #endif
 179:/usr/local/include/python3.8/object.h **** 
 180:/usr/local/include/python3.8/object.h **** typedef struct{
 181:/usr/local/include/python3.8/object.h ****     int slot;    /* slot id, see below */
 182:/usr/local/include/python3.8/object.h ****     void *pfunc; /* function pointer */
 183:/usr/local/include/python3.8/object.h **** } PyType_Slot;
 184:/usr/local/include/python3.8/object.h **** 
 185:/usr/local/include/python3.8/object.h **** typedef struct{
 186:/usr/local/include/python3.8/object.h ****     const char* name;
 187:/usr/local/include/python3.8/object.h ****     int basicsize;
 188:/usr/local/include/python3.8/object.h ****     int itemsize;
 189:/usr/local/include/python3.8/object.h ****     unsigned int flags;
 190:/usr/local/include/python3.8/object.h ****     PyType_Slot *slots; /* terminated by slot==0. */
 191:/usr/local/include/python3.8/object.h **** } PyType_Spec;
 192:/usr/local/include/python3.8/object.h **** 
 193:/usr/local/include/python3.8/object.h **** PyAPI_FUNC(PyObject*) PyType_FromSpec(PyType_Spec*);
 194:/usr/local/include/python3.8/object.h **** #if !defined(Py_LIMITED_API) || Py_LIMITED_API+0 >= 0x03030000
 195:/usr/local/include/python3.8/object.h **** PyAPI_FUNC(PyObject*) PyType_FromSpecWithBases(PyType_Spec*, PyObject*);
 196:/usr/local/include/python3.8/object.h **** #endif
 197:/usr/local/include/python3.8/object.h **** #if !defined(Py_LIMITED_API) || Py_LIMITED_API+0 >= 0x03040000
 198:/usr/local/include/python3.8/object.h **** PyAPI_FUNC(void*) PyType_GetSlot(struct _typeobject*, int);
 199:/usr/local/include/python3.8/object.h **** #endif
 200:/usr/local/include/python3.8/object.h **** 
 201:/usr/local/include/python3.8/object.h **** /* Generic type check */
 202:/usr/local/include/python3.8/object.h **** PyAPI_FUNC(int) PyType_IsSubtype(struct _typeobject *, struct _typeobject *);
 203:/usr/local/include/python3.8/object.h **** #define PyObject_TypeCheck(ob, tp) \
 204:/usr/local/include/python3.8/object.h ****     (Py_TYPE(ob) == (tp) || PyType_IsSubtype(Py_TYPE(ob), (tp)))
 205:/usr/local/include/python3.8/object.h **** 
 206:/usr/local/include/python3.8/object.h **** PyAPI_DATA(struct _typeobject) PyType_Type; /* built-in 'type' */
 207:/usr/local/include/python3.8/object.h **** PyAPI_DATA(struct _typeobject) PyBaseObject_Type; /* built-in 'object' */
 208:/usr/local/include/python3.8/object.h **** PyAPI_DATA(struct _typeobject) PySuper_Type; /* built-in 'super' */
 209:/usr/local/include/python3.8/object.h **** 
 210:/usr/local/include/python3.8/object.h **** PyAPI_FUNC(unsigned long) PyType_GetFlags(struct _typeobject*);
 211:/usr/local/include/python3.8/object.h **** 
 212:/usr/local/include/python3.8/object.h **** #define PyType_Check(op) \
 213:/usr/local/include/python3.8/object.h ****     PyType_FastSubclass(Py_TYPE(op), Py_TPFLAGS_TYPE_SUBCLASS)
 214:/usr/local/include/python3.8/object.h **** #define PyType_CheckExact(op) (Py_TYPE(op) == &PyType_Type)
 215:/usr/local/include/python3.8/object.h **** 
 216:/usr/local/include/python3.8/object.h **** PyAPI_FUNC(int) PyType_Ready(struct _typeobject *);
 217:/usr/local/include/python3.8/object.h **** PyAPI_FUNC(PyObject *) PyType_GenericAlloc(struct _typeobject *, Py_ssize_t);
 218:/usr/local/include/python3.8/object.h **** PyAPI_FUNC(PyObject *) PyType_GenericNew(struct _typeobject *,
 219:/usr/local/include/python3.8/object.h ****                                                PyObject *, PyObject *);
 220:/usr/local/include/python3.8/object.h **** PyAPI_FUNC(unsigned int) PyType_ClearCache(void);
 221:/usr/local/include/python3.8/object.h **** PyAPI_FUNC(void) PyType_Modified(struct _typeobject *);
 222:/usr/local/include/python3.8/object.h **** 
 223:/usr/local/include/python3.8/object.h **** /* Generic operations on objects */
 224:/usr/local/include/python3.8/object.h **** PyAPI_FUNC(PyObject *) PyObject_Repr(PyObject *);
 225:/usr/local/include/python3.8/object.h **** PyAPI_FUNC(PyObject *) PyObject_Str(PyObject *);
 226:/usr/local/include/python3.8/object.h **** PyAPI_FUNC(PyObject *) PyObject_ASCII(PyObject *);
 227:/usr/local/include/python3.8/object.h **** PyAPI_FUNC(PyObject *) PyObject_Bytes(PyObject *);
 228:/usr/local/include/python3.8/object.h **** PyAPI_FUNC(PyObject *) PyObject_RichCompare(PyObject *, PyObject *, int);
 229:/usr/local/include/python3.8/object.h **** PyAPI_FUNC(int) PyObject_RichCompareBool(PyObject *, PyObject *, int);
 230:/usr/local/include/python3.8/object.h **** PyAPI_FUNC(PyObject *) PyObject_GetAttrString(PyObject *, const char *);
 231:/usr/local/include/python3.8/object.h **** PyAPI_FUNC(int) PyObject_SetAttrString(PyObject *, const char *, PyObject *);
 232:/usr/local/include/python3.8/object.h **** PyAPI_FUNC(int) PyObject_HasAttrString(PyObject *, const char *);
 233:/usr/local/include/python3.8/object.h **** PyAPI_FUNC(PyObject *) PyObject_GetAttr(PyObject *, PyObject *);
 234:/usr/local/include/python3.8/object.h **** PyAPI_FUNC(int) PyObject_SetAttr(PyObject *, PyObject *, PyObject *);
 235:/usr/local/include/python3.8/object.h **** PyAPI_FUNC(int) PyObject_HasAttr(PyObject *, PyObject *);
 236:/usr/local/include/python3.8/object.h **** PyAPI_FUNC(PyObject *) PyObject_SelfIter(PyObject *);
 237:/usr/local/include/python3.8/object.h **** PyAPI_FUNC(PyObject *) PyObject_GenericGetAttr(PyObject *, PyObject *);
 238:/usr/local/include/python3.8/object.h **** PyAPI_FUNC(int) PyObject_GenericSetAttr(PyObject *,
 239:/usr/local/include/python3.8/object.h ****                                               PyObject *, PyObject *);
 240:/usr/local/include/python3.8/object.h **** #if !defined(Py_LIMITED_API) || Py_LIMITED_API+0 >= 0x03030000
 241:/usr/local/include/python3.8/object.h **** PyAPI_FUNC(int) PyObject_GenericSetDict(PyObject *, PyObject *, void *);
 242:/usr/local/include/python3.8/object.h **** #endif
 243:/usr/local/include/python3.8/object.h **** PyAPI_FUNC(Py_hash_t) PyObject_Hash(PyObject *);
 244:/usr/local/include/python3.8/object.h **** PyAPI_FUNC(Py_hash_t) PyObject_HashNotImplemented(PyObject *);
 245:/usr/local/include/python3.8/object.h **** PyAPI_FUNC(int) PyObject_IsTrue(PyObject *);
 246:/usr/local/include/python3.8/object.h **** PyAPI_FUNC(int) PyObject_Not(PyObject *);
 247:/usr/local/include/python3.8/object.h **** PyAPI_FUNC(int) PyCallable_Check(PyObject *);
 248:/usr/local/include/python3.8/object.h **** PyAPI_FUNC(void) PyObject_ClearWeakRefs(PyObject *);
 249:/usr/local/include/python3.8/object.h **** 
 250:/usr/local/include/python3.8/object.h **** /* PyObject_Dir(obj) acts like Python builtins.dir(obj), returning a
 251:/usr/local/include/python3.8/object.h ****    list of strings.  PyObject_Dir(NULL) is like builtins.dir(),
 252:/usr/local/include/python3.8/object.h ****    returning the names of the current locals.  In this case, if there are
 253:/usr/local/include/python3.8/object.h ****    no current locals, NULL is returned, and PyErr_Occurred() is false.
 254:/usr/local/include/python3.8/object.h **** */
 255:/usr/local/include/python3.8/object.h **** PyAPI_FUNC(PyObject *) PyObject_Dir(PyObject *);
 256:/usr/local/include/python3.8/object.h **** 
 257:/usr/local/include/python3.8/object.h **** 
 258:/usr/local/include/python3.8/object.h **** /* Helpers for printing recursive container types */
 259:/usr/local/include/python3.8/object.h **** PyAPI_FUNC(int) Py_ReprEnter(PyObject *);
 260:/usr/local/include/python3.8/object.h **** PyAPI_FUNC(void) Py_ReprLeave(PyObject *);
 261:/usr/local/include/python3.8/object.h **** 
 262:/usr/local/include/python3.8/object.h **** /* Flag bits for printing: */
 263:/usr/local/include/python3.8/object.h **** #define Py_PRINT_RAW    1       /* No string quotes etc. */
 264:/usr/local/include/python3.8/object.h **** 
 265:/usr/local/include/python3.8/object.h **** /*
 266:/usr/local/include/python3.8/object.h **** Type flags (tp_flags)
 267:/usr/local/include/python3.8/object.h **** 
 268:/usr/local/include/python3.8/object.h **** These flags are used to change expected features and behavior for a
 269:/usr/local/include/python3.8/object.h **** particular type.
 270:/usr/local/include/python3.8/object.h **** 
 271:/usr/local/include/python3.8/object.h **** Arbitration of the flag bit positions will need to be coordinated among
 272:/usr/local/include/python3.8/object.h **** all extension writers who publicly release their extensions (this will
 273:/usr/local/include/python3.8/object.h **** be fewer than you might expect!).
 274:/usr/local/include/python3.8/object.h **** 
 275:/usr/local/include/python3.8/object.h **** Most flags were removed as of Python 3.0 to make room for new flags.  (Some
 276:/usr/local/include/python3.8/object.h **** flags are not for backwards compatibility but to indicate the presence of an
 277:/usr/local/include/python3.8/object.h **** optional feature; these flags remain of course.)
 278:/usr/local/include/python3.8/object.h **** 
 279:/usr/local/include/python3.8/object.h **** Type definitions should use Py_TPFLAGS_DEFAULT for their tp_flags value.
 280:/usr/local/include/python3.8/object.h **** 
 281:/usr/local/include/python3.8/object.h **** Code can use PyType_HasFeature(type_ob, flag_value) to test whether the
 282:/usr/local/include/python3.8/object.h **** given type object has a specified feature.
 283:/usr/local/include/python3.8/object.h **** */
 284:/usr/local/include/python3.8/object.h **** 
 285:/usr/local/include/python3.8/object.h **** /* Set if the type object is dynamically allocated */
 286:/usr/local/include/python3.8/object.h **** #define Py_TPFLAGS_HEAPTYPE (1UL << 9)
 287:/usr/local/include/python3.8/object.h **** 
 288:/usr/local/include/python3.8/object.h **** /* Set if the type allows subclassing */
 289:/usr/local/include/python3.8/object.h **** #define Py_TPFLAGS_BASETYPE (1UL << 10)
 290:/usr/local/include/python3.8/object.h **** 
 291:/usr/local/include/python3.8/object.h **** /* Set if the type implements the vectorcall protocol (PEP 590) */
 292:/usr/local/include/python3.8/object.h **** #ifndef Py_LIMITED_API
 293:/usr/local/include/python3.8/object.h **** #define _Py_TPFLAGS_HAVE_VECTORCALL (1UL << 11)
 294:/usr/local/include/python3.8/object.h **** #endif
 295:/usr/local/include/python3.8/object.h **** 
 296:/usr/local/include/python3.8/object.h **** /* Set if the type is 'ready' -- fully initialized */
 297:/usr/local/include/python3.8/object.h **** #define Py_TPFLAGS_READY (1UL << 12)
 298:/usr/local/include/python3.8/object.h **** 
 299:/usr/local/include/python3.8/object.h **** /* Set while the type is being 'readied', to prevent recursive ready calls */
 300:/usr/local/include/python3.8/object.h **** #define Py_TPFLAGS_READYING (1UL << 13)
 301:/usr/local/include/python3.8/object.h **** 
 302:/usr/local/include/python3.8/object.h **** /* Objects support garbage collection (see objimpl.h) */
 303:/usr/local/include/python3.8/object.h **** #define Py_TPFLAGS_HAVE_GC (1UL << 14)
 304:/usr/local/include/python3.8/object.h **** 
 305:/usr/local/include/python3.8/object.h **** /* These two bits are preserved for Stackless Python, next after this is 17 */
 306:/usr/local/include/python3.8/object.h **** #ifdef STACKLESS
 307:/usr/local/include/python3.8/object.h **** #define Py_TPFLAGS_HAVE_STACKLESS_EXTENSION (3UL << 15)
 308:/usr/local/include/python3.8/object.h **** #else
 309:/usr/local/include/python3.8/object.h **** #define Py_TPFLAGS_HAVE_STACKLESS_EXTENSION 0
 310:/usr/local/include/python3.8/object.h **** #endif
 311:/usr/local/include/python3.8/object.h **** 
 312:/usr/local/include/python3.8/object.h **** /* Objects behave like an unbound method */
 313:/usr/local/include/python3.8/object.h **** #define Py_TPFLAGS_METHOD_DESCRIPTOR (1UL << 17)
 314:/usr/local/include/python3.8/object.h **** 
 315:/usr/local/include/python3.8/object.h **** /* Objects support type attribute cache */
 316:/usr/local/include/python3.8/object.h **** #define Py_TPFLAGS_HAVE_VERSION_TAG   (1UL << 18)
 317:/usr/local/include/python3.8/object.h **** #define Py_TPFLAGS_VALID_VERSION_TAG  (1UL << 19)
 318:/usr/local/include/python3.8/object.h **** 
 319:/usr/local/include/python3.8/object.h **** /* Type is abstract and cannot be instantiated */
 320:/usr/local/include/python3.8/object.h **** #define Py_TPFLAGS_IS_ABSTRACT (1UL << 20)
 321:/usr/local/include/python3.8/object.h **** 
 322:/usr/local/include/python3.8/object.h **** /* These flags are used to determine if a type is a subclass. */
 323:/usr/local/include/python3.8/object.h **** #define Py_TPFLAGS_LONG_SUBCLASS        (1UL << 24)
 324:/usr/local/include/python3.8/object.h **** #define Py_TPFLAGS_LIST_SUBCLASS        (1UL << 25)
 325:/usr/local/include/python3.8/object.h **** #define Py_TPFLAGS_TUPLE_SUBCLASS       (1UL << 26)
 326:/usr/local/include/python3.8/object.h **** #define Py_TPFLAGS_BYTES_SUBCLASS       (1UL << 27)
 327:/usr/local/include/python3.8/object.h **** #define Py_TPFLAGS_UNICODE_SUBCLASS     (1UL << 28)
 328:/usr/local/include/python3.8/object.h **** #define Py_TPFLAGS_DICT_SUBCLASS        (1UL << 29)
 329:/usr/local/include/python3.8/object.h **** #define Py_TPFLAGS_BASE_EXC_SUBCLASS    (1UL << 30)
 330:/usr/local/include/python3.8/object.h **** #define Py_TPFLAGS_TYPE_SUBCLASS        (1UL << 31)
 331:/usr/local/include/python3.8/object.h **** 
 332:/usr/local/include/python3.8/object.h **** #define Py_TPFLAGS_DEFAULT  ( \
 333:/usr/local/include/python3.8/object.h ****                  Py_TPFLAGS_HAVE_STACKLESS_EXTENSION | \
 334:/usr/local/include/python3.8/object.h ****                  Py_TPFLAGS_HAVE_VERSION_TAG | \
 335:/usr/local/include/python3.8/object.h ****                 0)
 336:/usr/local/include/python3.8/object.h **** 
 337:/usr/local/include/python3.8/object.h **** /* NOTE: The following flags reuse lower bits (removed as part of the
 338:/usr/local/include/python3.8/object.h ****  * Python 3.0 transition). */
 339:/usr/local/include/python3.8/object.h **** 
 340:/usr/local/include/python3.8/object.h **** /* The following flag is kept for compatibility.  Starting with 3.8,
 341:/usr/local/include/python3.8/object.h ****  * binary compatibility of C extensions accross feature releases of
 342:/usr/local/include/python3.8/object.h ****  * Python is not supported anymore, except when using the stable ABI.
 343:/usr/local/include/python3.8/object.h ****  */
 344:/usr/local/include/python3.8/object.h **** 
 345:/usr/local/include/python3.8/object.h **** /* Type structure has tp_finalize member (3.4) */
 346:/usr/local/include/python3.8/object.h **** #define Py_TPFLAGS_HAVE_FINALIZE (1UL << 0)
 347:/usr/local/include/python3.8/object.h **** 
 348:/usr/local/include/python3.8/object.h **** #ifdef Py_LIMITED_API
 349:/usr/local/include/python3.8/object.h **** #  define PyType_HasFeature(t,f)  ((PyType_GetFlags(t) & (f)) != 0)
 350:/usr/local/include/python3.8/object.h **** #endif
 351:/usr/local/include/python3.8/object.h **** #define PyType_FastSubclass(t,f)  PyType_HasFeature(t,f)
 352:/usr/local/include/python3.8/object.h **** 
 353:/usr/local/include/python3.8/object.h **** 
 354:/usr/local/include/python3.8/object.h **** /*
 355:/usr/local/include/python3.8/object.h **** The macros Py_INCREF(op) and Py_DECREF(op) are used to increment or decrement
 356:/usr/local/include/python3.8/object.h **** reference counts.  Py_DECREF calls the object's deallocator function when
 357:/usr/local/include/python3.8/object.h **** the refcount falls to 0; for
 358:/usr/local/include/python3.8/object.h **** objects that don't contain references to other objects or heap memory
 359:/usr/local/include/python3.8/object.h **** this can be the standard function free().  Both macros can be used
 360:/usr/local/include/python3.8/object.h **** wherever a void expression is allowed.  The argument must not be a
 361:/usr/local/include/python3.8/object.h **** NULL pointer.  If it may be NULL, use Py_XINCREF/Py_XDECREF instead.
 362:/usr/local/include/python3.8/object.h **** The macro _Py_NewReference(op) initialize reference counts to 1, and
 363:/usr/local/include/python3.8/object.h **** in special builds (Py_REF_DEBUG, Py_TRACE_REFS) performs additional
 364:/usr/local/include/python3.8/object.h **** bookkeeping appropriate to the special build.
 365:/usr/local/include/python3.8/object.h **** 
 366:/usr/local/include/python3.8/object.h **** We assume that the reference count field can never overflow; this can
 367:/usr/local/include/python3.8/object.h **** be proven when the size of the field is the same as the pointer size, so
 368:/usr/local/include/python3.8/object.h **** we ignore the possibility.  Provided a C int is at least 32 bits (which
 369:/usr/local/include/python3.8/object.h **** is implicitly assumed in many parts of this code), that's enough for
 370:/usr/local/include/python3.8/object.h **** about 2**31 references to an object.
 371:/usr/local/include/python3.8/object.h **** 
 372:/usr/local/include/python3.8/object.h **** XXX The following became out of date in Python 2.2, but I'm not sure
 373:/usr/local/include/python3.8/object.h **** XXX what the full truth is now.  Certainly, heap-allocated type objects
 374:/usr/local/include/python3.8/object.h **** XXX can and should be deallocated.
 375:/usr/local/include/python3.8/object.h **** Type objects should never be deallocated; the type pointer in an object
 376:/usr/local/include/python3.8/object.h **** is not considered to be a reference to the type object, to save
 377:/usr/local/include/python3.8/object.h **** complications in the deallocation function.  (This is actually a
 378:/usr/local/include/python3.8/object.h **** decision that's up to the implementer of each new type so if you want,
 379:/usr/local/include/python3.8/object.h **** you can count such references to the type object.)
 380:/usr/local/include/python3.8/object.h **** */
 381:/usr/local/include/python3.8/object.h **** 
 382:/usr/local/include/python3.8/object.h **** /* First define a pile of simple helper macros, one set per special
 383:/usr/local/include/python3.8/object.h ****  * build symbol.  These either expand to the obvious things, or to
 384:/usr/local/include/python3.8/object.h ****  * nothing at all when the special mode isn't in effect.  The main
 385:/usr/local/include/python3.8/object.h ****  * macros can later be defined just once then, yet expand to different
 386:/usr/local/include/python3.8/object.h ****  * things depending on which special build options are and aren't in effect.
 387:/usr/local/include/python3.8/object.h ****  * Trust me <wink>:  while painful, this is 20x easier to understand than,
 388:/usr/local/include/python3.8/object.h ****  * e.g, defining _Py_NewReference five different times in a maze of nested
 389:/usr/local/include/python3.8/object.h ****  * #ifdefs (we used to do that -- it was impenetrable).
 390:/usr/local/include/python3.8/object.h ****  */
 391:/usr/local/include/python3.8/object.h **** #ifdef Py_REF_DEBUG
 392:/usr/local/include/python3.8/object.h **** PyAPI_DATA(Py_ssize_t) _Py_RefTotal;
 393:/usr/local/include/python3.8/object.h **** PyAPI_FUNC(void) _Py_NegativeRefcount(const char *filename, int lineno,
 394:/usr/local/include/python3.8/object.h ****                                       PyObject *op);
 395:/usr/local/include/python3.8/object.h **** PyAPI_FUNC(Py_ssize_t) _Py_GetRefTotal(void);
 396:/usr/local/include/python3.8/object.h **** #define _Py_INC_REFTOTAL        _Py_RefTotal++
 397:/usr/local/include/python3.8/object.h **** #define _Py_DEC_REFTOTAL        _Py_RefTotal--
 398:/usr/local/include/python3.8/object.h **** 
 399:/usr/local/include/python3.8/object.h **** /* Py_REF_DEBUG also controls the display of refcounts and memory block
 400:/usr/local/include/python3.8/object.h ****  * allocations at the interactive prompt and at interpreter shutdown
 401:/usr/local/include/python3.8/object.h ****  */
 402:/usr/local/include/python3.8/object.h **** PyAPI_FUNC(void) _PyDebug_PrintTotalRefs(void);
 403:/usr/local/include/python3.8/object.h **** #else
 404:/usr/local/include/python3.8/object.h **** #define _Py_INC_REFTOTAL
 405:/usr/local/include/python3.8/object.h **** #define _Py_DEC_REFTOTAL
 406:/usr/local/include/python3.8/object.h **** #endif /* Py_REF_DEBUG */
 407:/usr/local/include/python3.8/object.h **** 
 408:/usr/local/include/python3.8/object.h **** #ifdef COUNT_ALLOCS
 409:/usr/local/include/python3.8/object.h **** PyAPI_FUNC(void) _Py_inc_count(struct _typeobject *);
 410:/usr/local/include/python3.8/object.h **** PyAPI_FUNC(void) _Py_dec_count(struct _typeobject *);
 411:/usr/local/include/python3.8/object.h **** #define _Py_INC_TPALLOCS(OP)    _Py_inc_count(Py_TYPE(OP))
 412:/usr/local/include/python3.8/object.h **** #define _Py_INC_TPFREES(OP)     _Py_dec_count(Py_TYPE(OP))
 413:/usr/local/include/python3.8/object.h **** #define _Py_DEC_TPFREES(OP)     Py_TYPE(OP)->tp_frees--
 414:/usr/local/include/python3.8/object.h **** #define _Py_COUNT_ALLOCS_COMMA  ,
 415:/usr/local/include/python3.8/object.h **** #else
 416:/usr/local/include/python3.8/object.h **** #define _Py_INC_TPALLOCS(OP)
 417:/usr/local/include/python3.8/object.h **** #define _Py_INC_TPFREES(OP)
 418:/usr/local/include/python3.8/object.h **** #define _Py_DEC_TPFREES(OP)
 419:/usr/local/include/python3.8/object.h **** #define _Py_COUNT_ALLOCS_COMMA
 420:/usr/local/include/python3.8/object.h **** #endif /* COUNT_ALLOCS */
 421:/usr/local/include/python3.8/object.h **** 
 422:/usr/local/include/python3.8/object.h **** /* Update the Python traceback of an object. This function must be called
 423:/usr/local/include/python3.8/object.h ****    when a memory block is reused from a free list. */
 424:/usr/local/include/python3.8/object.h **** PyAPI_FUNC(int) _PyTraceMalloc_NewReference(PyObject *op);
 425:/usr/local/include/python3.8/object.h **** 
 426:/usr/local/include/python3.8/object.h **** #ifdef Py_TRACE_REFS
 427:/usr/local/include/python3.8/object.h **** /* Py_TRACE_REFS is such major surgery that we call external routines. */
 428:/usr/local/include/python3.8/object.h **** PyAPI_FUNC(void) _Py_NewReference(PyObject *);
 429:/usr/local/include/python3.8/object.h **** PyAPI_FUNC(void) _Py_ForgetReference(PyObject *);
 430:/usr/local/include/python3.8/object.h **** PyAPI_FUNC(void) _Py_PrintReferences(FILE *);
 431:/usr/local/include/python3.8/object.h **** PyAPI_FUNC(void) _Py_PrintReferenceAddresses(FILE *);
 432:/usr/local/include/python3.8/object.h **** PyAPI_FUNC(void) _Py_AddToAllObjects(PyObject *, int force);
 433:/usr/local/include/python3.8/object.h **** #else
 434:/usr/local/include/python3.8/object.h **** /* Without Py_TRACE_REFS, there's little enough to do that we expand code
 435:/usr/local/include/python3.8/object.h ****    inline. */
 436:/usr/local/include/python3.8/object.h **** static inline void _Py_NewReference(PyObject *op)
 437:/usr/local/include/python3.8/object.h **** {
 438:/usr/local/include/python3.8/object.h ****     if (_Py_tracemalloc_config.tracing) {
 439:/usr/local/include/python3.8/object.h ****         _PyTraceMalloc_NewReference(op);
 440:/usr/local/include/python3.8/object.h ****     }
 441:/usr/local/include/python3.8/object.h ****     _Py_INC_TPALLOCS(op);
 442:/usr/local/include/python3.8/object.h ****     _Py_INC_REFTOTAL;
 443:/usr/local/include/python3.8/object.h ****     Py_REFCNT(op) = 1;
 444:/usr/local/include/python3.8/object.h **** }
 445:/usr/local/include/python3.8/object.h **** 
 446:/usr/local/include/python3.8/object.h **** static inline void _Py_ForgetReference(PyObject *op)
 447:/usr/local/include/python3.8/object.h **** {
 448:/usr/local/include/python3.8/object.h ****     (void)op; /* may be unused, shut up -Wunused-parameter */
 449:/usr/local/include/python3.8/object.h ****     _Py_INC_TPFREES(op);
 450:/usr/local/include/python3.8/object.h **** }
 451:/usr/local/include/python3.8/object.h **** #endif /* !Py_TRACE_REFS */
 452:/usr/local/include/python3.8/object.h **** 
 453:/usr/local/include/python3.8/object.h **** 
 454:/usr/local/include/python3.8/object.h **** PyAPI_FUNC(void) _Py_Dealloc(PyObject *);
 455:/usr/local/include/python3.8/object.h **** 
 456:/usr/local/include/python3.8/object.h **** static inline void _Py_INCREF(PyObject *op)
 2453              		.loc 2 456 20 view .LVU613
 2454              	.LBB32:
 457:/usr/local/include/python3.8/object.h **** {
 458:/usr/local/include/python3.8/object.h ****     _Py_INC_REFTOTAL;
 2455              		.loc 2 458 21 view .LVU614
 459:/usr/local/include/python3.8/object.h ****     op->ob_refcnt++;
 2456              		.loc 2 459 5 view .LVU615
 2457              	@ /usr/local/include/python3.8/object.h:459:     op->ob_refcnt++;
 2458              		.loc 2 459 18 is_stmt 0 view .LVU616
 2459 0b10 38309FE5 		ldr	r3, .L144	@ tmp126,
 2460              	.LBE32:
 2461              	.LBE31:
 2462              	@ armwave.c:464:     Py_RETURN_TRUE;
 2463              		.loc 1 464 5 view .LVU617
 2464 0b14 0300A0E1 		mov	r0, r3	@ <retval>, tmp126
 2465              	.LBB34:
 2466              	.LBB33:
 2467              	@ /usr/local/include/python3.8/object.h:459:     op->ob_refcnt++;
 2468              		.loc 2 459 18 view .LVU618
 2469 0b18 002093E5 		ldr	r2, [r3]	@ MEM[(Py_ssize_t *)&_Py_TrueStruct],
 2470 0b1c 012082E2 		add	r2, r2, #1	@ tmp128, MEM[(Py_ssize_t *)&_Py_TrueStruct],
 2471 0b20 002083E5 		str	r2, [r3]	@ tmp128,
 2472              	.LBE33:
 2473              	.LBE34:
 2474              	@ armwave.c:465: }
 465:armwave.c     **** }
 2475              		.loc 1 465 1 view .LVU619
 2476 0b24 34D08DE2 		add	sp, sp, #52	@,,
 2477              		.cfi_remember_state
 2478              		.cfi_def_cfa_offset 4
 2479              		@ sp needed	@
 2480 0b28 04F09DE4 		ldr	pc, [sp], #4	@
 2481              	.LVL156:
 2482              	.L143:
 2483              		.cfi_restore_state
 452:armwave.c     ****         Py_RETURN_FALSE;
 2484              		.loc 1 452 9 is_stmt 1 view .LVU620
 2485 0b2c 20009FE5 		ldr	r0, .L144+4	@,
 2486              	.LVL157:
 452:armwave.c     ****         Py_RETURN_FALSE;
 2487              		.loc 1 452 9 is_stmt 0 view .LVU621
 2488 0b30 FEFFFFEB 		bl	puts		@
 2489              	.LVL158:
 453:armwave.c     ****     }
 2490              		.loc 1 453 9 is_stmt 1 view .LVU622
 2491              	.LBB35:
 2492              	.LBI35:
 456:/usr/local/include/python3.8/object.h **** {
 2493              		.loc 2 456 20 view .LVU623
 2494              	.LBB36:
 458:/usr/local/include/python3.8/object.h ****     op->ob_refcnt++;
 2495              		.loc 2 458 21 view .LVU624
 2496              		.loc 2 459 5 view .LVU625
 2497              	@ /usr/local/include/python3.8/object.h:459:     op->ob_refcnt++;
 2498              		.loc 2 459 18 is_stmt 0 view .LVU626
 2499 0b34 1C309FE5 		ldr	r3, .L144+8	@ tmp120,
 2500              	.LBE36:
 2501              	.LBE35:
 2502              	@ armwave.c:453:         Py_RETURN_FALSE;
 453:armwave.c     ****     }
 2503              		.loc 1 453 9 view .LVU627
 2504 0b38 0300A0E1 		mov	r0, r3	@ <retval>, tmp120
 2505              	.LBB38:
 2506              	.LBB37:
 2507              	@ /usr/local/include/python3.8/object.h:459:     op->ob_refcnt++;
 2508              		.loc 2 459 18 view .LVU628
 2509 0b3c 002093E5 		ldr	r2, [r3]	@ MEM[(Py_ssize_t *)&_Py_FalseStruct],
 2510 0b40 012082E2 		add	r2, r2, #1	@ tmp122, MEM[(Py_ssize_t *)&_Py_FalseStruct],
 2511 0b44 002083E5 		str	r2, [r3]	@ tmp122,
 2512              	.LBE37:
 2513              	.LBE38:
 2514              	@ armwave.c:465: }
 2515              		.loc 1 465 1 view .LVU629
 2516 0b48 34D08DE2 		add	sp, sp, #52	@,,
 2517              		.cfi_def_cfa_offset 4
 2518              		@ sp needed	@
 2519 0b4c 04F09DE4 		ldr	pc, [sp], #4	@
 2520              	.L145:
 2521              		.align	2
 2522              	.L144:
 2523 0b50 00000000 		.word	_Py_TrueStruct
 2524 0b54 28020000 		.word	.LC18
 2525 0b58 00000000 		.word	_Py_FalseStruct
 2526              		.cfi_endproc
 2527              	.LFE74:
 2529              		.align	2
 2530              		.global	armwave_test_create_am_sine
 2531              		.syntax unified
 2532              		.arm
 2533              		.fpu vfp
 2535              	armwave_test_create_am_sine:
 2536              	.LVL159:
 2537              	.LFB75:
 466:armwave.c     **** 
 467:armwave.c     **** /*
 468:armwave.c     ****  * Make a test AM waveform for render tests.
 469:armwave.c     ****  *
 470:armwave.c     ****  * @param   mod                     modulation depth
 471:armwave.c     ****  * @param   noise_fraction          typically 1e-6
 472:armwave.c     ****  * @param   number of wave sets     1-N, must have memory for these
 473:armwave.c     ****  */
 474:armwave.c     **** void armwave_test_create_am_sine(float mod, float noise_fraction, int sets)
 475:armwave.c     **** {
 2538              		.loc 1 475 1 is_stmt 1 view -0
 2539              		.cfi_startproc
 2540              		@ args = 0, pretend = 0, frame = 8
 2541              		@ frame_needed = 0, uses_anonymous_args = 0
 476:armwave.c     ****     float v, noise, xnoise, mod_val;
 2542              		.loc 1 476 5 view .LVU631
 477:armwave.c     ****     float _1_waves_mod = mod * (1.0f / g_armwave_state.waves);
 2543              		.loc 1 477 5 view .LVU632
 2544              	@ armwave.c:475: {
 475:armwave.c     ****     float v, noise, xnoise, mod_val;
 2545              		.loc 1 475 1 is_stmt 0 view .LVU633
 2546 0b5c F0472DE9 		push	{r4, r5, r6, r7, r8, r9, r10, lr}	@
 2547              		.cfi_def_cfa_offset 32
 2548              		.cfi_offset 4, -32
 2549              		.cfi_offset 5, -28
 2550              		.cfi_offset 6, -24
 2551              		.cfi_offset 7, -20
 2552              		.cfi_offset 8, -16
 2553              		.cfi_offset 9, -12
 2554              		.cfi_offset 10, -8
 2555              		.cfi_offset 14, -4
 2556              	@ armwave.c:477:     float _1_waves_mod = mod * (1.0f / g_armwave_state.waves);
 2557              		.loc 1 477 38 view .LVU634
 2558 0b60 7A7A9FED 		vldr.32	s14, .L177	@ tmp180,
 2559              	@ armwave.c:477:     float _1_waves_mod = mod * (1.0f / g_armwave_state.waves);
 2560              		.loc 1 477 55 view .LVU635
 2561 0b64 00529FE5 		ldr	r5, .L177+28	@ tmp250,
 2562              	@ armwave.c:475: {
 475:armwave.c     ****     float v, noise, xnoise, mod_val;
 2563              		.loc 1 475 1 view .LVU636
 2564 0b68 0C8B2DED 		vpush.64	{d8, d9, d10, d11, d12, d13}	@
 2565              		.cfi_def_cfa_offset 80
 2566              		.cfi_offset 80, -80
 2567              		.cfi_offset 81, -76
 2568              		.cfi_offset 82, -72
 2569              		.cfi_offset 83, -68
 2570              		.cfi_offset 84, -64
 2571              		.cfi_offset 85, -60
 2572              		.cfi_offset 86, -56
 2573              		.cfi_offset 87, -52
 2574              		.cfi_offset 88, -48
 2575              		.cfi_offset 89, -44
 2576              		.cfi_offset 90, -40
 2577              		.cfi_offset 91, -36
 2578 0b6c 0090A0E1 		mov	r9, r0	@ sets, sets
 2579              	@ armwave.c:477:     float _1_waves_mod = mod * (1.0f / g_armwave_state.waves);
 2580              		.loc 1 477 38 view .LVU637
 2581 0b70 0E7AD5ED 		vldr.32	s15, [r5, #56]	@ int	@ tmp264, g_armwave_state.waves
 2582              	@ armwave.c:481:     g_armwave_state.test_wave_buffer_stride = (g_armwave_state.waves * g_armwave_s
 478:armwave.c     ****     int s, set_offset = 0;
 479:armwave.c     ****     int w, x;
 480:armwave.c     **** 
 481:armwave.c     ****     g_armwave_state.test_wave_buffer_stride = (g_armwave_state.waves * g_armwave_state.wave_stride)
 2583              		.loc 1 481 70 view .LVU638
 2584 0b74 343095E5 		ldr	r3, [r5, #52]	@ g_armwave_state.wave_stride, g_armwave_state.wave_stride
 2585 0b78 382095E5 		ldr	r2, [r5, #56]	@ tmp265, g_armwave_state.waves
 2586              	.LBB41:
 2587              	.LBB42:
 2588              	@ armwave.c:424:     if(g_armwave_state.test_wave_buffer != NULL) {
 424:armwave.c     ****         free(g_armwave_state.test_wave_buffer);
 2589              		.loc 1 424 23 view .LVU639
 2590 0b7c 180095E5 		ldr	r0, [r5, #24]	@ _82, g_armwave_state.test_wave_buffer
 2591              	.LVL160:
 424:armwave.c     ****         free(g_armwave_state.test_wave_buffer);
 2592              		.loc 1 424 23 view .LVU640
 2593              	.LBE42:
 2594              	.LBE41:
 2595              	@ armwave.c:477:     float _1_waves_mod = mod * (1.0f / g_armwave_state.waves);
 477:armwave.c     ****     int s, set_offset = 0;
 2596              		.loc 1 477 38 view .LVU641
 2597 0b80 E77AF8EE 		vcvt.f32.s32	s15, s15	@ tmp178, tmp264
 2598              	@ armwave.c:481:     g_armwave_state.test_wave_buffer_stride = (g_armwave_state.waves * g_armwave_s
 2599              		.loc 1 481 70 view .LVU642
 2600 0b84 920303E0 		mul	r3, r2, r3	@ tmp183, tmp265, g_armwave_state.wave_stride
 2601              	@ armwave.c:475: {
 475:armwave.c     ****     float v, noise, xnoise, mod_val;
 2602              		.loc 1 475 1 view .LVU643
 2603 0b88 60BAF0EE 		vmov.f32	s23, s1	@ noise_fraction, noise_fraction
 2604              	.LBB46:
 2605              	.LBB43:
 2606              	@ armwave.c:424:     if(g_armwave_state.test_wave_buffer != NULL) {
 424:armwave.c     ****         free(g_armwave_state.test_wave_buffer);
 2607              		.loc 1 424 7 view .LVU644
 2608 0b8c 000050E3 		cmp	r0, #0	@ _82,
 2609              	.LBE43:
 2610              	.LBE46:
 2611              	@ armwave.c:475: {
 475:armwave.c     ****     float v, noise, xnoise, mod_val;
 2612              		.loc 1 475 1 view .LVU645
 2613 0b90 08D04DE2 		sub	sp, sp, #8	@,,
 2614              		.cfi_def_cfa_offset 88
 2615              	@ armwave.c:482:     g_armwave_state.test_wave_buffer_nsets = sets;
 482:armwave.c     ****     g_armwave_state.test_wave_buffer_nsets = sets;
 2616              		.loc 1 482 44 view .LVU646
 2617 0b94 209085E5 		str	r9, [r5, #32]	@ sets, g_armwave_state.test_wave_buffer_nsets
 2618              	@ armwave.c:481:     g_armwave_state.test_wave_buffer_stride = (g_armwave_state.waves * g_armwave_s
 481:armwave.c     ****     g_armwave_state.test_wave_buffer_nsets = sets;
 2619              		.loc 1 481 45 view .LVU647
 2620 0b98 1C3085E5 		str	r3, [r5, #28]	@ tmp183, g_armwave_state.test_wave_buffer_stride
 2621              	@ armwave.c:477:     float _1_waves_mod = mod * (1.0f / g_armwave_state.waves);
 477:armwave.c     ****     int s, set_offset = 0;
 2622              		.loc 1 477 38 view .LVU648
 2623 0b9c 27DA87EE 		vdiv.f32	s26, s14, s15	@ tmp179, tmp180, tmp178
 2624              	@ armwave.c:477:     float _1_waves_mod = mod * (1.0f / g_armwave_state.waves);
 477:armwave.c     ****     int s, set_offset = 0;
 2625              		.loc 1 477 11 view .LVU649
 2626 0ba0 00DA2DEE 		vmul.f32	s26, s26, s0	@ _1_waves_mod, tmp179, mod
 2627              	.LVL161:
 478:armwave.c     ****     int w, x;
 2628              		.loc 1 478 5 is_stmt 1 view .LVU650
 479:armwave.c     **** 
 2629              		.loc 1 479 5 view .LVU651
 481:armwave.c     ****     g_armwave_state.test_wave_buffer_nsets = sets;
 2630              		.loc 1 481 5 view .LVU652
 2631              		.loc 1 482 5 view .LVU653
 483:armwave.c     ****     armwave_test_buffer_alloc(sets);
 2632              		.loc 1 483 5 view .LVU654
 2633              	.LBB47:
 2634              	.LBI41:
 422:armwave.c     **** {
 2635              		.loc 1 422 6 view .LVU655
 2636              	.LBB44:
 424:armwave.c     ****         free(g_armwave_state.test_wave_buffer);
 2637              		.loc 1 424 5 view .LVU656
 2638              	@ armwave.c:424:     if(g_armwave_state.test_wave_buffer != NULL) {
 424:armwave.c     ****         free(g_armwave_state.test_wave_buffer);
 2639              		.loc 1 424 7 is_stmt 0 view .LVU657
 2640 0ba4 0000000A 		beq	.L147		@,
 425:armwave.c     ****     }
 2641              		.loc 1 425 9 is_stmt 1 view .LVU658
 2642 0ba8 FEFFFFEB 		bl	free		@
 2643              	.LVL162:
 2644              	.L147:
 430:armwave.c     **** 
 2645              		.loc 1 430 5 view .LVU659
 2646              	@ armwave.c:430:     g_armwave_state.test_wave_buffer = calloc(g_armwave_state.wave_length * g_armw
 430:armwave.c     **** 
 2647              		.loc 1 430 75 is_stmt 0 view .LVU660
 2648 0bac 4C3095E5 		ldr	r3, [r5, #76]	@ g_armwave_state.wave_length, g_armwave_state.wave_length
 2649 0bb0 3C4095E5 		ldr	r4, [r5, #60]	@ g_armwave_state.waves_max, g_armwave_state.waves_max
 2650              	@ armwave.c:430:     g_armwave_state.test_wave_buffer = calloc(g_armwave_state.wave_length * g_armw
 430:armwave.c     **** 
 2651              		.loc 1 430 40 view .LVU661
 2652 0bb4 0910A0E1 		mov	r1, r9	@, sets
 2653              	@ armwave.c:430:     g_armwave_state.test_wave_buffer = calloc(g_armwave_state.wave_length * g_armw
 430:armwave.c     **** 
 2654              		.loc 1 430 75 view .LVU662
 2655 0bb8 940304E0 		mul	r4, r4, r3	@ _85, g_armwave_state.waves_max, g_armwave_state.wave_length
 2656              	@ armwave.c:430:     g_armwave_state.test_wave_buffer = calloc(g_armwave_state.wave_length * g_armw
 430:armwave.c     **** 
 2657              		.loc 1 430 40 view .LVU663
 2658 0bbc 0400A0E1 		mov	r0, r4	@, _85
 2659 0bc0 FEFFFFEB 		bl	calloc		@
 2660              	.LVL163:
 2661              	@ armwave.c:432:     if(g_armwave_state.test_wave_buffer == NULL) {
 432:armwave.c     ****         printf("armwave_test_buffer_alloc: failed to allocate test wave buffer (%d bytes, %d sets)\
 2662              		.loc 1 432 7 view .LVU664
 2663 0bc4 000050E3 		cmp	r0, #0	@ tmp191,
 2664              	@ armwave.c:430:     g_armwave_state.test_wave_buffer = calloc(g_armwave_state.wave_length * g_armw
 430:armwave.c     **** 
 2665              		.loc 1 430 38 view .LVU665
 2666 0bc8 180085E5 		str	r0, [r5, #24]	@ tmp191, g_armwave_state.test_wave_buffer
 432:armwave.c     ****         printf("armwave_test_buffer_alloc: failed to allocate test wave buffer (%d bytes, %d sets)\
 2667              		.loc 1 432 5 is_stmt 1 view .LVU666
 2668              	@ armwave.c:432:     if(g_armwave_state.test_wave_buffer == NULL) {
 432:armwave.c     ****         printf("armwave_test_buffer_alloc: failed to allocate test wave buffer (%d bytes, %d sets)\
 2669              		.loc 1 432 7 is_stmt 0 view .LVU667
 2670 0bcc 5A00000A 		beq	.L176		@,
 2671              	.L148:
 2672              	.LVL164:
 432:armwave.c     ****         printf("armwave_test_buffer_alloc: failed to allocate test wave buffer (%d bytes, %d sets)\
 2673              		.loc 1 432 7 view .LVU668
 2674              	.LBE44:
 2675              	.LBE47:
 2676              	@ armwave.c:485:     for(s = 0; s < sets; s++) {
 484:armwave.c     **** 
 485:armwave.c     ****     for(s = 0; s < sets; s++) {
 2677              		.loc 1 485 5 discriminator 1 view .LVU669
 2678 0bd0 000059E3 		cmp	r9, #0	@ sets,
 2679 0bd4 550000DA 		ble	.L146		@,
 2680              	@ armwave.c:504:                 v = (sin((6.28f * x * (1.0f / g_armwave_state.wave_length)) + xnoi
 486:armwave.c     ****         printf("Calculating test set %d\n", s);
 487:armwave.c     ****     
 488:armwave.c     ****         for(w = 0; w < g_armwave_state.waves; w++) {
 489:armwave.c     ****             //mod_val = 0.5f + (((float)w / g_armwave_state.waves) * mod);
 490:armwave.c     ****             mod_val = 0.5f + (_1_waves_mod * w);
 491:armwave.c     **** 
 492:armwave.c     ****             for(x = 0; x < g_armwave_state.wave_length; x++) {
 493:armwave.c     ****                 noise  = ((rand() & 0xffff) * noise_fraction);
 494:armwave.c     ****                 noise *= noise;
 495:armwave.c     ****                 noise *= noise;
 496:armwave.c     ****                 noise *= noise;
 497:armwave.c     **** 
 498:armwave.c     ****                 if((rand() & 0xffff) > 0x7fff)
 499:armwave.c     ****                     noise = -noise;
 500:armwave.c     **** 
 501:armwave.c     ****                 noise += 1.0f;
 502:armwave.c     ****                 xnoise = (rand() & 0xffff) / 6553500.0f;
 503:armwave.c     **** 
 504:armwave.c     ****                 v = (sin((6.28f * x * (1.0f / g_armwave_state.wave_length)) + xnoise) * mod_val) * 
 2681              		.loc 1 504 45 view .LVU670
 2682 0bd8 5C8A9FED 		vldr.32	s16, .L177	@ tmp258,
 2683              	@ armwave.c:507:                 g_armwave_state.test_wave_buffer[x + (w * g_armwave_state.wave_str
 505:armwave.c     ****                 //v = ((x & 0xff) / 128.0f) - 1.0f;
 506:armwave.c     ****                 //printf("%d = %d\n", x + (w * g_armwave_state.wave_stride), MIN(MAX(128 + (v * 127
 507:armwave.c     ****                 g_armwave_state.test_wave_buffer[x + (w * g_armwave_state.wave_stride) + set_offset
 2684              		.loc 1 507 104 view .LVU671
 2685 0bdc 5CCA9FED 		vldr.32	s24, .L177+4	@ tmp259,
 2686              	@ armwave.c:485:     for(s = 0; s < sets; s++) {
 485:armwave.c     ****         printf("Calculating test set %d\n", s);
 2687              		.loc 1 485 5 view .LVU672
 2688 0be0 0070A0E3 		mov	r7, #0	@ set_offset,
 2689              	@ armwave.c:486:         printf("Calculating test set %d\n", s);
 486:armwave.c     ****         printf("Calculating test set %d\n", s);
 2690              		.loc 1 486 9 view .LVU673
 2691 0be4 84A19FE5 		ldr	r10, .L177+32	@ tmp257,
 2692              	@ armwave.c:485:     for(s = 0; s < sets; s++) {
 485:armwave.c     ****         printf("Calculating test set %d\n", s);
 2693              		.loc 1 485 5 view .LVU674
 2694 0be8 0780A0E1 		mov	r8, r7	@ s, set_offset
 2695              	.LVL165:
 2696              	.L149:
 486:armwave.c     ****         printf("Calculating test set %d\n", s);
 2697              		.loc 1 486 9 is_stmt 1 view .LVU675
 2698 0bec 0810A0E1 		mov	r1, r8	@, s
 2699 0bf0 0A00A0E1 		mov	r0, r10	@, tmp257
 2700 0bf4 FEFFFFEB 		bl	printf		@
 2701              	.LVL166:
 488:armwave.c     ****             //mod_val = 0.5f + (((float)w / g_armwave_state.waves) * mod);
 2702              		.loc 1 488 9 view .LVU676
 2703              	@ armwave.c:488:         for(w = 0; w < g_armwave_state.waves; w++) {
 488:armwave.c     ****             //mod_val = 0.5f + (((float)w / g_armwave_state.waves) * mod);
 2704              		.loc 1 488 39 is_stmt 0 view .LVU677
 2705 0bf8 382095E5 		ldr	r2, [r5, #56]	@ prephitmp_120, g_armwave_state.waves
 2706              	@ armwave.c:488:         for(w = 0; w < g_armwave_state.waves; w++) {
 488:armwave.c     ****             //mod_val = 0.5f + (((float)w / g_armwave_state.waves) * mod);
 2707              		.loc 1 488 9 view .LVU678
 2708 0bfc 000052E3 		cmp	r2, #0	@ prephitmp_120,
 2709 0c00 450000DA 		ble	.L150		@,
 2710              	@ armwave.c:490:             mod_val = 0.5f + (_1_waves_mod * w);
 490:armwave.c     **** 
 2711              		.loc 1 490 21 view .LVU679
 2712 0c04 53CADFED 		vldr.32	s25, .L177+8	@ tmp200,
 2713              	@ armwave.c:504:                 v = (sin((6.28f * x * (1.0f / g_armwave_state.wave_length)) + xnoi
 504:armwave.c     ****                 //v = ((x & 0xff) / 128.0f) - 1.0f;
 2714              		.loc 1 504 33 view .LVU680
 2715 0c08 53BA9FED 		vldr.32	s22, .L177+12	@ tmp253,
 2716              	@ armwave.c:502:                 xnoise = (rand() & 0xffff) / 6553500.0f;
 502:armwave.c     **** 
 2717              		.loc 1 502 24 view .LVU681
 2718 0c0c 53AADFED 		vldr.32	s21, .L177+16	@ tmp254,
 2719 0c10 4C3095E5 		ldr	r3, [r5, #76]	@ prephitmp_124, g_armwave_state.wave_length
 2720              	@ armwave.c:488:         for(w = 0; w < g_armwave_state.waves; w++) {
 488:armwave.c     ****             //mod_val = 0.5f + (((float)w / g_armwave_state.waves) * mod);
 2721              		.loc 1 488 15 view .LVU682
 2722 0c14 0060A0E3 		mov	r6, #0	@ w,
 2723              	.LVL167:
 2724              	.L157:
 490:armwave.c     **** 
 2725              		.loc 1 490 13 is_stmt 1 view .LVU683
 2726              	@ armwave.c:490:             mod_val = 0.5f + (_1_waves_mod * w);
 490:armwave.c     **** 
 2727              		.loc 1 490 21 is_stmt 0 view .LVU684
 2728 0c18 906A07EE 		vmov	s15, r6	@ int	@ w, w
 2729 0c1c 6C9AB0EE 		vmov.f32	s18, s25	@ mod_val, tmp200
 2730              	@ armwave.c:492:             for(x = 0; x < g_armwave_state.wave_length; x++) {
 492:armwave.c     ****                 noise  = ((rand() & 0xffff) * noise_fraction);
 2731              		.loc 1 492 13 view .LVU685
 2732 0c20 000053E3 		cmp	r3, #0	@ prephitmp_124,
 2733              	@ armwave.c:490:             mod_val = 0.5f + (_1_waves_mod * w);
 490:armwave.c     **** 
 2734              		.loc 1 490 21 view .LVU686
 2735 0c24 E77AF8EE 		vcvt.f32.s32	s15, s15	@ tmp198, w
 2736 0c28 8D9A07EE 		vmla.f32	s18, s15, s26	@ mod_val, tmp198, _1_waves_mod
 2737              	.LVL168:
 492:armwave.c     ****                 noise  = ((rand() & 0xffff) * noise_fraction);
 2738              		.loc 1 492 13 is_stmt 1 view .LVU687
 492:armwave.c     ****                 noise  = ((rand() & 0xffff) * noise_fraction);
 2739              		.loc 1 492 13 is_stmt 0 view .LVU688
 2740 0c2c 370000DA 		ble	.L151		@,
 2741 0c30 C99AB7EE 		vcvt.f64.f32	d9, s18	@ tmp249, mod_val
 2742              	@ armwave.c:507:                 g_armwave_state.test_wave_buffer[x + (w * g_armwave_state.wave_str
 2743              		.loc 1 507 113 view .LVU689
 2744 0c34 4AAA9FED 		vldr.32	s20, .L177+20	@ tmp229,
 2745 0c38 4A8ADFED 		vldr.32	s17, .L177+24	@ tmp230,
 2746              	@ armwave.c:492:             for(x = 0; x < g_armwave_state.wave_length; x++) {
 492:armwave.c     ****                 noise  = ((rand() & 0xffff) * noise_fraction);
 2747              		.loc 1 492 19 view .LVU690
 2748 0c3c 0040A0E3 		mov	r4, #0	@ x,
 2749              	.LVL169:
 2750              	.L156:
 493:armwave.c     ****                 noise *= noise;
 2751              		.loc 1 493 17 is_stmt 1 view .LVU691
 2752              	@ armwave.c:493:                 noise  = ((rand() & 0xffff) * noise_fraction);
 493:armwave.c     ****                 noise *= noise;
 2753              		.loc 1 493 28 is_stmt 0 view .LVU692
 2754 0c40 FEFFFFEB 		bl	rand		@
 2755              	.LVL170:
 2756              	@ armwave.c:493:                 noise  = ((rand() & 0xffff) * noise_fraction);
 493:armwave.c     ****                 noise *= noise;
 2757              		.loc 1 493 35 view .LVU693
 2758 0c44 7000FFE6 		uxth	r0, r0	@ tmp201,
 2759              	@ armwave.c:493:                 noise  = ((rand() & 0xffff) * noise_fraction);
 493:armwave.c     ****                 noise *= noise;
 2760              		.loc 1 493 45 view .LVU694
 2761 0c48 900A07EE 		vmov	s15, r0	@ int	@ tmp201, tmp201
 2762 0c4c E77AF8EE 		vcvt.f32.s32	s15, s15	@ tmp203, tmp201
 2763              	@ armwave.c:493:                 noise  = ((rand() & 0xffff) * noise_fraction);
 493:armwave.c     ****                 noise *= noise;
 2764              		.loc 1 493 24 view .LVU695
 2765 0c50 AB7A67EE 		vmul.f32	s15, s15, s23	@ noise, tmp203, noise_fraction
 2766              	.LVL171:
 494:armwave.c     ****                 noise *= noise;
 2767              		.loc 1 494 17 is_stmt 1 view .LVU696
 2768              	@ armwave.c:494:                 noise *= noise;
 494:armwave.c     ****                 noise *= noise;
 2769              		.loc 1 494 23 is_stmt 0 view .LVU697
 2770 0c54 A77A67EE 		vmul.f32	s15, s15, s15	@ noise, noise, noise
 2771              	.LVL172:
 495:armwave.c     ****                 noise *= noise;
 2772              		.loc 1 495 17 is_stmt 1 view .LVU698
 2773              	@ armwave.c:495:                 noise *= noise;
 495:armwave.c     ****                 noise *= noise;
 2774              		.loc 1 495 23 is_stmt 0 view .LVU699
 2775 0c58 A77A67EE 		vmul.f32	s15, s15, s15	@ noise, noise, noise
 2776              	.LVL173:
 496:armwave.c     **** 
 2777              		.loc 1 496 17 is_stmt 1 view .LVU700
 2778              	@ armwave.c:496:                 noise *= noise;
 496:armwave.c     **** 
 2779              		.loc 1 496 23 is_stmt 0 view .LVU701
 2780 0c5c A7DA67EE 		vmul.f32	s27, s15, s15	@ noise, noise, noise
 2781              	.LVL174:
 498:armwave.c     ****                     noise = -noise;
 2782              		.loc 1 498 17 is_stmt 1 view .LVU702
 2783              	@ armwave.c:498:                 if((rand() & 0xffff) > 0x7fff)
 498:armwave.c     ****                     noise = -noise;
 2784              		.loc 1 498 21 is_stmt 0 view .LVU703
 2785 0c60 FEFFFFEB 		bl	rand		@
 2786              	.LVL175:
 499:armwave.c     **** 
 2787              		.loc 1 499 21 is_stmt 1 view .LVU704
 2788              	@ armwave.c:498:                 if((rand() & 0xffff) > 0x7fff)
 498:armwave.c     ****                     noise = -noise;
 2789              		.loc 1 498 19 is_stmt 0 view .LVU705
 2790 0c64 020910E3 		tst	r0, #32768	@,
 2791              	@ armwave.c:499:                     noise = -noise;
 499:armwave.c     **** 
 2792              		.loc 1 499 27 view .LVU706
 2793 0c68 6DDAF11E 		vnegne.f32	s27, s27	@ noise, noise
 2794              	.LVL176:
 501:armwave.c     ****                 xnoise = (rand() & 0xffff) / 6553500.0f;
 2795              		.loc 1 501 17 is_stmt 1 view .LVU707
 502:armwave.c     **** 
 2796              		.loc 1 502 17 view .LVU708
 2797              	@ armwave.c:502:                 xnoise = (rand() & 0xffff) / 6553500.0f;
 502:armwave.c     **** 
 2798              		.loc 1 502 27 is_stmt 0 view .LVU709
 2799 0c6c FEFFFFEB 		bl	rand		@
 2800              	.LVL177:
 504:armwave.c     ****                 //v = ((x & 0xff) / 128.0f) - 1.0f;
 2801              		.loc 1 504 17 is_stmt 1 view .LVU710
 2802              	@ armwave.c:504:                 v = (sin((6.28f * x * (1.0f / g_armwave_state.wave_length)) + xnoi
 504:armwave.c     ****                 //v = ((x & 0xff) / 128.0f) - 1.0f;
 2803              		.loc 1 504 45 is_stmt 0 view .LVU711
 2804 0c70 137A95ED 		vldr.32	s14, [r5, #76]	@ int	@ tmp270, g_armwave_state.wave_length
 2805              	@ armwave.c:504:                 v = (sin((6.28f * x * (1.0f / g_armwave_state.wave_length)) + xnoi
 504:armwave.c     ****                 //v = ((x & 0xff) / 128.0f) - 1.0f;
 2806              		.loc 1 504 33 view .LVU712
 2807 0c74 904A07EE 		vmov	s15, r4	@ int	@ x, x
 2808              	@ armwave.c:504:                 v = (sin((6.28f * x * (1.0f / g_armwave_state.wave_length)) + xnoi
 504:armwave.c     ****                 //v = ((x & 0xff) / 128.0f) - 1.0f;
 2809              		.loc 1 504 45 view .LVU713
 2810 0c78 C77AB8EE 		vcvt.f32.s32	s14, s14	@ tmp206, tmp270
 2811              	@ armwave.c:504:                 v = (sin((6.28f * x * (1.0f / g_armwave_state.wave_length)) + xnoi
 504:armwave.c     ****                 //v = ((x & 0xff) / 128.0f) - 1.0f;
 2812              		.loc 1 504 33 view .LVU714
 2813 0c7c E77AF8EE 		vcvt.f32.s32	s15, s15	@ tmp210, x
 2814              	@ armwave.c:504:                 v = (sin((6.28f * x * (1.0f / g_armwave_state.wave_length)) + xnoi
 504:armwave.c     ****                 //v = ((x & 0xff) / 128.0f) - 1.0f;
 2815              		.loc 1 504 45 view .LVU715
 2816 0c80 076AC8EE 		vdiv.f32	s13, s16, s14	@ tmp208, tmp258, tmp206
 2817              	@ armwave.c:504:                 v = (sin((6.28f * x * (1.0f / g_armwave_state.wave_length)) + xnoi
 504:armwave.c     ****                 //v = ((x & 0xff) / 128.0f) - 1.0f;
 2818              		.loc 1 504 33 view .LVU716
 2819 0c84 8B7A67EE 		vmul.f32	s15, s15, s22	@ tmp211, tmp210, tmp253
 2820              	@ armwave.c:502:                 xnoise = (rand() & 0xffff) / 6553500.0f;
 502:armwave.c     **** 
 2821              		.loc 1 502 34 view .LVU717
 2822 0c88 7000FFE6 		uxth	r0, r0	@ tmp214,
 2823              	.LVL178:
 2824              	@ armwave.c:502:                 xnoise = (rand() & 0xffff) / 6553500.0f;
 502:armwave.c     **** 
 2825              		.loc 1 502 44 view .LVU718
 2826 0c8c 100A07EE 		vmov	s14, r0	@ int	@ tmp214, tmp214
 2827 0c90 C77AB8EE 		vcvt.f32.s32	s14, s14	@ tmp216, tmp214
 2828              	@ armwave.c:502:                 xnoise = (rand() & 0xffff) / 6553500.0f;
 502:armwave.c     **** 
 2829              		.loc 1 502 24 view .LVU719
 2830 0c94 2A0A87EE 		vdiv.f32	s0, s14, s21	@ xnoise, tmp216, tmp254
 2831              	@ armwave.c:504:                 v = (sin((6.28f * x * (1.0f / g_armwave_state.wave_length)) + xnoi
 504:armwave.c     ****                 //v = ((x & 0xff) / 128.0f) - 1.0f;
 2832              		.loc 1 504 77 view .LVU720
 2833 0c98 A70A06EE 		vmla.f32	s0, s13, s15	@ tmp219, tmp208, tmp211
 2834              	@ armwave.c:504:                 v = (sin((6.28f * x * (1.0f / g_armwave_state.wave_length)) + xnoi
 504:armwave.c     ****                 //v = ((x & 0xff) / 128.0f) - 1.0f;
 2835              		.loc 1 504 22 view .LVU721
 2836 0c9c C00AB7EE 		vcvt.f64.f32	d0, s0	@, tmp219
 2837 0ca0 FEFFFFEB 		bl	sin		@
 2838              	.LVL179:
 2839              		.loc 1 507 17 is_stmt 1 view .LVU722
 2840              	@ armwave.c:501:                 noise += 1.0f;
 501:armwave.c     ****                 xnoise = (rand() & 0xffff) / 6553500.0f;
 2841              		.loc 1 501 23 is_stmt 0 view .LVU723
 2842 0ca4 887A7DEE 		vadd.f32	s15, s27, s16	@ noise, noise, tmp258
 2843              	@ armwave.c:507:                 g_armwave_state.test_wave_buffer[x + (w * g_armwave_state.wave_str
 2844              		.loc 1 507 104 view .LVU724
 2845 0ca8 0010A0E3 		mov	r1, #0	@ iftmp.23_50,
 2846              	@ armwave.c:504:                 v = (sin((6.28f * x * (1.0f / g_armwave_state.wave_length)) + xnoi
 504:armwave.c     ****                 //v = ((x & 0xff) / 128.0f) - 1.0f;
 2847              		.loc 1 504 98 view .LVU725
 2848 0cac E77AB7EE 		vcvt.f64.f32	d7, s15	@ tmp225, noise
 2849              	@ armwave.c:504:                 v = (sin((6.28f * x * (1.0f / g_armwave_state.wave_length)) + xnoi
 504:armwave.c     ****                 //v = ((x & 0xff) / 128.0f) - 1.0f;
 2850              		.loc 1 504 87 view .LVU726
 2851 0cb0 000B29EE 		vmul.f64	d0, d9, d0	@ tmp222, tmp249,
 2852              	@ armwave.c:504:                 v = (sin((6.28f * x * (1.0f / g_armwave_state.wave_length)) + xnoi
 504:armwave.c     ****                 //v = ((x & 0xff) / 128.0f) - 1.0f;
 2853              		.loc 1 504 98 view .LVU727
 2854 0cb4 077B20EE 		vmul.f64	d7, d0, d7	@ tmp226, tmp222, tmp225
 2855              	@ armwave.c:504:                 v = (sin((6.28f * x * (1.0f / g_armwave_state.wave_length)) + xnoi
 504:armwave.c     ****                 //v = ((x & 0xff) / 128.0f) - 1.0f;
 2856              		.loc 1 504 19 view .LVU728
 2857 0cb8 C77BB7EE 		vcvt.f32.f64	s14, d7	@ v, tmp226
 2858              	@ armwave.c:507:                 g_armwave_state.test_wave_buffer[x + (w * g_armwave_state.wave_str
 2859              		.loc 1 507 113 view .LVU729
 2860 0cbc 687AF0EE 		vmov.f32	s15, s17	@ _33, tmp230
 2861 0cc0 0A7A47EE 		vmla.f32	s15, s14, s20	@ _33, v, tmp229
 2862 0cc4 C07AF5EE 		vcmpe.f32	s15, #0	@ _33
 2863 0cc8 10FAF1EE 		vmrs	APSR_nzcv, FPSCR
 2864 0ccc 050000DA 		ble	.L153		@,
 2865              	@ armwave.c:507:                 g_armwave_state.test_wave_buffer[x + (w * g_armwave_state.wave_str
 2866              		.loc 1 507 104 discriminator 1 view .LVU730
 2867 0cd0 CC7AF4EE 		vcmpe.f32	s15, s24	@ _33, tmp259
 2868 0cd4 FF10A0E3 		mov	r1, #255	@ iftmp.23_50,
 2869 0cd8 10FAF1EE 		vmrs	APSR_nzcv, FPSCR
 2870 0cdc E77AFC4E 		vcvtmi.u32.f32	s15, s15	@ tmp234, _33
 2871 0ce0 017ACD4D 		vstrmi.32	s15, [sp, #4]	@ int	@ tmp234, %sfp
 2872 0ce4 0410DD45 		ldrbmi	r1, [sp, #4]	@ zero_extendqisi2	@ iftmp.23_50, %sfp
 2873              	.L153:
 2874              	@ armwave.c:507:                 g_armwave_state.test_wave_buffer[x + (w * g_armwave_state.wave_str
 2875              		.loc 1 507 57 discriminator 12 view .LVU731
 2876 0ce8 342095E5 		ldr	r2, [r5, #52]	@ g_armwave_state.wave_stride, g_armwave_state.wave_stride
 2877              	@ armwave.c:507:                 g_armwave_state.test_wave_buffer[x + (w * g_armwave_state.wave_str
 2878              		.loc 1 507 102 discriminator 12 view .LVU732
 2879 0cec 183095E5 		ldr	r3, [r5, #24]	@ g_armwave_state.test_wave_buffer, g_armwave_state.test_wave_buffer
 2880 0cf0 927622E0 		mla	r2, r2, r6, r7	@ tmp241, g_armwave_state.wave_stride, w, set_offset
 2881 0cf4 043083E0 		add	r3, r3, r4	@ tmp240, g_armwave_state.test_wave_buffer, x
 2882              	@ armwave.c:492:             for(x = 0; x < g_armwave_state.wave_length; x++) {
 492:armwave.c     ****                 noise  = ((rand() & 0xffff) * noise_fraction);
 2883              		.loc 1 492 58 discriminator 12 view .LVU733
 2884 0cf8 014084E2 		add	r4, r4, #1	@ x, x,
 2885              	.LVL180:
 2886              	@ armwave.c:507:                 g_armwave_state.test_wave_buffer[x + (w * g_armwave_state.wave_str
 2887              		.loc 1 507 102 discriminator 12 view .LVU734
 2888 0cfc 0310C2E7 		strb	r1, [r2, r3]	@ iftmp.23_50, *_40
 2889              	@ armwave.c:492:             for(x = 0; x < g_armwave_state.wave_length; x++) {
 492:armwave.c     ****                 noise  = ((rand() & 0xffff) * noise_fraction);
 2890              		.loc 1 492 43 discriminator 12 view .LVU735
 2891 0d00 4C3095E5 		ldr	r3, [r5, #76]	@ prephitmp_124, g_armwave_state.wave_length
 2892              	@ armwave.c:492:             for(x = 0; x < g_armwave_state.wave_length; x++) {
 492:armwave.c     ****                 noise  = ((rand() & 0xffff) * noise_fraction);
 2893              		.loc 1 492 13 discriminator 12 view .LVU736
 2894 0d04 040053E1 		cmp	r3, r4	@ prephitmp_124, x
 2895 0d08 CCFFFFCA 		bgt	.L156		@,
 2896 0d0c 382095E5 		ldr	r2, [r5, #56]	@ prephitmp_120, g_armwave_state.waves
 2897              	.LVL181:
 2898              	.L151:
 2899              	@ armwave.c:488:         for(w = 0; w < g_armwave_state.waves; w++) {
 488:armwave.c     ****             //mod_val = 0.5f + (((float)w / g_armwave_state.waves) * mod);
 2900              		.loc 1 488 48 discriminator 2 view .LVU737
 2901 0d10 016086E2 		add	r6, r6, #1	@ w, w,
 2902              	.LVL182:
 2903              	@ armwave.c:488:         for(w = 0; w < g_armwave_state.waves; w++) {
 488:armwave.c     ****             //mod_val = 0.5f + (((float)w / g_armwave_state.waves) * mod);
 2904              		.loc 1 488 9 discriminator 2 view .LVU738
 2905 0d14 020056E1 		cmp	r6, r2	@ w, prephitmp_120
 2906 0d18 BEFFFFBA 		blt	.L157		@,
 2907              	.LVL183:
 2908              	.L150:
 508:armwave.c     ****             }
 509:armwave.c     ****         }
 510:armwave.c     **** 
 511:armwave.c     ****         set_offset += (g_armwave_state.waves * g_armwave_state.wave_stride);
 2909              		.loc 1 511 9 is_stmt 1 discriminator 2 view .LVU739
 2910              	@ armwave.c:511:         set_offset += (g_armwave_state.waves * g_armwave_state.wave_stride);
 2911              		.loc 1 511 46 is_stmt 0 discriminator 2 view .LVU740
 2912 0d1c 343095E5 		ldr	r3, [r5, #52]	@ g_armwave_state.wave_stride, g_armwave_state.wave_stride
 2913              	@ armwave.c:485:     for(s = 0; s < sets; s++) {
 485:armwave.c     ****         printf("Calculating test set %d\n", s);
 2914              		.loc 1 485 27 discriminator 2 view .LVU741
 2915 0d20 018088E2 		add	r8, r8, #1	@ s, s,
 2916              	.LVL184:
 2917              	@ armwave.c:485:     for(s = 0; s < sets; s++) {
 485:armwave.c     ****         printf("Calculating test set %d\n", s);
 2918              		.loc 1 485 5 discriminator 2 view .LVU742
 2919 0d24 080059E1 		cmp	r9, r8	@ sets, s
 2920              	@ armwave.c:511:         set_offset += (g_armwave_state.waves * g_armwave_state.wave_stride);
 2921              		.loc 1 511 20 discriminator 2 view .LVU743
 2922 0d28 937227E0 		mla	r7, r3, r2, r7	@ set_offset, g_armwave_state.wave_stride, prephitmp_120, set_offset
 2923              	.LVL185:
 2924              	@ armwave.c:485:     for(s = 0; s < sets; s++) {
 485:armwave.c     ****         printf("Calculating test set %d\n", s);
 2925              		.loc 1 485 5 discriminator 2 view .LVU744
 2926 0d2c AEFFFF1A 		bne	.L149		@,
 2927              	.LVL186:
 2928              	.L146:
 2929              	@ armwave.c:513: }
 512:armwave.c     ****     }
 513:armwave.c     **** }
 2930              		.loc 1 513 1 view .LVU745
 2931 0d30 08D08DE2 		add	sp, sp, #8	@,,
 2932              		.cfi_remember_state
 2933              		.cfi_def_cfa_offset 80
 2934              		@ sp needed	@
 2935 0d34 0C8BBDEC 		vldm	sp!, {d8-d13}	@,
 2936              		.cfi_restore 90
 2937              		.cfi_restore 91
 2938              		.cfi_restore 88
 2939              		.cfi_restore 89
 2940              		.cfi_restore 86
 2941              		.cfi_restore 87
 2942              		.cfi_restore 84
 2943              		.cfi_restore 85
 2944              		.cfi_restore 82
 2945              		.cfi_restore 83
 2946              		.cfi_restore 80
 2947              		.cfi_restore 81
 2948              		.cfi_def_cfa_offset 32
 2949              	.LVL187:
 2950              		.loc 1 513 1 view .LVU746
 2951 0d38 F087BDE8 		pop	{r4, r5, r6, r7, r8, r9, r10, pc}	@
 2952              	.LVL188:
 2953              	.L176:
 2954              		.cfi_restore_state
 2955              	.LBB48:
 2956              	.LBB45:
 433:armwave.c     ****             g_armwave_state.wave_length * g_armwave_state.waves_max * nsets, nsets);
 2957              		.loc 1 433 9 is_stmt 1 view .LVU747
 2958 0d3c 940901E0 		mul	r1, r4, r9	@, _85, sets
 2959 0d40 0920A0E1 		mov	r2, r9	@, sets
 2960 0d44 28009FE5 		ldr	r0, .L177+36	@,
 2961 0d48 FEFFFFEB 		bl	printf		@
 2962              	.LVL189:
 435:armwave.c     ****     }
 2963              		.loc 1 435 9 view .LVU748
 2964 0d4c 9FFFFFEA 		b	.L148		@
 2965              	.L178:
 2966              		.align	2
 2967              	.L177:
 2968 0d50 0000803F 		.word	1065353216
 2969 0d54 00007F43 		.word	1132396544
 2970 0d58 0000003F 		.word	1056964608
 2971 0d5c C3F5C840 		.word	1086911939
 2972 0d60 38FFC74A 		.word	1254620984
 2973 0d64 0000FE42 		.word	1123942400
 2974 0d68 00000043 		.word	1124073472
 2975 0d6c 00000000 		.word	g_armwave_state
 2976 0d70 7C020000 		.word	.LC19
 2977 0d74 D4010000 		.word	.LC17
 2978              	.LBE45:
 2979              	.LBE48:
 2980              		.cfi_endproc
 2981              	.LFE75:
 2983              		.align	2
 2984              		.global	armwave_cleanup
 2985              		.syntax unified
 2986              		.arm
 2987              		.fpu vfp
 2989              	armwave_cleanup:
 2990              	.LFB76:
 514:armwave.c     **** 
 515:armwave.c     **** /*
 516:armwave.c     ****  * Make a test square waveform.
 517:armwave.c     ****  *
 518:armwave.c     ****  * @param   noise_fraction      typically 1e-6
 519:armwave.c     ****  */
 520:armwave.c     **** #if 0
 521:armwave.c     **** void armwave_test_create_square(float noise_fraction)
 522:armwave.c     **** {
 523:armwave.c     ****     uint8_t v;
 524:armwave.c     ****     float noise, xnoise;
 525:armwave.c     ****     float level = 0.8f, new_level = 0.8f;
 526:armwave.c     ****     int w, x;
 527:armwave.c     **** 
 528:armwave.c     ****     for(w = 0; w < g_armwave_state.waves; w++) {
 529:armwave.c     ****         for(x = 0; x < g_armwave_state.wave_length; x++) {
 530:armwave.c     ****             noise  = ((rand() & 0xffff) * noise_fraction);
 531:armwave.c     ****             noise *= noise;
 532:armwave.c     ****             noise *= noise;
 533:armwave.c     ****             noise *= noise;
 534:armwave.c     **** 
 535:armwave.c     ****             if((rand() & 0xff) > 0x7f)
 536:armwave.c     ****                 noise = -noise;
 537:armwave.c     **** 
 538:armwave.c     ****             //noise += 1.0f;
 539:armwave.c     **** 
 540:armwave.c     ****             if(x > (g_armwave_state.wave_length * 0.75f)) {
 541:armwave.c     ****                 new_level = 0.2f;
 542:armwave.c     ****             } else if(x > (g_armwave_state.wave_length * 0.5f)) {
 543:armwave.c     ****                 new_level = 0.8f;
 544:armwave.c     ****             } else if(x > (g_armwave_state.wave_length * 0.25f)) {
 545:armwave.c     ****                 new_level = 0.2f;
 546:armwave.c     ****             } else {
 547:armwave.c     ****                 new_level = 0.8f;
 548:armwave.c     ****             }
 549:armwave.c     **** 
 550:armwave.c     ****             level = ((level * 3) + new_level) * 0.25f;
 551:armwave.c     **** 
 552:armwave.c     ****             v = (uint8_t)(CLAMP(level + noise, 0.0f, 1.0f) * 255);
 553:armwave.c     ****             g_armwave_state.test_wave_buffer[x + (w * g_armwave_state.wave_stride)] = v;
 554:armwave.c     ****         }
 555:armwave.c     ****     }
 556:armwave.c     **** }
 557:armwave.c     **** #endif
 558:armwave.c     **** 
 559:armwave.c     **** /*
 560:armwave.c     ****  * Free all buffers and set to NULL, ready to be reinitialised or stopped.
 561:armwave.c     ****  */
 562:armwave.c     **** void armwave_cleanup()
 563:armwave.c     **** {
 2991              		.loc 1 563 1 view -0
 2992              		.cfi_startproc
 2993              		@ args = 0, pretend = 0, frame = 0
 2994              		@ frame_needed = 0, uses_anonymous_args = 0
 564:armwave.c     ****     free(g_armwave_state.out_pixbuf);
 2995              		.loc 1 564 5 view .LVU750
 2996              	@ armwave.c:563: {
 563:armwave.c     ****     free(g_armwave_state.out_pixbuf);
 2997              		.loc 1 563 1 is_stmt 0 view .LVU751
 2998 0d78 10402DE9 		push	{r4, lr}	@
 2999              		.cfi_def_cfa_offset 8
 3000              		.cfi_offset 4, -8
 3001              		.cfi_offset 14, -4
 3002              	@ armwave.c:564:     free(g_armwave_state.out_pixbuf);
 3003              		.loc 1 564 25 view .LVU752
 3004 0d7c 34409FE5 		ldr	r4, .L181	@ tmp114,
 3005              	@ armwave.c:564:     free(g_armwave_state.out_pixbuf);
 3006              		.loc 1 564 5 view .LVU753
 3007 0d80 680094E5 		ldr	r0, [r4, #104]	@, g_armwave_state.out_pixbuf
 3008 0d84 FEFFFFEB 		bl	free		@
 3009              	.LVL190:
 565:armwave.c     ****     free(g_armwave_state.ch1_buffer);
 3010              		.loc 1 565 5 is_stmt 1 view .LVU754
 3011 0d88 040094E5 		ldr	r0, [r4, #4]	@, g_armwave_state.ch1_buffer
 3012 0d8c FEFFFFEB 		bl	free		@
 3013              	.LVL191:
 566:armwave.c     ****     free(g_armwave_state.xcoord_to_xpixel);
 3014              		.loc 1 566 5 view .LVU755
 3015 0d90 840094E5 		ldr	r0, [r4, #132]	@, g_armwave_state.xcoord_to_xpixel
 3016 0d94 FEFFFFEB 		bl	free		@
 3017              	.LVL192:
 567:armwave.c     ****     free(g_armwave_state.test_wave_buffer);
 3018              		.loc 1 567 5 view .LVU756
 3019 0d98 180094E5 		ldr	r0, [r4, #24]	@, g_armwave_state.test_wave_buffer
 3020 0d9c FEFFFFEB 		bl	free		@
 3021              	.LVL193:
 568:armwave.c     **** 
 569:armwave.c     ****     g_armwave_state.out_pixbuf = NULL;
 3022              		.loc 1 569 5 view .LVU757
 3023              	@ armwave.c:569:     g_armwave_state.out_pixbuf = NULL;
 3024              		.loc 1 569 32 is_stmt 0 view .LVU758
 3025 0da0 0030A0E3 		mov	r3, #0	@ tmp123,
 3026 0da4 683084E5 		str	r3, [r4, #104]	@ tmp123, g_armwave_state.out_pixbuf
 570:armwave.c     ****     g_armwave_state.ch1_buffer = NULL;
 3027              		.loc 1 570 5 is_stmt 1 view .LVU759
 3028              	@ armwave.c:570:     g_armwave_state.ch1_buffer = NULL;
 3029              		.loc 1 570 32 is_stmt 0 view .LVU760
 3030 0da8 043084E5 		str	r3, [r4, #4]	@ tmp123, g_armwave_state.ch1_buffer
 571:armwave.c     ****     g_armwave_state.xcoord_to_xpixel = NULL;
 3031              		.loc 1 571 5 is_stmt 1 view .LVU761
 3032              	@ armwave.c:571:     g_armwave_state.xcoord_to_xpixel = NULL;
 3033              		.loc 1 571 38 is_stmt 0 view .LVU762
 3034 0dac 843084E5 		str	r3, [r4, #132]	@ tmp123, g_armwave_state.xcoord_to_xpixel
 572:armwave.c     ****     g_armwave_state.test_wave_buffer = NULL;
 3035              		.loc 1 572 5 is_stmt 1 view .LVU763
 3036              	@ armwave.c:572:     g_armwave_state.test_wave_buffer = NULL;
 3037              		.loc 1 572 38 is_stmt 0 view .LVU764
 3038 0db0 183084E5 		str	r3, [r4, #24]	@ tmp123, g_armwave_state.test_wave_buffer
 3039              	@ armwave.c:573: }
 573:armwave.c     **** }
 3040              		.loc 1 573 1 view .LVU765
 3041 0db4 1080BDE8 		pop	{r4, pc}	@
 3042              	.L182:
 3043              		.align	2
 3044              	.L181:
 3045 0db8 00000000 		.word	g_armwave_state
 3046              		.cfi_endproc
 3047              	.LFE76:
 3049              		.comm	gamma_table,256,4
 3050              		.comm	g_armwave_state,136,4
 3051              		.section	.rodata
 3052              		.align	2
 3053              		.set	.LANCHOR0,. + 0
 3056              	__PRETTY_FUNCTION__.17124:
 3057 0000 61726D77 		.ascii	"armwave_setup_render\000"
 3057      6176655F 
 3057      73657475 
 3057      705F7265 
 3057      6E646572 
 3058 0015 000000   		.space	3
 3061              	__PRETTY_FUNCTION__.17131:
 3062 0018 61726D77 		.ascii	"armwave_set_wave_pointer\000"
 3062      6176655F 
 3062      7365745F 
 3062      77617665 
 3062      5F706F69 
 3063 0031 000000   		.space	3
 3066              	__PRETTY_FUNCTION__.17138:
 3067 0034 61726D77 		.ascii	"armwave_set_wave_pointer_u32\000"
 3067      6176655F 
 3067      7365745F 
 3067      77617665 
 3067      5F706F69 
 3068              		.section	.rodata.str1.4,"aMS",%progbits,1
 3069              		.align	2
 3070              	.LC0:
 3071 0000 76302E30 		.ascii	"v0.0.1\000"
 3071      2E3100
 3072 0007 00       		.space	1
 3073              	.LC1:
 3074 0008 61726D77 		.ascii	"armwave version: %s\012\000"
 3074      61766520 
 3074      76657273 
 3074      696F6E3A 
 3074      2025730A 
 3075 001d 000000   		.space	3
 3076              	.LC2:
 3077 0020 733D2564 		.ascii	"s=%d e=%d w=%d ws=%d tw=%d th=%d rf=0x%08x\012\000"
 3077      20653D25 
 3077      6420773D 
 3077      25642077 
 3077      733D2564 
 3078              	.LC3:
 3079 004c 61726D77 		.ascii	"armwave.c\000"
 3079      6176652E 
 3079      6300
 3080 0056 0000     		.space	2
 3081              	.LC4:
 3082 0058 73746172 		.ascii	"start_point < end_point\000"
 3082      745F706F 
 3082      696E7420 
 3082      3C20656E 
 3082      645F706F 
 3083              	.LC5:
 3084 0070 63685F62 		.ascii	"ch_buff_size=%d, cmp_x_bitdepth_scale=%d (0x%08x), "
 3084      7566665F 
 3084      73697A65 
 3084      3D25642C 
 3084      20636D70 
 3085 00a3 74617267 		.ascii	"targ_width=%d, wave_length=%d, scaler=%d\012\000"
 3085      5F776964 
 3085      74683D25 
 3085      642C2077 
 3085      6176655F 
 3086 00cd 000000   		.space	3
 3087              	.LC6:
 3088 00d0 675F6172 		.ascii	"g_armwave_state.ch1_buffer != NULL\000"
 3088      6D776176 
 3088      655F7374 
 3088      6174652E 
 3088      6368315F 
 3089 00f3 00       		.space	1
 3090              	.LC7:
 3091 00f4 675F6172 		.ascii	"g_armwave_state.xcoord_to_xpixel != NULL\000"
 3091      6D776176 
 3091      655F7374 
 3091      6174652E 
 3091      78636F6F 
 3092 011d 000000   		.space	3
 3093              	.LC8:
 3094 0120 50747273 		.ascii	"Ptrs: 0x%08x 0x%08x 0x%08x 0x%08x \012\000"
 3094      3A203078 
 3094      25303878 
 3094      20307825 
 3094      30387820 
 3095              	.LC9:
 3096 0144 77617665 		.ascii	"wave_buffer != NULL\000"
 3096      5F627566 
 3096      66657220 
 3096      213D204E 
 3096      554C4C00 
 3097              	.LC10:
 3098 0158 61726D77 		.ascii	"armwave_set_wave_pointer_as_testbuf: error, nsets e"
 3098      6176655F 
 3098      7365745F 
 3098      77617665 
 3098      5F706F69 
 3099 018b 78636565 		.ascii	"xceeded\000"
 3099      64656400 
 3100 0193 00       		.space	1
 3101              	.LC11:
 3102 0194 77617665 		.ascii	"wave_buffer_ptr != 0\000"
 3102      5F627566 
 3102      6665725F 
 3102      70747220 
 3102      213D2030 
 3103 01a9 000000   		.space	3
 3104              	.LC12:
 3105 01ac 776200   		.ascii	"wb\000"
 3106 01af 00       		.space	1
 3107              	.LC13:
 3108 01b0 50330A00 		.ascii	"P3\012\000"
 3109              	.LC14:
 3110 01b4 25642025 		.ascii	"%d %d\012\000"
 3110      640A00
 3111 01bb 00       		.space	1
 3112              	.LC15:
 3113 01bc 3235350A 		.ascii	"255\012\000"
 3113      00
 3114 01c1 000000   		.space	3
 3115              	.LC16:
 3116 01c4 25336420 		.ascii	"%3d %3d %3d\012\000"
 3116      25336420 
 3116      2533640A 
 3116      00
 3117 01d1 000000   		.space	3
 3118              	.LC17:
 3119 01d4 61726D77 		.ascii	"armwave_test_buffer_alloc: failed to allocate test "
 3119      6176655F 
 3119      74657374 
 3119      5F627566 
 3119      6665725F 
 3120 0207 77617665 		.ascii	"wave buffer (%d bytes, %d sets)\012\000"
 3120      20627566 
 3120      66657220 
 3120      28256420 
 3120      62797465 
 3121              	.LC18:
 3122 0228 61726D77 		.ascii	"armwave_fill_pixbuf_into_pybuffer: PyObject_GetBuff"
 3122      6176655F 
 3122      66696C6C 
 3122      5F706978 
 3122      6275665F 
 3123 025b 65722829 		.ascii	"er() failed, returning PyFalse\000"
 3123      20666169 
 3123      6C65642C 
 3123      20726574 
 3123      75726E69 
 3124 027a 0000     		.space	2
 3125              	.LC19:
 3126 027c 43616C63 		.ascii	"Calculating test set %d\012\000"
 3126      756C6174 
 3126      696E6720 
 3126      74657374 
 3126      20736574 
 3127              		.text
 3128              	.Letext0:
 3129              		.file 3 "/usr/lib/gcc/arm-linux-gnueabihf/8/include/stddef.h"
 3130              		.file 4 "/usr/include/arm-linux-gnueabihf/bits/types.h"
 3131              		.file 5 "/usr/include/arm-linux-gnueabihf/bits/types/struct_FILE.h"
 3132              		.file 6 "/usr/include/arm-linux-gnueabihf/bits/types/FILE.h"
 3133              		.file 7 "/usr/include/stdio.h"
 3134              		.file 8 "/usr/include/arm-linux-gnueabihf/bits/sys_errlist.h"
 3135              		.file 9 "/usr/include/errno.h"
 3136              		.file 10 "/usr/include/arm-linux-gnueabihf/bits/stdint-intn.h"
 3137              		.file 11 "/usr/include/unistd.h"
 3138              		.file 12 "/usr/include/arm-linux-gnueabihf/bits/getopt_core.h"
 3139              		.file 13 "/usr/include/arm-linux-gnueabihf/bits/stdint-uintn.h"
 3140              		.file 14 "/usr/local/include/python3.8/pyport.h"
 3141              		.file 15 "/usr/include/math.h"
 3142              		.file 16 "/usr/include/arm-linux-gnueabihf/sys/time.h"
 3143              		.file 17 "/usr/include/time.h"
 3144              		.file 18 "/usr/local/include/python3.8/pymem.h"
 3145              		.file 19 "/usr/local/include/python3.8/cpython/object.h"
 3146              		.file 20 "/usr/local/include/python3.8/methodobject.h"
 3147              		.file 21 "/usr/local/include/python3.8/descrobject.h"
 3148              		.file 22 "/usr/local/include/python3.8/pyhash.h"
 3149              		.file 23 "/usr/local/include/python3.8/pydebug.h"
 3150              		.file 24 "/usr/local/include/python3.8/bytearrayobject.h"
 3151              		.file 25 "/usr/local/include/python3.8/bytesobject.h"
 3152              		.file 26 "/usr/local/include/python3.8/unicodeobject.h"
 3153              		.file 27 "/usr/local/include/python3.8/cpython/unicodeobject.h"
 3154              		.file 28 "/usr/local/include/python3.8/longintrepr.h"
 3155              		.file 29 "/usr/local/include/python3.8/longobject.h"
 3156              		.file 30 "/usr/local/include/python3.8/boolobject.h"
 3157              		.file 31 "/usr/local/include/python3.8/floatobject.h"
 3158              		.file 32 "/usr/local/include/python3.8/complexobject.h"
 3159              		.file 33 "/usr/local/include/python3.8/rangeobject.h"
 3160              		.file 34 "/usr/local/include/python3.8/memoryobject.h"
 3161              		.file 35 "/usr/local/include/python3.8/tupleobject.h"
 3162              		.file 36 "/usr/local/include/python3.8/listobject.h"
 3163              		.file 37 "/usr/local/include/python3.8/dictobject.h"
 3164              		.file 38 "/usr/local/include/python3.8/odictobject.h"
 3165              		.file 39 "/usr/local/include/python3.8/enumobject.h"
 3166              		.file 40 "/usr/local/include/python3.8/setobject.h"
 3167              		.file 41 "/usr/local/include/python3.8/moduleobject.h"
 3168              		.file 42 "/usr/local/include/python3.8/funcobject.h"
 3169              		.file 43 "/usr/local/include/python3.8/classobject.h"
 3170              		.file 44 "/usr/local/include/python3.8/fileobject.h"
 3171              		.file 45 "/usr/local/include/python3.8/cpython/fileobject.h"
 3172              		.file 46 "/usr/local/include/python3.8/pycapsule.h"
 3173              		.file 47 "/usr/local/include/python3.8/traceback.h"
 3174              		.file 48 "/usr/local/include/python3.8/sliceobject.h"
 3175              		.file 49 "/usr/local/include/python3.8/cellobject.h"
 3176              		.file 50 "/usr/local/include/python3.8/iterobject.h"
 3177              		.file 51 "/usr/local/include/python3.8/pystate.h"
 3178              		.file 52 "/usr/local/include/python3.8/cpython/pystate.h"
 3179              		.file 53 "/usr/local/include/python3.8/genobject.h"
 3180              		.file 54 "/usr/local/include/python3.8/weakrefobject.h"
 3181              		.file 55 "/usr/local/include/python3.8/structseq.h"
 3182              		.file 56 "/usr/local/include/python3.8/namespaceobject.h"
 3183              		.file 57 "/usr/local/include/python3.8/picklebufobject.h"
 3184              		.file 58 "/usr/local/include/python3.8/codecs.h"
 3185              		.file 59 "/usr/local/include/python3.8/pyerrors.h"
 3186              		.file 60 "/usr/local/include/python3.8/context.h"
 3187              		.file 61 "/usr/local/include/python3.8/modsupport.h"
 3188              		.file 62 "/usr/local/include/python3.8/code.h"
 3189              		.file 63 "/usr/local/include/python3.8/pythonrun.h"
 3190              		.file 64 "/usr/local/include/python3.8/ceval.h"
 3191              		.file 65 "/usr/local/include/python3.8/import.h"
 3192              		.file 66 "/usr/local/include/python3.8/bltinmodule.h"
 3193              		.file 67 "/usr/local/include/python3.8/pyctype.h"
 3194              		.file 68 "/usr/include/malloc.h"
 3195              		.file 69 "armwave.h"
 3196              		.file 70 "/usr/include/stdlib.h"
 3197              		.file 71 "/usr/local/include/python3.8/cpython/abstract.h"
 3198              		.file 72 "/usr/include/arm-linux-gnueabihf/bits/mathcalls.h"
 3199              		.file 73 "<built-in>"
 3200              		.file 74 "/usr/include/assert.h"
