   1              		.arch armv6
   2              		.eabi_attribute 28, 1	@ Tag_ABI_VFP_args
   3              		.eabi_attribute 20, 1	@ Tag_ABI_FP_denormal
   4              		.eabi_attribute 21, 1	@ Tag_ABI_FP_exceptions
   5              		.eabi_attribute 23, 3	@ Tag_ABI_FP_number_model
   6              		.eabi_attribute 24, 1	@ Tag_ABI_align8_needed
   7              		.eabi_attribute 25, 1	@ Tag_ABI_align8_preserved
   8              		.eabi_attribute 26, 2	@ Tag_ABI_enum_size
   9              		.eabi_attribute 30, 2	@ Tag_ABI_optimization_goals
  10              		.eabi_attribute 34, 1	@ Tag_CPU_unaligned_access
  11              		.eabi_attribute 18, 4	@ Tag_ABI_PCS_wchar_t
  12              		.file	"armwave.c"
  13              	@ GNU C17 (Raspbian 8.3.0-6+rpi1) version 8.3.0 (arm-linux-gnueabihf)
  14              	@	compiled by GNU C version 8.3.0, GMP version 6.1.2, MPFR version 4.0.2, MPC version 1.1.0, isl ve
  15              	
  16              	@ GGC heuristics: --param ggc-min-expand=81 --param ggc-min-heapsize=95638
  17              	@ options passed:  -I /usr/local/include/python3.8 -imultilib .
  18              	@ -imultiarch arm-linux-gnueabihf armwave.c -mfloat-abi=hard -mfpu=vfp
  19              	@ -mtls-dialect=gnu -marm -march=armv6+fp -auxbase-strip armwave.s -g -O3
  20              	@ -fverbose-asm -fwrapv
  21              	@ options enabled:  -faggressive-loop-optimizations -falign-jumps
  22              	@ -falign-labels -falign-loops -fauto-inc-dec -fbranch-count-reg
  23              	@ -fcaller-saves -fchkp-check-incomplete-type -fchkp-check-read
  24              	@ -fchkp-check-write -fchkp-instrument-calls -fchkp-narrow-bounds
  25              	@ -fchkp-optimize -fchkp-store-bounds -fchkp-use-static-bounds
  26              	@ -fchkp-use-static-const-bounds -fchkp-use-wrappers -fcode-hoisting
  27              	@ -fcombine-stack-adjustments -fcommon -fcompare-elim -fcprop-registers
  28              	@ -fcrossjumping -fcse-follow-jumps -fdefer-pop
  29              	@ -fdelete-null-pointer-checks -fdevirtualize -fdevirtualize-speculatively
  30              	@ -fdwarf2-cfi-asm -fearly-inlining -feliminate-unused-debug-types
  31              	@ -fexpensive-optimizations -fforward-propagate -ffp-int-builtin-inexact
  32              	@ -ffunction-cse -fgcse -fgcse-after-reload -fgcse-lm -fgnu-runtime
  33              	@ -fgnu-unique -fguess-branch-probability -fhoist-adjacent-loads -fident
  34              	@ -fif-conversion -fif-conversion2 -findirect-inlining -finline
  35              	@ -finline-atomics -finline-functions -finline-functions-called-once
  36              	@ -finline-small-functions -fipa-bit-cp -fipa-cp -fipa-cp-clone -fipa-icf
  37              	@ -fipa-icf-functions -fipa-icf-variables -fipa-profile -fipa-pure-const
  38              	@ -fipa-ra -fipa-reference -fipa-sra -fipa-vrp -fira-hoist-pressure
  39              	@ -fira-share-save-slots -fira-share-spill-slots
  40              	@ -fisolate-erroneous-paths-dereference -fivopts -fkeep-static-consts
  41              	@ -fleading-underscore -flifetime-dse -floop-interchange
  42              	@ -floop-unroll-and-jam -flra-remat -flto-odr-type-merging -fmath-errno
  43              	@ -fmerge-constants -fmerge-debug-strings -fmove-loop-invariants
  44              	@ -fomit-frame-pointer -foptimize-sibling-calls -foptimize-strlen
  45              	@ -fpartial-inlining -fpeel-loops -fpeephole -fpeephole2 -fplt
  46              	@ -fpredictive-commoning -fprefetch-loop-arrays -freg-struct-return
  47              	@ -freorder-blocks -freorder-functions -frerun-cse-after-loop
  48              	@ -fsched-critical-path-heuristic -fsched-dep-count-heuristic
  49              	@ -fsched-group-heuristic -fsched-interblock -fsched-last-insn-heuristic
  50              	@ -fsched-pressure -fsched-rank-heuristic -fsched-spec
  51              	@ -fsched-spec-insn-heuristic -fsched-stalled-insns-dep -fschedule-insns
  52              	@ -fschedule-insns2 -fsection-anchors -fsemantic-interposition
  53              	@ -fshow-column -fshrink-wrap -fshrink-wrap-separate -fsigned-zeros
  54              	@ -fsplit-ivs-in-unroller -fsplit-loops -fsplit-paths -fsplit-wide-types
  55              	@ -fssa-backprop -fssa-phiopt -fstdarg-opt -fstore-merging
  56              	@ -fstrict-aliasing -fstrict-volatile-bitfields -fsync-libcalls
  57              	@ -fthread-jumps -ftoplevel-reorder -ftrapping-math -ftree-bit-ccp
  58              	@ -ftree-builtin-call-dce -ftree-ccp -ftree-ch -ftree-coalesce-vars
  59              	@ -ftree-copy-prop -ftree-cselim -ftree-dce -ftree-dominator-opts
  60              	@ -ftree-dse -ftree-forwprop -ftree-fre -ftree-loop-distribute-patterns
  61              	@ -ftree-loop-distribution -ftree-loop-if-convert -ftree-loop-im
  62              	@ -ftree-loop-ivcanon -ftree-loop-optimize -ftree-loop-vectorize
  63              	@ -ftree-parallelize-loops= -ftree-partial-pre -ftree-phiprop -ftree-pre
  64              	@ -ftree-pta -ftree-reassoc -ftree-scev-cprop -ftree-sink
  65              	@ -ftree-slp-vectorize -ftree-slsr -ftree-sra -ftree-switch-conversion
  66              	@ -ftree-tail-merge -ftree-ter -ftree-vrp -funit-at-a-time -funswitch-loops
  67              	@ -fvar-tracking -fvar-tracking-assignments -fverbose-asm -fwrapv
  68              	@ -fzero-initialized-in-bss -marm -mbe32 -mglibc -mlittle-endian
  69              	@ -mpic-data-is-text-relative -msched-prolog -munaligned-access
  70              	@ -mvectorize-with-neon-quad
  71              	
  72              		.text
  73              	.Ltext0:
  74              		.cfi_sections	.debug_frame
  75              		.align	2
  76              		.arch armv6
  77              		.syntax unified
  78              		.arm
  79              		.fpu vfp
  81              	armwave_setup_render.constprop.1:
  82              	.LVL0:
  83              	.LFB73:
  84              		.file 1 "armwave.c"
   1:armwave.c     **** /*
   2:armwave.c     ****  * This file is part of YAOS and is licenced under the MIT Licence.
   3:armwave.c     ****  *
   4:armwave.c     ****  * armwave: an ARM-optimised waveform rendering engine for the Raspberry Pi 3.  
   5:armwave.c     ****  * This library attempts to use NEON tricks and architectural features of the Pi's
   6:armwave.c     ****  * processor to render waveforms damn quickly.
   7:armwave.c     ****  */
   8:armwave.c     **** 
   9:armwave.c     **** #define _GNU_SOURCE
  10:armwave.c     **** 
  11:armwave.c     **** #include <Python.h>
  12:armwave.c     **** 
  13:armwave.c     **** #include <assert.h>
  14:armwave.c     **** #include <ctype.h>
  15:armwave.c     **** #include <stdio.h>
  16:armwave.c     **** #include <stdint.h>
  17:armwave.c     **** #include <stdlib.h>
  18:armwave.c     **** #include <stdbool.h>
  19:armwave.c     **** #include <string.h>
  20:armwave.c     **** #include <math.h>
  21:armwave.c     **** 
  22:armwave.c     **** #include "armwave.h"
  23:armwave.c     **** 
  24:armwave.c     **** #define TEST_WAVE_SIZE              2048
  25:armwave.c     **** #define TEST_NWAVES                 64
  26:armwave.c     **** 
  27:armwave.c     **** #define ARMWAVE_VER                 "v0.0.1"
  28:armwave.c     **** 
  29:armwave.c     **** #define MAX(a,b)                  	((a) > (b) ? (a) : (b))
  30:armwave.c     **** #define MIN(a,b)                 	((a) < (b) ? (a) : (b))
  31:armwave.c     **** 
  32:armwave.c     **** #define CLAMP(x,mi,mx)            	MIN(MAX((x),mi),mx)
  33:armwave.c     **** 
  34:armwave.c     **** #define COND_UNLIKELY(expr)       	__builtin_expect((expr), 0)
  35:armwave.c     **** #define COND_LIKELY(expr)        	__builtin_expect((expr), 1)
  36:armwave.c     **** 
  37:armwave.c     **** struct armwave_state_t g_armwave_state;
  38:armwave.c     **** 
  39:armwave.c     **** uint8_t test_wave_buffer[TEST_WAVE_SIZE * TEST_NWAVES];
  40:armwave.c     **** uint8_t gamma_table[256];
  41:armwave.c     **** 
  42:armwave.c     **** // for now...
  43:armwave.c     **** const float overall_scale = 2550.0f / 255.0f;
  44:armwave.c     **** 
  45:armwave.c     **** float mod_depth = 0.0f;
  46:armwave.c     **** 
  47:armwave.c     **** /*
  48:armwave.c     ****  * Make a test AM waveform for render tests.
  49:armwave.c     ****  */
  50:armwave.c     **** void test_create_waveform()
  51:armwave.c     **** {
  52:armwave.c     ****     float v, mod, noise, xnoise;
  53:armwave.c     ****     int w, x;
  54:armwave.c     **** 
  55:armwave.c     ****     for(w = 0; w < TEST_NWAVES; w++) {
  56:armwave.c     ****         mod = 0.5f + (((float)w / TEST_NWAVES) * mod_depth);
  57:armwave.c     ****         //mod = 1.0f;
  58:armwave.c     **** 
  59:armwave.c     ****         for(x = 0; x < TEST_WAVE_SIZE; x++) {
  60:armwave.c     ****             noise  = ((rand() & 0xffff) / 100000.0f);
  61:armwave.c     ****             noise *= noise;
  62:armwave.c     ****             noise *= noise;
  63:armwave.c     ****             noise *= noise;
  64:armwave.c     **** 
  65:armwave.c     ****             if((rand() & 0xffff) > 0x7fff)
  66:armwave.c     ****                 noise = -noise;
  67:armwave.c     **** 
  68:armwave.c     ****             noise += 1.0f;
  69:armwave.c     ****             xnoise = (rand() & 0xffff) / 6553500.0f;
  70:armwave.c     **** 
  71:armwave.c     ****             v = (sin((6.28f * x * (1.0f / TEST_WAVE_SIZE)) + xnoise) * mod) * noise;
  72:armwave.c     ****             //v = ((x & 0xff) / 128.0f) - 1.0f;
  73:armwave.c     ****             test_wave_buffer[x + (w * TEST_WAVE_SIZE)] = MIN(MAX(128 + (v * 127), 0), 255);
  74:armwave.c     ****         }
  75:armwave.c     ****     }
  76:armwave.c     **** }
  77:armwave.c     **** 
  78:armwave.c     **** /*
  79:armwave.c     ****  * Create a gamma table.
  80:armwave.c     ****  */
  81:armwave.c     **** void test_create_gamma()
  82:armwave.c     **** {
  83:armwave.c     ****     int i;
  84:armwave.c     ****     float gamma = 0.90f;
  85:armwave.c     **** 
  86:armwave.c     ****     for(i = 0; i < 256; i++) {
  87:armwave.c     ****         gamma_table[i] = pow(i / 255.0f, gamma) * 255.0f;
  88:armwave.c     ****     }
  89:armwave.c     **** }
  90:armwave.c     **** 
  91:armwave.c     **** /*
  92:armwave.c     ****  * 1ch renderer, renders up to slice-height buffer with X-coord of each waveaccess
  93:armwave.c     ****  * pre-computed.
  94:armwave.c     ****  *
  95:armwave.c     ****  * @param    slice_y        Slice to render at
  96:armwave.c     ****  * @param    height         Number of wave points to render
  97:armwave.c     ****  */
  98:armwave.c     **** void render_nonaa_to_buffer_1ch_slice(uint32_t slice_y, uint32_t height)
  99:armwave.c     **** {
 100:armwave.c     ****     int yy, ys, w, scale_value;
 101:armwave.c     ****     uint32_t value, word;
 102:armwave.c     ****     uint8_t *wave_base;
 103:armwave.c     ****     uint8_t *write_buffer_base;
 104:armwave.c     ****     uint8_t *write_buffer;
 105:armwave.c     ****     
 106:armwave.c     ****     write_buffer_base = g_armwave_state.ch1_buffer + (slice_y * g_armwave_state.target_height);
 107:armwave.c     **** 
 108:armwave.c     ****     // roll through each waveform
 109:armwave.c     ****     for(w = 0; w < g_armwave_state.waves; w++) {
 110:armwave.c     ****         wave_base = g_armwave_state.wave_buffer + slice_y + (w * g_armwave_state.wave_stride);
 111:armwave.c     **** 
 112:armwave.c     ****         // roll through y and render the slice into the out buffer
 113:armwave.c     ****         // buffer is rendered rotated by 90 degrees
 114:armwave.c     ****         for(yy = 0; yy < height; yy += 4) {
 115:armwave.c     ****             word = *(uint32_t*)(wave_base + yy);
 116:armwave.c     **** 
 117:armwave.c     ****             for(ys = 0; ys < 4; ys++) {
 118:armwave.c     ****                 scale_value = (word & 0xff) * g_armwave_state.vscale;
 119:armwave.c     ****                 write_buffer = write_buffer_base + ((yy + ys) * g_armwave_state.target_height);
 120:armwave.c     ****                 *(write_buffer + scale_value) += 1;
 121:armwave.c     ****                 word >>= 8;
 122:armwave.c     ****             }
 123:armwave.c     ****         }
 124:armwave.c     ****     }
 125:armwave.c     **** }
 126:armwave.c     **** 
 127:armwave.c     **** void armwave_init()
 128:armwave.c     **** {
 129:armwave.c     ****     g_armwave_state.flags = 0;
 130:armwave.c     **** }
 131:armwave.c     **** 
 132:armwave.c     **** void armwave_setup_render(uint8_t *wave_buffer, uint32_t start_point, uint32_t end_point, uint32_t 
  85              		.loc 1 132 6 view -0
  86              		.cfi_startproc
  87              		@ args = 0, pretend = 0, frame = 0
  88              		@ frame_needed = 0, uses_anonymous_args = 0
 133:armwave.c     **** {
 134:armwave.c     ****     uint32_t length, xx;
  89              		.loc 1 134 5 view .LVU1
 135:armwave.c     ****     float points_per_pixel;
  90              		.loc 1 135 5 view .LVU2
 136:armwave.c     **** 
 137:armwave.c     ****     assert(start_point < end_point);
  91              		.loc 1 137 5 view .LVU3
 138:armwave.c     **** 
 139:armwave.c     ****     // Pretend we're in 1ch, 8-bit mode only for now
 140:armwave.c     ****     g_armwave_state.wave_buffer = wave_buffer;
  92              		.loc 1 140 5 view .LVU4
  93              	@ armwave.c:132: void armwave_setup_render(uint8_t *wave_buffer, uint32_t start_point, uint32_t end
 132:armwave.c     **** {
  94              		.loc 1 132 6 is_stmt 0 view .LVU5
  95 0000 70402DE9 		push	{r4, r5, r6, lr}	@
  96              		.cfi_def_cfa_offset 16
  97              		.cfi_offset 4, -16
  98              		.cfi_offset 5, -12
  99              		.cfi_offset 6, -8
 100              		.cfi_offset 14, -4
 101              	@ armwave.c:143:     assert(target_height == 256 || target_height == 512 || target_height == 1024 |
 141:armwave.c     **** 
 142:armwave.c     ****     // target_height must be a power of two.  Only 256, 512, 1024 and 2048 height buffers are suppo
 143:armwave.c     ****     assert(target_height == 256 || target_height == 512 || target_height == 1024 || target_height =
 102              		.loc 1 143 5 view .LVU6
 103 0004 012C41E2 		sub	r2, r1, #256	@ tmp140, target_height,
 104              	@ armwave.c:140:     g_armwave_state.wave_buffer = wave_buffer;
 140:armwave.c     **** 
 105              		.loc 1 140 33 view .LVU7
 106 0008 90419FE5 		ldr	r4, .L21+8	@ tmp207,
 107 000c 90319FE5 		ldr	r3, .L21+12	@ tmp139,
 108              	@ armwave.c:143:     assert(target_height == 256 || target_height == 512 || target_height == 1024 |
 109              		.loc 1 143 5 view .LVU8
 110 0010 012CD2E3 		bics	r2, r2, #256	@ tmp209, tmp140,
 111              	@ armwave.c:132: void armwave_setup_render(uint8_t *wave_buffer, uint32_t start_point, uint32_t end
 132:armwave.c     **** {
 112              		.loc 1 132 6 view .LVU9
 113 0014 028B2DED 		vpush.64	{d8}	@
 114              		.cfi_def_cfa_offset 24
 115              		.cfi_offset 80, -24
 116              		.cfi_offset 81, -20
 117              	@ armwave.c:132: void armwave_setup_render(uint8_t *wave_buffer, uint32_t start_point, uint32_t end
 132:armwave.c     **** {
 118              		.loc 1 132 6 view .LVU10
 119 0018 0050A0E1 		mov	r5, r0	@ target_width, target_width
 120              	@ armwave.c:140:     g_armwave_state.wave_buffer = wave_buffer;
 140:armwave.c     **** 
 121              		.loc 1 140 33 view .LVU11
 122 001c 143084E5 		str	r3, [r4, #20]	@ tmp139, g_armwave_state.wave_buffer
 123              		.loc 1 143 5 is_stmt 1 view .LVU12
 124 0020 4200000A 		beq	.L2		@,
 125 0024 013B41E2 		sub	r3, r1, #1024	@ tmp142, target_height,
 126 0028 013BD3E3 		bics	r3, r3, #1024	@ tmp210, tmp142,
 127 002c 4A00001A 		bne	.L17		@,
 144:armwave.c     **** 
 145:armwave.c     ****     if(target_height == 256) {
 146:armwave.c     ****         g_armwave_state.row_shift = 8;
 147:armwave.c     ****         g_armwave_state.row_mask = 0x0ff;
 148:armwave.c     ****     } else if(target_height == 512) {
 128              		.loc 1 148 12 view .LVU13
 149:armwave.c     ****         g_armwave_state.row_shift = 9;
 150:armwave.c     ****         g_armwave_state.row_mask = 0x1ff;
 151:armwave.c     ****     } else if(target_height == 1024) {
 129              		.loc 1 151 12 view .LVU14
 130              	@ armwave.c:151:     } else if(target_height == 1024) {
 131              		.loc 1 151 14 is_stmt 0 view .LVU15
 132 0030 010B51E3 		cmp	r1, #1024	@ target_height,
 133 0034 4400000A 		beq	.L18		@,
 152:armwave.c     ****         g_armwave_state.row_shift = 10;
 153:armwave.c     ****         g_armwave_state.row_mask = 0x3ff;
 154:armwave.c     ****     } else if(target_height == 2048) {
 134              		.loc 1 154 12 is_stmt 1 view .LVU16
 135              	@ armwave.c:154:     } else if(target_height == 2048) {
 136              		.loc 1 154 14 is_stmt 0 view .LVU17
 137 0038 020B51E3 		cmp	r1, #2048	@ target_height,
 155:armwave.c     ****         g_armwave_state.row_shift = 11;
 138              		.loc 1 155 9 is_stmt 1 view .LVU18
 139              	@ armwave.c:155:         g_armwave_state.row_shift = 11;
 140              		.loc 1 155 35 is_stmt 0 view .LVU19
 141 003c 0B20A003 		moveq	r2, #11	@ tmp162,
 142 0040 60319F05 		ldreq	r3, .L21+16	@ tmp160,
 143 0044 FC23C401 		strdeq	r2, [r4, #60]	@, tmp207,
 156:armwave.c     ****         g_armwave_state.row_mask = 0x7ff;
 144              		.loc 1 156 9 is_stmt 1 view .LVU20
 145              	.L5:
 157:armwave.c     ****     } 
 158:armwave.c     **** 
 159:armwave.c     ****     // Calculate the size of each buffer.  Buffers are rotated by 90 degrees to improve cache coher
 160:armwave.c     ****     g_armwave_state.xstride = target_height;
 146              		.loc 1 160 5 view .LVU21
 147              	@ armwave.c:161:     g_armwave_state.vscale = target_height / 256;
 161:armwave.c     ****     g_armwave_state.vscale = target_height / 256;
 148              		.loc 1 161 44 is_stmt 0 view .LVU22
 149 0048 2134A0E1 		lsr	r3, r1, #8	@ tmp165, target_height,
 150              	@ armwave.c:164:     g_armwave_state.size = target_height * target_width;
 162:armwave.c     ****     g_armwave_state.wave_stride = wave_stride;
 163:armwave.c     ****     g_armwave_state.waves = waves;
 164:armwave.c     ****     g_armwave_state.size = target_height * target_width;
 151              		.loc 1 164 42 view .LVU23
 152 004c 950106E0 		mul	r6, r5, r1	@ _10, target_width, target_height
 153              	@ armwave.c:173:     if(g_armwave_state.ch1_buffer != NULL)
 165:armwave.c     ****     g_armwave_state.target_width = target_width;
 166:armwave.c     ****     g_armwave_state.target_height = target_height;
 167:armwave.c     **** 
 168:armwave.c     ****     // In 1ch mode, target 1024 x 16 render buffer, reading 16 bytes at a time from each wave, reta
 169:armwave.c     ****     // In 2ch mode, target two 1024 x 8 render buffers, reading 16 bytes at a time from each wave
 170:armwave.c     ****     // In 4ch mode, target four 1024 x 4 render buffers, reading 16 bytes at a time from each wave
 171:armwave.c     ****     g_armwave_state.slice_height = 64;  
 172:armwave.c     **** 
 173:armwave.c     ****     if(g_armwave_state.ch1_buffer != NULL)
 154              		.loc 1 173 23 view .LVU24
 155 0050 040094E5 		ldr	r0, [r4, #4]	@ _11, g_armwave_state.ch1_buffer
 156              	.LVL1:
 157              	@ armwave.c:162:     g_armwave_state.wave_stride = wave_stride;
 162:armwave.c     ****     g_armwave_state.wave_stride = wave_stride;
 158              		.loc 1 162 33 view .LVU25
 159 0054 022BA0E3 		mov	r2, #2048	@ tmp167,
 160              	@ armwave.c:161:     g_armwave_state.vscale = target_height / 256;
 161:armwave.c     ****     g_armwave_state.wave_stride = wave_stride;
 161              		.loc 1 161 28 view .LVU26
 162 0058 1C3084E5 		str	r3, [r4, #28]	@ tmp165, g_armwave_state.vscale
 163              	@ armwave.c:163:     g_armwave_state.waves = waves;
 163:armwave.c     ****     g_armwave_state.size = target_height * target_width;
 164              		.loc 1 163 27 view .LVU27
 165 005c 4030A0E3 		mov	r3, #64	@ tmp169,
 166              	@ armwave.c:173:     if(g_armwave_state.ch1_buffer != NULL)
 167              		.loc 1 173 7 view .LVU28
 168 0060 000050E3 		cmp	r0, #0	@ _11,
 169              	@ armwave.c:160:     g_armwave_state.xstride = target_height;
 160:armwave.c     ****     g_armwave_state.vscale = target_height / 256;
 170              		.loc 1 160 29 view .LVU29
 171 0064 181084E5 		str	r1, [r4, #24]	@ target_height, g_armwave_state.xstride
 161:armwave.c     ****     g_armwave_state.wave_stride = wave_stride;
 172              		.loc 1 161 5 is_stmt 1 view .LVU30
 162:armwave.c     ****     g_armwave_state.waves = waves;
 173              		.loc 1 162 5 view .LVU31
 174              	@ armwave.c:165:     g_armwave_state.target_width = target_width;
 165:armwave.c     ****     g_armwave_state.target_height = target_height;
 175              		.loc 1 165 34 is_stmt 0 view .LVU32
 176 0068 345084E5 		str	r5, [r4, #52]	@ target_width, g_armwave_state.target_width
 177              	@ armwave.c:166:     g_armwave_state.target_height = target_height;
 166:armwave.c     **** 
 178              		.loc 1 166 35 view .LVU33
 179 006c 381084E5 		str	r1, [r4, #56]	@ target_height, g_armwave_state.target_height
 180              	@ armwave.c:164:     g_armwave_state.size = target_height * target_width;
 164:armwave.c     ****     g_armwave_state.target_width = target_width;
 181              		.loc 1 164 26 view .LVU34
 182 0070 306084E5 		str	r6, [r4, #48]	@ _10, g_armwave_state.size
 183              	@ armwave.c:163:     g_armwave_state.waves = waves;
 163:armwave.c     ****     g_armwave_state.size = target_height * target_width;
 184              		.loc 1 163 27 view .LVU35
 185 0074 F022C4E1 		strd	r2, [r4, #32]	@, tmp207,
 164:armwave.c     ****     g_armwave_state.target_width = target_width;
 186              		.loc 1 164 5 is_stmt 1 view .LVU36
 165:armwave.c     ****     g_armwave_state.target_height = target_height;
 187              		.loc 1 165 5 view .LVU37
 166:armwave.c     **** 
 188              		.loc 1 166 5 view .LVU38
 171:armwave.c     **** 
 189              		.loc 1 171 5 view .LVU39
 190              	@ armwave.c:171:     g_armwave_state.slice_height = 64;  
 171:armwave.c     **** 
 191              		.loc 1 171 34 is_stmt 0 view .LVU40
 192 0078 283084E5 		str	r3, [r4, #40]	@ tmp169, g_armwave_state.slice_height
 193              		.loc 1 173 5 is_stmt 1 view .LVU41
 194              	@ armwave.c:173:     if(g_armwave_state.ch1_buffer != NULL)
 195              		.loc 1 173 7 is_stmt 0 view .LVU42
 196 007c 0100000A 		beq	.L7		@,
 174:armwave.c     ****         free(g_armwave_state.ch1_buffer);
 197              		.loc 1 174 9 is_stmt 1 view .LVU43
 198 0080 FEFFFFEB 		bl	free		@
 199              	.LVL2:
 200              		.loc 1 174 9 is_stmt 0 view .LVU44
 201 0084 306094E5 		ldr	r6, [r4, #48]	@ _10, g_armwave_state.size
 202              	.L7:
 175:armwave.c     **** 
 176:armwave.c     ****     g_armwave_state.ch1_buffer = calloc(g_armwave_state.size, 1);
 203              		.loc 1 176 5 is_stmt 1 view .LVU45
 204              	@ armwave.c:176:     g_armwave_state.ch1_buffer = calloc(g_armwave_state.size, 1);
 205              		.loc 1 176 34 is_stmt 0 view .LVU46
 206 0088 0110A0E3 		mov	r1, #1	@,
 207 008c 0600A0E1 		mov	r0, r6	@, _10
 208 0090 FEFFFFEB 		bl	calloc		@
 209              	.LVL3:
 210              	@ armwave.c:177:     g_armwave_state.ch1_color.r = 255 * overall_scale;
 177:armwave.c     ****     g_armwave_state.ch1_color.r = 255 * overall_scale;
 211              		.loc 1 177 33 view .LVU47
 212 0094 10219FE5 		ldr	r2, .L21+20	@ tmp180,
 213              	@ armwave.c:179:     g_armwave_state.ch1_color.b = 25 * overall_scale;
 178:armwave.c     ****     g_armwave_state.ch1_color.g = 178 * overall_scale;
 179:armwave.c     ****     g_armwave_state.ch1_color.b = 25 * overall_scale;
 214              		.loc 1 179 33 view .LVU48
 215 0098 FA30A0E3 		mov	r3, #250	@ tmp183,
 216              	@ armwave.c:177:     g_armwave_state.ch1_color.r = 255 * overall_scale;
 177:armwave.c     ****     g_armwave_state.ch1_color.r = 255 * overall_scale;
 217              		.loc 1 177 33 view .LVU49
 218 009c 482084E5 		str	r2, [r4, #72]	@ tmp180, MEM[(short int *)&g_armwave_state + 72B]
 219              	@ armwave.c:179:     g_armwave_state.ch1_color.b = 25 * overall_scale;
 220              		.loc 1 179 33 view .LVU50
 221 00a0 BC34C4E1 		strh	r3, [r4, #76]	@ movhi	@ tmp183, g_armwave_state.ch1_color.b
 222              	@ armwave.c:181:     assert(g_armwave_state.ch1_buffer != NULL);
 180:armwave.c     **** 
 181:armwave.c     ****     assert(g_armwave_state.ch1_buffer != NULL);
 223              		.loc 1 181 5 view .LVU51
 224 00a4 000050E3 		cmp	r0, #0	@ tmp177,
 225              	@ armwave.c:176:     g_armwave_state.ch1_buffer = calloc(g_armwave_state.size, 1);
 176:armwave.c     ****     g_armwave_state.ch1_color.r = 255 * overall_scale;
 226              		.loc 1 176 32 view .LVU52
 227 00a8 040084E5 		str	r0, [r4, #4]	@ tmp177, g_armwave_state.ch1_buffer
 177:armwave.c     ****     g_armwave_state.ch1_color.g = 178 * overall_scale;
 228              		.loc 1 177 5 is_stmt 1 view .LVU53
 178:armwave.c     ****     g_armwave_state.ch1_color.b = 25 * overall_scale;
 229              		.loc 1 178 5 view .LVU54
 179:armwave.c     **** 
 230              		.loc 1 179 5 view .LVU55
 231              		.loc 1 181 5 view .LVU56
 232 00ac 2F00000A 		beq	.L19		@,
 182:armwave.c     **** 
 183:armwave.c     ****     // Precompute the x-coord to pixel lookup to reduce ALU load
 184:armwave.c     ****     length = end_point - start_point;
 233              		.loc 1 184 5 view .LVU57
 234              	.LVL4:
 185:armwave.c     ****     points_per_pixel = length / ((float)(target_width));
 235              		.loc 1 185 5 view .LVU58
 236              	@ armwave.c:185:     points_per_pixel = length / ((float)(target_width));
 237              		.loc 1 185 34 is_stmt 0 view .LVU59
 238 00b0 905A07EE 		vmov	s15, r5	@ int	@ target_width, target_width
 239              	@ armwave.c:185:     points_per_pixel = length / ((float)(target_width));
 240              		.loc 1 185 22 view .LVU60
 241 00b4 376ADFED 		vldr.32	s13, .L21	@ tmp188,
 242              	@ armwave.c:187:     g_armwave_state.xcoord_to_xpixel = malloc(length * sizeof(uint16_t));
 186:armwave.c     ****     g_armwave_state.slice_record_height = points_per_pixel * g_armwave_state.slice_height;
 187:armwave.c     ****     g_armwave_state.xcoord_to_xpixel = malloc(length * sizeof(uint16_t));
 243              		.loc 1 187 40 view .LVU61
 244 00b8 010AA0E3 		mov	r0, #4096	@,
 245              	@ armwave.c:185:     points_per_pixel = length / ((float)(target_width));
 185:armwave.c     ****     points_per_pixel = length / ((float)(target_width));
 246              		.loc 1 185 34 view .LVU62
 247 00bc 677AB8EE 		vcvt.f32.u32	s14, s15	@ tmp187, target_width
 248              	@ armwave.c:186:     g_armwave_state.slice_record_height = points_per_pixel * g_armwave_state.slice
 186:armwave.c     ****     g_armwave_state.slice_record_height = points_per_pixel * g_armwave_state.slice_height;
 249              		.loc 1 186 60 view .LVU63
 250 00c0 0A7AD4ED 		vldr.32	s15, [r4, #40]	@ int	@ tmp212, g_armwave_state.slice_height
 251 00c4 677AF8EE 		vcvt.f32.u32	s15, s15	@ tmp191, tmp212
 252              	@ armwave.c:185:     points_per_pixel = length / ((float)(target_width));
 185:armwave.c     ****     points_per_pixel = length / ((float)(target_width));
 253              		.loc 1 185 22 view .LVU64
 254 00c8 878A86EE 		vdiv.f32	s16, s13, s14	@ points_per_pixel, tmp188, tmp187
 255              	.LVL5:
 186:armwave.c     ****     g_armwave_state.slice_record_height = points_per_pixel * g_armwave_state.slice_height;
 256              		.loc 1 186 5 is_stmt 1 view .LVU65
 257              	@ armwave.c:186:     g_armwave_state.slice_record_height = points_per_pixel * g_armwave_state.slice
 186:armwave.c     ****     g_armwave_state.slice_record_height = points_per_pixel * g_armwave_state.slice_height;
 258              		.loc 1 186 60 is_stmt 0 view .LVU66
 259 00cc 887A67EE 		vmul.f32	s15, s15, s16	@ tmp193, tmp191, points_per_pixel
 260              	@ armwave.c:186:     g_armwave_state.slice_record_height = points_per_pixel * g_armwave_state.slice
 186:armwave.c     ****     g_armwave_state.slice_record_height = points_per_pixel * g_armwave_state.slice_height;
 261              		.loc 1 186 41 view .LVU67
 262 00d0 E77AFCEE 		vcvt.u32.f32	s15, s15	@ tmp194, tmp193
 263 00d4 0B7AC4ED 		vstr.32	s15, [r4, #44]	@ int	@ tmp194, g_armwave_state.slice_record_height
 264              		.loc 1 187 5 is_stmt 1 view .LVU68
 265              	@ armwave.c:187:     g_armwave_state.xcoord_to_xpixel = malloc(length * sizeof(uint16_t));
 266              		.loc 1 187 40 is_stmt 0 view .LVU69
 267 00d8 FEFFFFEB 		bl	malloc		@
 268              	.LVL6:
 269              	@ armwave.c:189:     assert(g_armwave_state.xcoord_to_xpixel != NULL);
 188:armwave.c     **** 
 189:armwave.c     ****     assert(g_armwave_state.xcoord_to_xpixel != NULL);
 270              		.loc 1 189 5 view .LVU70
 271 00dc 000050E3 		cmp	r0, #0	@ tmp195,
 272              	@ armwave.c:187:     g_armwave_state.xcoord_to_xpixel = malloc(length * sizeof(uint16_t));
 187:armwave.c     **** 
 273              		.loc 1 187 38 view .LVU71
 274 00e0 600084E5 		str	r0, [r4, #96]	@ tmp195, g_armwave_state.xcoord_to_xpixel
 275              		.loc 1 189 5 is_stmt 1 view .LVU72
 276 00e4 2600000A 		beq	.L20		@,
 277              	@ armwave.c:192:         g_armwave_state.xcoord_to_xpixel[xx] = (1.0f / points_per_pixel) * xx;
 190:armwave.c     **** 
 191:armwave.c     ****     for(xx = 0; xx < length; xx++) {
 192:armwave.c     ****         g_armwave_state.xcoord_to_xpixel[xx] = (1.0f / points_per_pixel) * xx;
 278              		.loc 1 192 54 is_stmt 0 view .LVU73
 279 00e8 2B7ADFED 		vldr.32	s15, .L21+4	@ tmp200,
 280 00ec 020040E2 		sub	r0, r0, #2	@ ivtmp.26, tmp195,
 281              	@ armwave.c:191:     for(xx = 0; xx < length; xx++) {
 191:armwave.c     ****         g_armwave_state.xcoord_to_xpixel[xx] = (1.0f / points_per_pixel) * xx;
 282              		.loc 1 191 12 view .LVU74
 283 00f0 0030A0E3 		mov	r3, #0	@ xx,
 284              	@ armwave.c:192:         g_armwave_state.xcoord_to_xpixel[xx] = (1.0f / points_per_pixel) * xx;
 285              		.loc 1 192 54 view .LVU75
 286 00f4 887A87EE 		vdiv.f32	s14, s15, s16	@ _24, tmp200, points_per_pixel
 287              	.L10:
 288              	.LVL7:
 289              		.loc 1 192 9 is_stmt 1 view .LVU76
 290              	@ armwave.c:192:         g_armwave_state.xcoord_to_xpixel[xx] = (1.0f / points_per_pixel) * xx;
 291              		.loc 1 192 74 is_stmt 0 view .LVU77
 292 00f8 903A07EE 		vmov	s15, r3	@ int	@ xx, xx
 293              	@ armwave.c:191:     for(xx = 0; xx < length; xx++) {
 191:armwave.c     ****         g_armwave_state.xcoord_to_xpixel[xx] = (1.0f / points_per_pixel) * xx;
 294              		.loc 1 191 32 view .LVU78
 295 00fc 013083E2 		add	r3, r3, #1	@ xx, xx,
 296              	.LVL8:
 297              	@ armwave.c:191:     for(xx = 0; xx < length; xx++) {
 191:armwave.c     ****         g_armwave_state.xcoord_to_xpixel[xx] = (1.0f / points_per_pixel) * xx;
 298              		.loc 1 191 5 view .LVU79
 299 0100 020B53E3 		cmp	r3, #2048	@ xx,
 300              	@ armwave.c:192:         g_armwave_state.xcoord_to_xpixel[xx] = (1.0f / points_per_pixel) * xx;
 301              		.loc 1 192 74 view .LVU80
 302 0104 E77AF8EE 		vcvt.f32.s32	s15, s15	@ tmp201, xx
 303 0108 877A67EE 		vmul.f32	s15, s15, s14	@ tmp202, tmp201, _24
 304              	@ armwave.c:192:         g_armwave_state.xcoord_to_xpixel[xx] = (1.0f / points_per_pixel) * xx;
 305              		.loc 1 192 46 view .LVU81
 306 010c E77AFCEE 		vcvt.u32.f32	s15, s15	@ tmp203, tmp202
 307 0110 902A17EE 		vmov	r2, s15	@ int	@ tmp203, tmp203
 308 0114 B220E0E1 		strh	r2, [r0, #2]!	@ movhi	@ tmp203, MEM[base: _4, offset: 0B]
 309              	@ armwave.c:191:     for(xx = 0; xx < length; xx++) {
 191:armwave.c     ****         g_armwave_state.xcoord_to_xpixel[xx] = (1.0f / points_per_pixel) * xx;
 310              		.loc 1 191 5 view .LVU82
 311 0118 F6FFFF1A 		bne	.L10		@,
 193:armwave.c     **** 
 194:armwave.c     ****         // printf("xcoord_to_xpixel[%5d] = %5d (scale:%8.3f)\n", xx, g_armwave_state.xcoord_to_xpix
 195:armwave.c     ****     }
 196:armwave.c     **** 
 197:armwave.c     ****     g_armwave_state.out_pixbuf = malloc(sizeof(uint32_t) * g_armwave_state.size);
 312              		.loc 1 197 5 is_stmt 1 view .LVU83
 313              	@ armwave.c:197:     g_armwave_state.out_pixbuf = malloc(sizeof(uint32_t) * g_armwave_state.size);
 314              		.loc 1 197 34 is_stmt 0 view .LVU84
 315 011c 0601A0E1 		lsl	r0, r6, #2	@, _10,
 316 0120 FEFFFFEB 		bl	malloc		@
 317              	.LVL9:
 318              	@ armwave.c:198: }
 198:armwave.c     **** }
 319              		.loc 1 198 1 view .LVU85
 320 0124 028BBDEC 		vldm	sp!, {d8}	@
 321              		.cfi_remember_state
 322              		.cfi_restore 80
 323              		.cfi_restore 81
 324              		.cfi_def_cfa_offset 16
 325              	.LVL10:
 326              	@ armwave.c:197:     g_armwave_state.out_pixbuf = malloc(sizeof(uint32_t) * g_armwave_state.size);
 197:armwave.c     **** }
 327              		.loc 1 197 32 view .LVU86
 328 0128 440084E5 		str	r0, [r4, #68]	@, g_armwave_state.out_pixbuf
 329              	@ armwave.c:198: }
 330              		.loc 1 198 1 view .LVU87
 331 012c 7080BDE8 		pop	{r4, r5, r6, pc}	@
 332              	.LVL11:
 333              	.L2:
 334              		.cfi_restore_state
 145:armwave.c     ****         g_armwave_state.row_shift = 8;
 335              		.loc 1 145 5 is_stmt 1 view .LVU88
 336              	@ armwave.c:145:     if(target_height == 256) {
 145:armwave.c     ****         g_armwave_state.row_shift = 8;
 337              		.loc 1 145 7 is_stmt 0 view .LVU89
 338 0130 010C51E3 		cmp	r1, #256	@ target_height,
 146:armwave.c     ****         g_armwave_state.row_mask = 0x0ff;
 339              		.loc 1 146 9 is_stmt 1 view .LVU90
 340              	@ armwave.c:147:         g_armwave_state.row_mask = 0x0ff;
 147:armwave.c     ****     } else if(target_height == 512) {
 341              		.loc 1 147 34 is_stmt 0 view .LVU91
 342 0134 0820A003 		moveq	r2, #8	@ tmp148,
 343              	@ armwave.c:149:         g_armwave_state.row_shift = 9;
 149:armwave.c     ****         g_armwave_state.row_mask = 0x1ff;
 344              		.loc 1 149 35 view .LVU92
 345 0138 70309F15 		ldrne	r3, .L21+24	@ tmp152,
 346              	@ armwave.c:147:         g_armwave_state.row_mask = 0x0ff;
 147:armwave.c     ****     } else if(target_height == 512) {
 347              		.loc 1 147 34 view .LVU93
 348 013c FF30A003 		moveq	r3, #255	@ tmp150,
 148:armwave.c     ****         g_armwave_state.row_shift = 9;
 349              		.loc 1 148 12 is_stmt 1 view .LVU94
 149:armwave.c     ****         g_armwave_state.row_mask = 0x1ff;
 350              		.loc 1 149 9 view .LVU95
 351              	@ armwave.c:149:         g_armwave_state.row_shift = 9;
 149:armwave.c     ****         g_armwave_state.row_mask = 0x1ff;
 352              		.loc 1 149 35 is_stmt 0 view .LVU96
 353 0140 0920A013 		movne	r2, #9	@ tmp154,
 354 0144 FC23C4E1 		strd	r2, [r4, #60]	@, tmp207,
 150:armwave.c     ****     } else if(target_height == 1024) {
 355              		.loc 1 150 9 is_stmt 1 view .LVU97
 356 0148 BEFFFFEA 		b	.L5		@
 357              	.L18:
 152:armwave.c     ****         g_armwave_state.row_mask = 0x3ff;
 358              		.loc 1 152 9 view .LVU98
 359              	@ armwave.c:152:         g_armwave_state.row_shift = 10;
 152:armwave.c     ****         g_armwave_state.row_mask = 0x3ff;
 360              		.loc 1 152 35 is_stmt 0 view .LVU99
 361 014c 60309FE5 		ldr	r3, .L21+28	@ tmp156,
 362 0150 0A20A0E3 		mov	r2, #10	@ tmp158,
 363 0154 FC23C4E1 		strd	r2, [r4, #60]	@, tmp207,
 153:armwave.c     ****     } else if(target_height == 2048) {
 364              		.loc 1 153 9 is_stmt 1 view .LVU100
 365 0158 BAFFFFEA 		b	.L5		@
 366              	.L17:
 143:armwave.c     **** 
 367              		.loc 1 143 5 view .LVU101
 368 015c 54309FE5 		ldr	r3, .L21+32	@,
 369 0160 8F20A0E3 		mov	r2, #143	@,
 370 0164 50109FE5 		ldr	r1, .L21+36	@,
 371              	.LVL12:
 143:armwave.c     **** 
 372              		.loc 1 143 5 is_stmt 0 view .LVU102
 373 0168 50009FE5 		ldr	r0, .L21+40	@,
 374              	.LVL13:
 143:armwave.c     **** 
 375              		.loc 1 143 5 view .LVU103
 376 016c FEFFFFEB 		bl	__assert_fail		@
 377              	.LVL14:
 378              	.L19:
 181:armwave.c     **** 
 379              		.loc 1 181 5 is_stmt 1 view .LVU104
 380 0170 40309FE5 		ldr	r3, .L21+32	@,
 381 0174 B520A0E3 		mov	r2, #181	@,
 382 0178 3C109FE5 		ldr	r1, .L21+36	@,
 383 017c 40009FE5 		ldr	r0, .L21+44	@,
 384 0180 FEFFFFEB 		bl	__assert_fail		@
 385              	.LVL15:
 386              	.L20:
 189:armwave.c     **** 
 387              		.loc 1 189 5 view .LVU105
 388 0184 2C309FE5 		ldr	r3, .L21+32	@,
 389 0188 BD20A0E3 		mov	r2, #189	@,
 390 018c 28109FE5 		ldr	r1, .L21+36	@,
 391 0190 30009FE5 		ldr	r0, .L21+48	@,
 392 0194 FEFFFFEB 		bl	__assert_fail		@
 393              	.LVL16:
 394              	.L22:
 395              		.align	2
 396              	.L21:
 397 0198 00000045 		.word	1157627904
 398 019c 0000803F 		.word	1065353216
 399 01a0 00000000 		.word	g_armwave_state
 400 01a4 00000000 		.word	test_wave_buffer
 401 01a8 FF070000 		.word	2047
 402 01ac F609F406 		.word	116656630
 403 01b0 FF010000 		.word	511
 404 01b4 FF030000 		.word	1023
 405 01b8 00000000 		.word	.LANCHOR0
 406 01bc 00000000 		.word	.LC0
 407 01c0 0C000000 		.word	.LC1
 408 01c4 6C000000 		.word	.LC2
 409 01c8 90000000 		.word	.LC3
 410              		.cfi_endproc
 411              	.LFE73:
 413              		.align	2
 414              		.global	test_create_waveform
 415              		.syntax unified
 416              		.arm
 417              		.fpu vfp
 419              	test_create_waveform:
 420              	.LFB57:
  51:armwave.c     ****     float v, mod, noise, xnoise;
 421              		.loc 1 51 1 view -0
 422              		.cfi_startproc
 423              		@ args = 0, pretend = 0, frame = 8
 424              		@ frame_needed = 0, uses_anonymous_args = 0
  52:armwave.c     ****     int w, x;
 425              		.loc 1 52 5 view .LVU107
  53:armwave.c     **** 
 426              		.loc 1 53 5 view .LVU108
  55:armwave.c     ****         mod = 0.5f + (((float)w / TEST_NWAVES) * mod_depth);
 427              		.loc 1 55 5 view .LVU109
 428              	.LVL17:
 429              	@ armwave.c:51: {
  51:armwave.c     ****     float v, mod, noise, xnoise;
 430              		.loc 1 51 1 is_stmt 0 view .LVU110
 431 01cc F04F2DE9 		push	{r4, r5, r6, r7, r8, r9, r10, fp, lr}	@
 432              		.cfi_def_cfa_offset 36
 433              		.cfi_offset 4, -36
 434              		.cfi_offset 5, -32
 435              		.cfi_offset 6, -28
 436              		.cfi_offset 7, -24
 437              		.cfi_offset 8, -20
 438              		.cfi_offset 9, -16
 439              		.cfi_offset 10, -12
 440              		.cfi_offset 11, -8
 441              		.cfi_offset 14, -4
 442 01d0 0C8B2DED 		vpush.64	{d8, d9, d10, d11, d12, d13}	@
 443              		.cfi_def_cfa_offset 84
 444              		.cfi_offset 80, -84
 445              		.cfi_offset 81, -80
 446              		.cfi_offset 82, -76
 447              		.cfi_offset 83, -72
 448              		.cfi_offset 84, -68
 449              		.cfi_offset 85, -64
 450              		.cfi_offset 86, -60
 451              		.cfi_offset 87, -56
 452              		.cfi_offset 88, -52
 453              		.cfi_offset 89, -48
 454              		.cfi_offset 90, -44
 455              		.cfi_offset 91, -40
 456 01d4 5C819FE5 		ldr	r8, .L42+40	@ _75,
 457              	@ armwave.c:56:         mod = 0.5f + (((float)w / TEST_NWAVES) * mod_depth);
  56:armwave.c     ****         //mod = 1.0f;
 458              		.loc 1 56 33 view .LVU111
 459 01d8 4CDA9FED 		vldr.32	s26, .L42	@ tmp157,
 460 01dc 7F6E88E2 		add	r6, r8, #2032	@ ivtmp.42, _75,
 461              	@ armwave.c:56:         mod = 0.5f + (((float)w / TEST_NWAVES) * mod_depth);
  56:armwave.c     ****         //mod = 1.0f;
 462              		.loc 1 56 13 view .LVU112
 463 01e0 4BCADFED 		vldr.32	s25, .L42+4	@ tmp161,
 464              	@ armwave.c:60:             noise  = ((rand() & 0xffff) / 100000.0f);
  60:armwave.c     ****             noise *= noise;
 465              		.loc 1 60 20 view .LVU113
 466 01e4 4BCA9FED 		vldr.32	s24, .L42+8	@ tmp166,
 467              	@ armwave.c:71:             v = (sin((6.28f * x * (1.0f / TEST_WAVE_SIZE)) + xnoise) * mod) * noise
  71:armwave.c     ****             //v = ((x & 0xff) / 128.0f) - 1.0f;
 468              		.loc 1 71 29 view .LVU114
 469 01e8 4BBADFED 		vldr.32	s23, .L42+12	@ tmp170,
 470              	@ armwave.c:71:             v = (sin((6.28f * x * (1.0f / TEST_WAVE_SIZE)) + xnoise) * mod) * noise
  71:armwave.c     ****             //v = ((x & 0xff) / 128.0f) - 1.0f;
 471              		.loc 1 71 33 view .LVU115
 472 01ec 4BBA9FED 		vldr.32	s22, .L42+16	@ tmp172,
 473              	@ armwave.c:69:             xnoise = (rand() & 0xffff) / 6553500.0f;
  69:armwave.c     **** 
 474              		.loc 1 69 20 view .LVU116
 475 01f0 4BAADFED 		vldr.32	s21, .L42+20	@ tmp177,
 476 01f4 02B886E2 		add	fp, r6, #131072	@ _81,,
 477 01f8 3CA19FE5 		ldr	r10, .L42+44	@ tmp197,
 478              	@ armwave.c:51: {
  51:armwave.c     ****     float v, mod, noise, xnoise;
 479              		.loc 1 51 1 view .LVU117
 480 01fc 0CD04DE2 		sub	sp, sp, #12	@,,
 481              		.cfi_def_cfa_offset 96
 482 0200 0FB08BE2 		add	fp, fp, #15	@ _81, _81,
 483 0204 0F6086E2 		add	r6, r6, #15	@ ivtmp.42, ivtmp.42,
 484 0208 008068E2 		rsb	r8, r8, #0	@ ivtmp.45, _75
 485              	@ armwave.c:55:     for(w = 0; w < TEST_NWAVES; w++) {
  55:armwave.c     ****         mod = 0.5f + (((float)w / TEST_NWAVES) * mod_depth);
 486              		.loc 1 55 11 view .LVU118
 487 020c 0090A0E3 		mov	r9, #0	@ w,
 488              	.LVL18:
 489              	.L29:
  56:armwave.c     ****         //mod = 1.0f;
 490              		.loc 1 56 9 is_stmt 1 view .LVU119
 491              	@ armwave.c:56:         mod = 0.5f + (((float)w / TEST_NWAVES) * mod_depth);
  56:armwave.c     ****         //mod = 1.0f;
 492              		.loc 1 56 24 is_stmt 0 view .LVU120
 493 0210 909A07EE 		vmov	s15, r9	@ int	@ w, w
 494              	@ armwave.c:56:         mod = 0.5f + (((float)w / TEST_NWAVES) * mod_depth);
  56:armwave.c     ****         //mod = 1.0f;
 495              		.loc 1 56 48 view .LVU121
 496 0214 007A9AED 		vldr.32	s14, [r10]	@ mod_depth, mod_depth
 497              	@ armwave.c:56:         mod = 0.5f + (((float)w / TEST_NWAVES) * mod_depth);
  56:armwave.c     ****         //mod = 1.0f;
 498              		.loc 1 56 13 view .LVU122
 499 0218 6C9AB0EE 		vmov.f32	s18, s25	@ mod, tmp161
 500              	@ armwave.c:68:             noise += 1.0f;
  68:armwave.c     ****             xnoise = (rand() & 0xffff) / 6553500.0f;
 501              		.loc 1 68 19 view .LVU123
 502 021c 41AA9FED 		vldr.32	s20, .L42+24	@ tmp183,
 503              	@ armwave.c:56:         mod = 0.5f + (((float)w / TEST_NWAVES) * mod_depth);
  56:armwave.c     ****         //mod = 1.0f;
 504              		.loc 1 56 24 view .LVU124
 505 0220 E77AF8EE 		vcvt.f32.s32	s15, s15	@ tmp155, w
 506              	@ armwave.c:73:             test_wave_buffer[x + (w * TEST_WAVE_SIZE)] = MIN(MAX(128 + (v * 127), 0
  73:armwave.c     ****         }
 507              		.loc 1 73 58 view .LVU125
 508 0224 408ADFED 		vldr.32	s17, .L42+28	@ tmp188,
 509 0228 025B46E2 		sub	r5, r6, #2048	@ ivtmp.35, ivtmp.42,
 510 022c 017088E2 		add	r7, r8, #1	@ tmp196, ivtmp.45,
 511              	@ armwave.c:56:         mod = 0.5f + (((float)w / TEST_NWAVES) * mod_depth);
  56:armwave.c     ****         //mod = 1.0f;
 512              		.loc 1 56 33 view .LVU126
 513 0230 8D7A67EE 		vmul.f32	s15, s15, s26	@ tmp156, tmp155, tmp157
 514              	@ armwave.c:56:         mod = 0.5f + (((float)w / TEST_NWAVES) * mod_depth);
  56:armwave.c     ****         //mod = 1.0f;
 515              		.loc 1 56 13 view .LVU127
 516 0234 879A07EE 		vmla.f32	s18, s15, s14	@ mod, tmp156, mod_depth
 517              	.LVL19:
  59:armwave.c     ****             noise  = ((rand() & 0xffff) / 100000.0f);
 518              		.loc 1 59 9 is_stmt 1 view .LVU128
  59:armwave.c     ****             noise  = ((rand() & 0xffff) / 100000.0f);
 519              		.loc 1 59 9 is_stmt 0 view .LVU129
 520 0238 C99AB7EE 		vcvt.f64.f32	d9, s18	@ tmp195, mod
 521              	.LVL20:
 522              	.L28:
 523              	@ armwave.c:60:             noise  = ((rand() & 0xffff) / 100000.0f);
  60:armwave.c     ****             noise *= noise;
 524              		.loc 1 60 24 view .LVU130
 525 023c FEFFFFEB 		bl	rand		@
 526              	.LVL21:
 527 0240 054087E0 		add	r4, r7, r5	@ _71, tmp196, ivtmp.35
 528              	.LVL22:
  60:armwave.c     ****             noise *= noise;
 529              		.loc 1 60 13 is_stmt 1 view .LVU131
 530              	@ armwave.c:60:             noise  = ((rand() & 0xffff) / 100000.0f);
  60:armwave.c     ****             noise *= noise;
 531              		.loc 1 60 31 is_stmt 0 view .LVU132
 532 0244 7000FFE6 		uxth	r0, r0	@ tmp163,
 533              	@ armwave.c:60:             noise  = ((rand() & 0xffff) / 100000.0f);
  60:armwave.c     ****             noise *= noise;
 534              		.loc 1 60 41 view .LVU133
 535 0248 900A07EE 		vmov	s15, r0	@ int	@ tmp163, tmp163
 536 024c E77AB8EE 		vcvt.f32.s32	s14, s15	@ tmp165, tmp163
 537              	@ armwave.c:60:             noise  = ((rand() & 0xffff) / 100000.0f);
  60:armwave.c     ****             noise *= noise;
 538              		.loc 1 60 20 view .LVU134
 539 0250 0C7AC7EE 		vdiv.f32	s15, s14, s24	@ noise, tmp165, tmp166
 540              	.LVL23:
  61:armwave.c     ****             noise *= noise;
 541              		.loc 1 61 13 is_stmt 1 view .LVU135
 542              	@ armwave.c:61:             noise *= noise;
  61:armwave.c     ****             noise *= noise;
 543              		.loc 1 61 19 is_stmt 0 view .LVU136
 544 0254 A77A67EE 		vmul.f32	s15, s15, s15	@ noise, noise, noise
 545              	.LVL24:
  62:armwave.c     ****             noise *= noise;
 546              		.loc 1 62 13 is_stmt 1 view .LVU137
 547              	@ armwave.c:62:             noise *= noise;
  62:armwave.c     ****             noise *= noise;
 548              		.loc 1 62 19 is_stmt 0 view .LVU138
 549 0258 A77A67EE 		vmul.f32	s15, s15, s15	@ noise, noise, noise
 550              	.LVL25:
  63:armwave.c     **** 
 551              		.loc 1 63 13 is_stmt 1 view .LVU139
 552              	@ armwave.c:63:             noise *= noise;
  63:armwave.c     **** 
 553              		.loc 1 63 19 is_stmt 0 view .LVU140
 554 025c A78A27EE 		vmul.f32	s16, s15, s15	@ noise, noise, noise
 555              	.LVL26:
  65:armwave.c     ****                 noise = -noise;
 556              		.loc 1 65 13 is_stmt 1 view .LVU141
 557              	@ armwave.c:65:             if((rand() & 0xffff) > 0x7fff)
  65:armwave.c     ****                 noise = -noise;
 558              		.loc 1 65 17 is_stmt 0 view .LVU142
 559 0260 FEFFFFEB 		bl	rand		@
 560              	.LVL27:
  66:armwave.c     **** 
 561              		.loc 1 66 17 is_stmt 1 view .LVU143
 562              	@ armwave.c:65:             if((rand() & 0xffff) > 0x7fff)
  65:armwave.c     ****                 noise = -noise;
 563              		.loc 1 65 15 is_stmt 0 view .LVU144
 564 0264 020910E3 		tst	r0, #32768	@,
 565              	@ armwave.c:66:                 noise = -noise;
  66:armwave.c     **** 
 566              		.loc 1 66 23 view .LVU145
 567 0268 488AB11E 		vnegne.f32	s16, s16	@ noise, noise
 568              	.LVL28:
  68:armwave.c     ****             xnoise = (rand() & 0xffff) / 6553500.0f;
 569              		.loc 1 68 13 is_stmt 1 view .LVU146
  69:armwave.c     **** 
 570              		.loc 1 69 13 view .LVU147
 571              	@ armwave.c:69:             xnoise = (rand() & 0xffff) / 6553500.0f;
  69:armwave.c     **** 
 572              		.loc 1 69 23 is_stmt 0 view .LVU148
 573 026c FEFFFFEB 		bl	rand		@
 574              	.LVL29:
  71:armwave.c     ****             //v = ((x & 0xff) / 128.0f) - 1.0f;
 575              		.loc 1 71 13 is_stmt 1 view .LVU149
 576              	@ armwave.c:71:             v = (sin((6.28f * x * (1.0f / TEST_WAVE_SIZE)) + xnoise) * mod) * noise
  71:armwave.c     ****             //v = ((x & 0xff) / 128.0f) - 1.0f;
 577              		.loc 1 71 29 is_stmt 0 view .LVU150
 578 0270 904A07EE 		vmov	s15, r4	@ int	@ _71, _71
 579 0274 E77AF8EE 		vcvt.f32.s32	s15, s15	@ tmp168, _71
 580 0278 AB7A67EE 		vmul.f32	s15, s15, s23	@ tmp169, tmp168, tmp170
 581              	@ armwave.c:69:             xnoise = (rand() & 0xffff) / 6553500.0f;
  69:armwave.c     **** 
 582              		.loc 1 69 30 view .LVU151
 583 027c 7000FFE6 		uxth	r0, r0	@ tmp173,
 584              	.LVL30:
 585              	@ armwave.c:69:             xnoise = (rand() & 0xffff) / 6553500.0f;
  69:armwave.c     **** 
 586              		.loc 1 69 40 view .LVU152
 587 0280 100A07EE 		vmov	s14, r0	@ int	@ tmp173, tmp173
 588 0284 C77AB8EE 		vcvt.f32.s32	s14, s14	@ tmp175, tmp173
 589              	@ armwave.c:69:             xnoise = (rand() & 0xffff) / 6553500.0f;
  69:armwave.c     **** 
 590              		.loc 1 69 20 view .LVU153
 591 0288 2A0A87EE 		vdiv.f32	s0, s14, s21	@ xnoise, tmp175, tmp177
 592              	@ armwave.c:71:             v = (sin((6.28f * x * (1.0f / TEST_WAVE_SIZE)) + xnoise) * mod) * noise
  71:armwave.c     ****             //v = ((x & 0xff) / 128.0f) - 1.0f;
 593              		.loc 1 71 60 view .LVU154
 594 028c 8B0A07EE 		vmla.f32	s0, s15, s22	@ tmp178, tmp169, tmp172
 595              	@ armwave.c:71:             v = (sin((6.28f * x * (1.0f / TEST_WAVE_SIZE)) + xnoise) * mod) * noise
  71:armwave.c     ****             //v = ((x & 0xff) / 128.0f) - 1.0f;
 596              		.loc 1 71 18 view .LVU155
 597 0290 C00AB7EE 		vcvt.f64.f32	d0, s0	@, tmp178
 598 0294 FEFFFFEB 		bl	sin		@
 599              	.LVL31:
  73:armwave.c     ****         }
 600              		.loc 1 73 13 is_stmt 1 view .LVU156
 601              	@ armwave.c:68:             noise += 1.0f;
  68:armwave.c     ****             xnoise = (rand() & 0xffff) / 6553500.0f;
 602              		.loc 1 68 19 is_stmt 0 view .LVU157
 603 0298 0A7A78EE 		vadd.f32	s15, s16, s20	@ noise, noise, tmp183
 604              	@ armwave.c:73:             test_wave_buffer[x + (w * TEST_WAVE_SIZE)] = MIN(MAX(128 + (v * 127), 0
  73:armwave.c     ****         }
 605              		.loc 1 73 58 view .LVU158
 606 029c 236ADFED 		vldr.32	s13, .L42+32	@ tmp189,
 607              	@ armwave.c:73:             test_wave_buffer[x + (w * TEST_WAVE_SIZE)] = MIN(MAX(128 + (v * 127), 0
  73:armwave.c     ****         }
 608              		.loc 1 73 56 view .LVU159
 609 02a0 236A9FED 		vldr.32	s12, .L42+36	@ tmp191,
 610 02a4 0030A0E3 		mov	r3, #0	@ iftmp.1_30,
 611              	@ armwave.c:71:             v = (sin((6.28f * x * (1.0f / TEST_WAVE_SIZE)) + xnoise) * mod) * noise
  71:armwave.c     ****             //v = ((x & 0xff) / 128.0f) - 1.0f;
 612              		.loc 1 71 77 view .LVU160
 613 02a8 E77AB7EE 		vcvt.f64.f32	d7, s15	@ tmp184, noise
 614              	@ armwave.c:71:             v = (sin((6.28f * x * (1.0f / TEST_WAVE_SIZE)) + xnoise) * mod) * noise
  71:armwave.c     ****             //v = ((x & 0xff) / 128.0f) - 1.0f;
 615              		.loc 1 71 70 view .LVU161
 616 02ac 000B29EE 		vmul.f64	d0, d9, d0	@ tmp181, tmp195,
 617              	@ armwave.c:71:             v = (sin((6.28f * x * (1.0f / TEST_WAVE_SIZE)) + xnoise) * mod) * noise
  71:armwave.c     ****             //v = ((x & 0xff) / 128.0f) - 1.0f;
 618              		.loc 1 71 77 view .LVU162
 619 02b0 077B20EE 		vmul.f64	d7, d0, d7	@ tmp185, tmp181, tmp184
 620              	@ armwave.c:71:             v = (sin((6.28f * x * (1.0f / TEST_WAVE_SIZE)) + xnoise) * mod) * noise
  71:armwave.c     ****             //v = ((x & 0xff) / 128.0f) - 1.0f;
 621              		.loc 1 71 15 view .LVU163
 622 02b4 C77BB7EE 		vcvt.f32.f64	s14, d7	@ v, tmp185
 623              	@ armwave.c:73:             test_wave_buffer[x + (w * TEST_WAVE_SIZE)] = MIN(MAX(128 + (v * 127), 0
  73:armwave.c     ****         }
 624              		.loc 1 73 58 view .LVU164
 625 02b8 667AF0EE 		vmov.f32	s15, s13	@ tmp189, tmp189
 626 02bc 287A47EE 		vmla.f32	s15, s14, s17	@ tmp189, v, tmp188
 627 02c0 C07AF5EE 		vcmpe.f32	s15, #0	@ _24
 628 02c4 10FAF1EE 		vmrs	APSR_nzcv, FPSCR
 629 02c8 050000DA 		ble	.L25		@,
 630              	@ armwave.c:73:             test_wave_buffer[x + (w * TEST_WAVE_SIZE)] = MIN(MAX(128 + (v * 127), 0
  73:armwave.c     ****         }
 631              		.loc 1 73 56 discriminator 1 view .LVU165
 632 02cc C67AF4EE 		vcmpe.f32	s15, s12	@ _24, tmp191
 633 02d0 FF30A0E3 		mov	r3, #255	@ iftmp.1_30,
 634 02d4 10FAF1EE 		vmrs	APSR_nzcv, FPSCR
 635 02d8 E77AFC4E 		vcvtmi.u32.f32	s15, s15	@ tmp193, _24
 636 02dc 017ACD4D 		vstrmi.32	s15, [sp, #4]	@ int	@ tmp193, %sfp
 637 02e0 0430DD45 		ldrbmi	r3, [sp, #4]	@ zero_extendqisi2	@ iftmp.1_30, %sfp
 638              	.L25:
 639              	@ armwave.c:73:             test_wave_buffer[x + (w * TEST_WAVE_SIZE)] = MIN(MAX(128 + (v * 127), 0
  73:armwave.c     ****         }
 640              		.loc 1 73 56 discriminator 12 view .LVU166
 641 02e4 0130E5E5 		strb	r3, [r5, #1]!	@ iftmp.1_30, MEM[base: _51, offset: 0B]
 642              	.LVL32:
 643              	@ armwave.c:59:         for(x = 0; x < TEST_WAVE_SIZE; x++) {
  59:armwave.c     ****             noise  = ((rand() & 0xffff) / 100000.0f);
 644              		.loc 1 59 9 discriminator 12 view .LVU167
 645 02e8 060055E1 		cmp	r5, r6	@ ivtmp.35, ivtmp.42
 646 02ec D2FFFF1A 		bne	.L28		@,
 647 02f0 026B85E2 		add	r6, r5, #2048	@ ivtmp.42, ivtmp.35,
 648              	.LVL33:
 649              	@ armwave.c:55:     for(w = 0; w < TEST_NWAVES; w++) {
  55:armwave.c     ****         mod = 0.5f + (((float)w / TEST_NWAVES) * mod_depth);
 650              		.loc 1 55 5 discriminator 2 view .LVU168
 651 02f4 0B0056E1 		cmp	r6, fp	@ ivtmp.42, _81
 652              	@ armwave.c:55:     for(w = 0; w < TEST_NWAVES; w++) {
  55:armwave.c     ****         mod = 0.5f + (((float)w / TEST_NWAVES) * mod_depth);
 653              		.loc 1 55 34 discriminator 2 view .LVU169
 654 02f8 019089E2 		add	r9, r9, #1	@ w, w,
 655              	.LVL34:
  55:armwave.c     ****         mod = 0.5f + (((float)w / TEST_NWAVES) * mod_depth);
 656              		.loc 1 55 34 discriminator 2 view .LVU170
 657 02fc 028B48E2 		sub	r8, r8, #2048	@ ivtmp.45, ivtmp.45,
 658              	@ armwave.c:55:     for(w = 0; w < TEST_NWAVES; w++) {
  55:armwave.c     ****         mod = 0.5f + (((float)w / TEST_NWAVES) * mod_depth);
 659              		.loc 1 55 5 discriminator 2 view .LVU171
 660 0300 C2FFFF1A 		bne	.L29		@,
 661              	@ armwave.c:76: }
  76:armwave.c     **** 
 662              		.loc 1 76 1 view .LVU172
 663 0304 0CD08DE2 		add	sp, sp, #12	@,,
 664              		.cfi_def_cfa_offset 84
 665              		@ sp needed	@
 666 0308 0C8BBDEC 		vldm	sp!, {d8-d13}	@,
 667              		.cfi_restore 90
 668              		.cfi_restore 91
 669              		.cfi_restore 88
 670              		.cfi_restore 89
 671              		.cfi_restore 86
 672              		.cfi_restore 87
 673              		.cfi_restore 84
 674              		.cfi_restore 85
 675              		.cfi_restore 82
 676              		.cfi_restore 83
 677              		.cfi_restore 80
 678              		.cfi_restore 81
 679              		.cfi_def_cfa_offset 36
 680              	.LVL35:
  76:armwave.c     **** 
 681              		.loc 1 76 1 view .LVU173
 682 030c F08FBDE8 		pop	{r4, r5, r6, r7, r8, r9, r10, fp, pc}	@
 683              	.LVL36:
 684              	.L43:
  76:armwave.c     **** 
 685              		.loc 1 76 1 view .LVU174
 686              		.align	2
 687              	.L42:
 688 0310 0000803C 		.word	1015021568
 689 0314 0000003F 		.word	1056964608
 690 0318 0050C347 		.word	1203982336
 691 031c C3F5C840 		.word	1086911939
 692 0320 0000003A 		.word	973078528
 693 0324 38FFC74A 		.word	1254620984
 694 0328 0000803F 		.word	1065353216
 695 032c 0000FE42 		.word	1123942400
 696 0330 00000043 		.word	1124073472
 697 0334 00007F43 		.word	1132396544
 698 0338 00000000 		.word	test_wave_buffer
 699 033c 00000000 		.word	.LANCHOR1
 700              		.cfi_endproc
 701              	.LFE57:
 703              		.align	2
 704              		.global	test_create_gamma
 705              		.syntax unified
 706              		.arm
 707              		.fpu vfp
 709              	test_create_gamma:
 710              	.LFB58:
  82:armwave.c     ****     int i;
 711              		.loc 1 82 1 is_stmt 1 view -0
 712              		.cfi_startproc
 713              		@ args = 0, pretend = 0, frame = 0
 714              		@ frame_needed = 0, uses_anonymous_args = 0
  83:armwave.c     ****     float gamma = 0.90f;
 715              		.loc 1 83 5 view .LVU176
  84:armwave.c     **** 
 716              		.loc 1 84 5 view .LVU177
 717              	.LVL37:
  86:armwave.c     ****         gamma_table[i] = pow(i / 255.0f, gamma) * 255.0f;
 718              		.loc 1 86 5 view .LVU178
 719              	@ armwave.c:82: {
  82:armwave.c     ****     int i;
 720              		.loc 1 82 1 is_stmt 0 view .LVU179
 721 0340 70402DE9 		push	{r4, r5, r6, lr}	@
 722              		.cfi_def_cfa_offset 16
 723              		.cfi_offset 4, -16
 724              		.cfi_offset 5, -12
 725              		.cfi_offset 6, -8
 726              		.cfi_offset 14, -4
 727 0344 068B2DED 		vpush.64	{d8, d9, d10}	@
 728              		.cfi_def_cfa_offset 40
 729              		.cfi_offset 80, -40
 730              		.cfi_offset 81, -36
 731              		.cfi_offset 82, -32
 732              		.cfi_offset 83, -28
 733              		.cfi_offset 84, -24
 734              		.cfi_offset 85, -20
 735 0348 64409FE5 		ldr	r4, .L48+20	@ ivtmp.53,
 736              	@ armwave.c:87:         gamma_table[i] = pow(i / 255.0f, gamma) * 255.0f;
  87:armwave.c     ****     }
 737              		.loc 1 87 32 view .LVU180
 738 034c 17AA9FED 		vldr.32	s20, .L48+16	@ tmp128,
 739              	@ armwave.c:87:         gamma_table[i] = pow(i / 255.0f, gamma) * 255.0f;
  87:armwave.c     ****     }
 740              		.loc 1 87 26 view .LVU181
 741 0350 129B9FED 		vldr.64	d9, .L48	@ tmp135,
 742              	@ armwave.c:87:         gamma_table[i] = pow(i / 255.0f, gamma) * 255.0f;
  87:armwave.c     ****     }
 743              		.loc 1 87 49 view .LVU182
 744 0354 138B9FED 		vldr.64	d8, .L48+8	@ tmp131,
 745 0358 015084E2 		add	r5, r4, #1	@ _25, ivtmp.53,
 746 035c 016C84E2 		add	r6, r4, #256	@ _26, ivtmp.53,
 747 0360 015065E2 		rsb	r5, r5, #1	@ tmp134, _25,
 748              	.LVL38:
 749              	.L45:
  87:armwave.c     ****     }
 750              		.loc 1 87 9 is_stmt 1 discriminator 3 view .LVU183
 751              	@ armwave.c:87:         gamma_table[i] = pow(i / 255.0f, gamma) * 255.0f;
  87:armwave.c     ****     }
 752              		.loc 1 87 32 is_stmt 0 discriminator 3 view .LVU184
 753 0364 043085E0 		add	r3, r5, r4	@ tmp125, tmp134, ivtmp.53
 754              	@ armwave.c:87:         gamma_table[i] = pow(i / 255.0f, gamma) * 255.0f;
  87:armwave.c     ****     }
 755              		.loc 1 87 26 discriminator 3 view .LVU185
 756 0368 491BB0EE 		vmov.f64	d1, d9	@, tmp135
 757              	@ armwave.c:87:         gamma_table[i] = pow(i / 255.0f, gamma) * 255.0f;
  87:armwave.c     ****     }
 758              		.loc 1 87 32 discriminator 3 view .LVU186
 759 036c 903A07EE 		vmov	s15, r3	@ int	@ tmp125, tmp125
 760 0370 E77AF8EE 		vcvt.f32.s32	s15, s15	@ tmp126, tmp125
 761 0374 8A0A87EE 		vdiv.f32	s0, s15, s20	@ tmp127, tmp126, tmp128
 762              	@ armwave.c:87:         gamma_table[i] = pow(i / 255.0f, gamma) * 255.0f;
  87:armwave.c     ****     }
 763              		.loc 1 87 26 discriminator 3 view .LVU187
 764 0378 C00AB7EE 		vcvt.f64.f32	d0, s0	@, tmp127
 765 037c FEFFFFEB 		bl	pow		@
 766              	.LVL39:
 767              	@ armwave.c:87:         gamma_table[i] = pow(i / 255.0f, gamma) * 255.0f;
  87:armwave.c     ****     }
 768              		.loc 1 87 49 discriminator 3 view .LVU188
 769 0380 080B20EE 		vmul.f64	d0, d0, d8	@ tmp130,, tmp131
 770              	@ armwave.c:87:         gamma_table[i] = pow(i / 255.0f, gamma) * 255.0f;
  87:armwave.c     ****     }
 771              		.loc 1 87 24 discriminator 3 view .LVU189
 772 0384 C07BFCEE 		vcvt.u32.f64	s15, d0	@ tmp132, tmp130
 773 0388 903A17EE 		vmov	r3, s15	@ int	@ tmp132, tmp132
 774 038c 0130E4E5 		strb	r3, [r4, #1]!	@ tmp132, MEM[base: _24, offset: 0B]
 775              	.LVL40:
 776              	@ armwave.c:86:     for(i = 0; i < 256; i++) {
  86:armwave.c     ****         gamma_table[i] = pow(i / 255.0f, gamma) * 255.0f;
 777              		.loc 1 86 5 discriminator 3 view .LVU190
 778 0390 060054E1 		cmp	r4, r6	@ ivtmp.53, _26
 779 0394 F2FFFF1A 		bne	.L45		@,
 780              	@ armwave.c:89: }
  89:armwave.c     **** 
 781              		.loc 1 89 1 view .LVU191
 782 0398 068BBDEC 		vldm	sp!, {d8-d10}	@,
 783              		.cfi_restore 84
 784              		.cfi_restore 85
 785              		.cfi_restore 82
 786              		.cfi_restore 83
 787              		.cfi_restore 80
 788              		.cfi_restore 81
 789              		.cfi_def_cfa_offset 16
 790 039c 7080BDE8 		pop	{r4, r5, r6, pc}	@
 791              	.LVL41:
 792              	.L49:
  89:armwave.c     **** 
 793              		.loc 1 89 1 view .LVU192
 794              		.align	3
 795              	.L48:
 796 03a0 000000C0 		.word	-1073741824
 797 03a4 CCCCEC3F 		.word	1072483532
 798 03a8 00000000 		.word	0
 799 03ac 00E06F40 		.word	1081073664
 800 03b0 00007F43 		.word	1132396544
 801 03b4 FFFFFFFF 		.word	gamma_table-1
 802              		.cfi_endproc
 803              	.LFE58:
 805              		.align	2
 806              		.global	render_nonaa_to_buffer_1ch_slice
 807              		.syntax unified
 808              		.arm
 809              		.fpu vfp
 811              	render_nonaa_to_buffer_1ch_slice:
 812              	.LVL42:
 813              	.LFB59:
  99:armwave.c     ****     int yy, ys, w, scale_value;
 814              		.loc 1 99 1 is_stmt 1 view -0
 815              		.cfi_startproc
 816              		@ args = 0, pretend = 0, frame = 0
 817              		@ frame_needed = 0, uses_anonymous_args = 0
 100:armwave.c     ****     uint32_t value, word;
 818              		.loc 1 100 5 view .LVU194
 101:armwave.c     ****     uint8_t *wave_base;
 819              		.loc 1 101 5 view .LVU195
 102:armwave.c     ****     uint8_t *write_buffer_base;
 820              		.loc 1 102 5 view .LVU196
 103:armwave.c     ****     uint8_t *write_buffer;
 821              		.loc 1 103 5 view .LVU197
 104:armwave.c     ****     
 822              		.loc 1 104 5 view .LVU198
 106:armwave.c     **** 
 823              		.loc 1 106 5 view .LVU199
 824              	@ armwave.c:106:     write_buffer_base = g_armwave_state.ch1_buffer + (slice_y * g_armwave_state.ta
 106:armwave.c     **** 
 825              		.loc 1 106 40 is_stmt 0 view .LVU200
 826 03b8 F4209FE5 		ldr	r2, .L62	@ tmp257,
 827              	@ armwave.c:99: {
  99:armwave.c     ****     int yy, ys, w, scale_value;
 828              		.loc 1 99 1 view .LVU201
 829 03bc F04F2DE9 		push	{r4, r5, r6, r7, r8, r9, r10, fp, lr}	@
 830              		.cfi_def_cfa_offset 36
 831              		.cfi_offset 4, -36
 832              		.cfi_offset 5, -32
 833              		.cfi_offset 6, -28
 834              		.cfi_offset 7, -24
 835              		.cfi_offset 8, -20
 836              		.cfi_offset 9, -16
 837              		.cfi_offset 10, -12
 838              		.cfi_offset 11, -8
 839              		.cfi_offset 14, -4
 840              	@ armwave.c:109:     for(w = 0; w < g_armwave_state.waves; w++) {
 109:armwave.c     ****         wave_base = g_armwave_state.wave_buffer + slice_y + (w * g_armwave_state.wave_stride);
 841              		.loc 1 109 5 view .LVU202
 842 03c0 243092E5 		ldr	r3, [r2, #36]	@ g_armwave_state.waves, g_armwave_state.waves
 843              	@ armwave.c:106:     write_buffer_base = g_armwave_state.ch1_buffer + (slice_y * g_armwave_state.ta
 106:armwave.c     **** 
 844              		.loc 1 106 63 view .LVU203
 845 03c4 386092E5 		ldr	r6, [r2, #56]	@ g_armwave_state.target_height, g_armwave_state.target_height
 846              	@ armwave.c:109:     for(w = 0; w < g_armwave_state.waves; w++) {
 109:armwave.c     ****         wave_base = g_armwave_state.wave_buffer + slice_y + (w * g_armwave_state.wave_stride);
 847              		.loc 1 109 5 view .LVU204
 848 03c8 000053E3 		cmp	r3, #0	@ g_armwave_state.waves,
 849              	@ armwave.c:106:     write_buffer_base = g_armwave_state.ch1_buffer + (slice_y * g_armwave_state.ta
 106:armwave.c     **** 
 850              		.loc 1 106 40 view .LVU205
 851 03cc 04C092E5 		ldr	ip, [r2, #4]	@ _1, g_armwave_state.ch1_buffer
 852              	@ armwave.c:106:     write_buffer_base = g_armwave_state.ch1_buffer + (slice_y * g_armwave_state.ta
 106:armwave.c     **** 
 853              		.loc 1 106 63 view .LVU206
 854 03d0 960006E0 		mul	r6, r6, r0	@ _3, g_armwave_state.target_height, slice_y
 855              	.LVL43:
 109:armwave.c     ****         wave_base = g_armwave_state.wave_buffer + slice_y + (w * g_armwave_state.wave_stride);
 856              		.loc 1 109 5 is_stmt 1 view .LVU207
 109:armwave.c     ****         wave_base = g_armwave_state.wave_buffer + slice_y + (w * g_armwave_state.wave_stride);
 857              		.loc 1 109 5 is_stmt 0 view .LVU208
 858 03d4 F08FBD08 		popeq	{r4, r5, r6, r7, r8, r9, r10, fp, pc}	@
 859 03d8 000051E3 		cmp	r1, #0	@ height,
 860 03dc F08FBD08 		popeq	{r4, r5, r6, r7, r8, r9, r10, fp, pc}	@
 861 03e0 049040E2 		sub	r9, r0, #4	@ tmp256, slice_y,
 862              	@ armwave.c:109:     for(w = 0; w < g_armwave_state.waves; w++) {
 109:armwave.c     ****         wave_base = g_armwave_state.wave_buffer + slice_y + (w * g_armwave_state.wave_stride);
 863              		.loc 1 109 11 view .LVU209
 864 03e4 0080A0E3 		mov	r8, #0	@ w,
 865              	.LVL44:
 866              	.L54:
 110:armwave.c     **** 
 867              		.loc 1 110 9 is_stmt 1 view .LVU210
 114:armwave.c     ****             word = *(uint32_t*)(wave_base + yy);
 868              		.loc 1 114 9 view .LVU211
 869              	@ armwave.c:110:         wave_base = g_armwave_state.wave_buffer + slice_y + (w * g_armwave_state.w
 110:armwave.c     **** 
 870              		.loc 1 110 64 is_stmt 0 view .LVU212
 871 03e8 203092E5 		ldr	r3, [r2, #32]	@ g_armwave_state.wave_stride, g_armwave_state.wave_stride
 872 03ec 147092E5 		ldr	r7, [r2, #20]	@ g_armwave_state.wave_buffer, g_armwave_state.wave_buffer
 873              	@ armwave.c:114:         for(yy = 0; yy < height; yy += 4) {
 114:armwave.c     ****             word = *(uint32_t*)(wave_base + yy);
 874              		.loc 1 114 16 view .LVU213
 875 03f0 0000A0E3 		mov	r0, #0	@ yy,
 876 03f4 939823E0 		mla	r3, r3, r8, r9	@ tmp195, g_armwave_state.wave_stride, w, tmp256
 877 03f8 037087E0 		add	r7, r7, r3	@ ivtmp.59, g_armwave_state.wave_buffer, tmp195
 878              	.LVL45:
 879              	.L53:
 115:armwave.c     **** 
 880              		.loc 1 115 13 is_stmt 1 view .LVU214
 881              	@ armwave.c:115:             word = *(uint32_t*)(wave_base + yy);
 115:armwave.c     **** 
 882              		.loc 1 115 18 is_stmt 0 view .LVU215
 883 03fc 0430B7E5 		ldr	r3, [r7, #4]!	@ word, MEM[base: _162, offset: 0B]
 884              	.LVL46:
 117:armwave.c     ****                 scale_value = (word & 0xff) * g_armwave_state.vscale;
 885              		.loc 1 117 13 is_stmt 1 view .LVU216
 118:armwave.c     ****                 write_buffer = write_buffer_base + ((yy + ys) * g_armwave_state.target_height);
 886              		.loc 1 118 17 view .LVU217
 119:armwave.c     ****                 *(write_buffer + scale_value) += 1;
 887              		.loc 1 119 17 view .LVU218
 120:armwave.c     ****                 word >>= 8;
 888              		.loc 1 120 17 view .LVU219
 889              	@ armwave.c:118:                 scale_value = (word & 0xff) * g_armwave_state.vscale;
 118:armwave.c     ****                 write_buffer = write_buffer_base + ((yy + ys) * g_armwave_state.target_height);
 890              		.loc 1 118 45 is_stmt 0 view .LVU220
 891 0400 1CA092E5 		ldr	r10, [r2, #28]	@ g_armwave_state.vscale, g_armwave_state.vscale
 892              	@ armwave.c:119:                 write_buffer = write_buffer_base + ((yy + ys) * g_armwave_state.ta
 119:armwave.c     ****                 *(write_buffer + scale_value) += 1;
 893              		.loc 1 119 63 view .LVU221
 894 0404 385092E5 		ldr	r5, [r2, #56]	@ g_armwave_state.target_height, g_armwave_state.target_height
 895              	@ armwave.c:118:                 scale_value = (word & 0xff) * g_armwave_state.vscale;
 118:armwave.c     ****                 write_buffer = write_buffer_base + ((yy + ys) * g_armwave_state.target_height);
 896              		.loc 1 118 37 view .LVU222
 897 0408 73E0EFE6 		uxtb	lr, r3	@ word, word
 898              	@ armwave.c:121:                 word >>= 8;
 121:armwave.c     ****             }
 899              		.loc 1 121 22 view .LVU223
 900 040c 2344A0E1 		lsr	r4, r3, #8	@ word, word,
 901              	@ armwave.c:120:                 *(write_buffer + scale_value) += 1;
 120:armwave.c     ****                 word >>= 8;
 902              		.loc 1 120 47 view .LVU224
 903 0410 9A6E2EE0 		mla	lr, r10, lr, r6	@ tmp201, g_armwave_state.vscale, word, _3
 904              	@ armwave.c:118:                 scale_value = (word & 0xff) * g_armwave_state.vscale;
 118:armwave.c     ****                 write_buffer = write_buffer_base + ((yy + ys) * g_armwave_state.target_height);
 905              		.loc 1 118 37 view .LVU225
 906 0414 7440EFE6 		uxtb	r4, r4	@ word, word
 907              	@ armwave.c:120:                 *(write_buffer + scale_value) += 1;
 120:armwave.c     ****                 word >>= 8;
 908              		.loc 1 120 47 view .LVU226
 909 0418 95E025E0 		mla	r5, r5, r0, lr	@ tmp205, g_armwave_state.target_height, yy, tmp201
 910              	@ armwave.c:119:                 write_buffer = write_buffer_base + ((yy + ys) * g_armwave_state.ta
 119:armwave.c     ****                 *(write_buffer + scale_value) += 1;
 911              		.loc 1 119 63 view .LVU227
 912 041c 01B080E2 		add	fp, r0, #1	@ tmp217, yy,
 913              	@ armwave.c:121:                 word >>= 8;
 121:armwave.c     ****             }
 914              		.loc 1 121 22 view .LVU228
 915 0420 23E8A0E1 		lsr	lr, r3, #16	@ word, word,
 916              	@ armwave.c:120:                 *(write_buffer + scale_value) += 1;
 120:armwave.c     ****                 word >>= 8;
 917              		.loc 1 120 47 view .LVU229
 918 0424 05A0DCE7 		ldrb	r10, [ip, r5]	@ zero_extendqisi2	@ *_55, *_55
 919              	@ armwave.c:118:                 scale_value = (word & 0xff) * g_armwave_state.vscale;
 118:armwave.c     ****                 write_buffer = write_buffer_base + ((yy + ys) * g_armwave_state.target_height);
 920              		.loc 1 118 37 view .LVU230
 921 0428 7EE0EFE6 		uxtb	lr, lr	@ word, word
 922              	@ armwave.c:121:                 word >>= 8;
 121:armwave.c     ****             }
 923              		.loc 1 121 22 view .LVU231
 924 042c 233CA0E1 		lsr	r3, r3, #24	@ word, word,
 925              	.LVL47:
 926              	@ armwave.c:120:                 *(write_buffer + scale_value) += 1;
 120:armwave.c     ****                 word >>= 8;
 927              		.loc 1 120 47 view .LVU232
 928 0430 01A08AE2 		add	r10, r10, #1	@ tmp208, *_55,
 929 0434 05A0CCE7 		strb	r10, [ip, r5]	@ tmp208, *_55
 930              	.LVL48:
 121:armwave.c     ****             }
 931              		.loc 1 121 17 is_stmt 1 view .LVU233
 118:armwave.c     ****                 write_buffer = write_buffer_base + ((yy + ys) * g_armwave_state.target_height);
 932              		.loc 1 118 17 view .LVU234
 119:armwave.c     ****                 *(write_buffer + scale_value) += 1;
 933              		.loc 1 119 17 view .LVU235
 120:armwave.c     ****                 word >>= 8;
 934              		.loc 1 120 17 view .LVU236
 935              	@ armwave.c:118:                 scale_value = (word & 0xff) * g_armwave_state.vscale;
 118:armwave.c     ****                 write_buffer = write_buffer_base + ((yy + ys) * g_armwave_state.target_height);
 936              		.loc 1 118 45 is_stmt 0 view .LVU237
 937 0438 1CA092E5 		ldr	r10, [r2, #28]	@ g_armwave_state.vscale, g_armwave_state.vscale
 938              	@ armwave.c:119:                 write_buffer = write_buffer_base + ((yy + ys) * g_armwave_state.ta
 119:armwave.c     ****                 *(write_buffer + scale_value) += 1;
 939              		.loc 1 119 63 view .LVU238
 940 043c 385092E5 		ldr	r5, [r2, #56]	@ g_armwave_state.target_height, g_armwave_state.target_height
 941              	@ armwave.c:120:                 *(write_buffer + scale_value) += 1;
 120:armwave.c     ****                 word >>= 8;
 942              		.loc 1 120 47 view .LVU239
 943 0440 9A6424E0 		mla	r4, r10, r4, r6	@ tmp215, g_armwave_state.vscale, word, _3
 944              	@ armwave.c:119:                 write_buffer = write_buffer_base + ((yy + ys) * g_armwave_state.ta
 119:armwave.c     ****                 *(write_buffer + scale_value) += 1;
 945              		.loc 1 119 63 view .LVU240
 946 0444 02A080E2 		add	r10, r0, #2	@ tmp232, yy,
 947              	@ armwave.c:120:                 *(write_buffer + scale_value) += 1;
 120:armwave.c     ****                 word >>= 8;
 948              		.loc 1 120 47 view .LVU241
 949 0448 954B24E0 		mla	r4, r5, fp, r4	@ tmp220, g_armwave_state.target_height, tmp217, tmp215
 950              	@ armwave.c:119:                 write_buffer = write_buffer_base + ((yy + ys) * g_armwave_state.ta
 119:armwave.c     ****                 *(write_buffer + scale_value) += 1;
 951              		.loc 1 119 63 view .LVU242
 952 044c 035080E2 		add	r5, r0, #3	@ tmp246, yy,
 953              	@ armwave.c:114:         for(yy = 0; yy < height; yy += 4) {
 114:armwave.c     ****             word = *(uint32_t*)(wave_base + yy);
 954              		.loc 1 114 37 view .LVU243
 955 0450 040080E2 		add	r0, r0, #4	@ yy, yy,
 956              	.LVL49:
 957              	@ armwave.c:120:                 *(write_buffer + scale_value) += 1;
 120:armwave.c     ****                 word >>= 8;
 958              		.loc 1 120 47 view .LVU244
 959 0454 04B0DCE7 		ldrb	fp, [ip, r4]	@ zero_extendqisi2	@ *_75, *_75
 960              	@ armwave.c:114:         for(yy = 0; yy < height; yy += 4) {
 114:armwave.c     ****             word = *(uint32_t*)(wave_base + yy);
 961              		.loc 1 114 9 view .LVU245
 962 0458 000051E1 		cmp	r1, r0	@ height, yy
 963              	@ armwave.c:120:                 *(write_buffer + scale_value) += 1;
 120:armwave.c     ****                 word >>= 8;
 964              		.loc 1 120 47 view .LVU246
 965 045c 01B08BE2 		add	fp, fp, #1	@ tmp223, *_75,
 966 0460 04B0CCE7 		strb	fp, [ip, r4]	@ tmp223, *_75
 967              	.LVL50:
 121:armwave.c     ****             }
 968              		.loc 1 121 17 is_stmt 1 view .LVU247
 118:armwave.c     ****                 write_buffer = write_buffer_base + ((yy + ys) * g_armwave_state.target_height);
 969              		.loc 1 118 17 view .LVU248
 119:armwave.c     ****                 *(write_buffer + scale_value) += 1;
 970              		.loc 1 119 17 view .LVU249
 120:armwave.c     ****                 word >>= 8;
 971              		.loc 1 120 17 view .LVU250
 972              	@ armwave.c:118:                 scale_value = (word & 0xff) * g_armwave_state.vscale;
 118:armwave.c     ****                 write_buffer = write_buffer_base + ((yy + ys) * g_armwave_state.target_height);
 973              		.loc 1 118 45 is_stmt 0 view .LVU251
 974 0464 1CB092E5 		ldr	fp, [r2, #28]	@ g_armwave_state.vscale, g_armwave_state.vscale
 975              	@ armwave.c:119:                 write_buffer = write_buffer_base + ((yy + ys) * g_armwave_state.ta
 119:armwave.c     ****                 *(write_buffer + scale_value) += 1;
 976              		.loc 1 119 63 view .LVU252
 977 0468 384092E5 		ldr	r4, [r2, #56]	@ g_armwave_state.target_height, g_armwave_state.target_height
 978              	@ armwave.c:120:                 *(write_buffer + scale_value) += 1;
 120:armwave.c     ****                 word >>= 8;
 979              		.loc 1 120 47 view .LVU253
 980 046c 9B6E2EE0 		mla	lr, fp, lr, r6	@ tmp230, g_armwave_state.vscale, word, _3
 981 0470 94EA2EE0 		mla	lr, r4, r10, lr	@ tmp235, g_armwave_state.target_height, tmp232, tmp230
 982 0474 0E40DCE7 		ldrb	r4, [ip, lr]	@ zero_extendqisi2	@ *_95, *_95
 983 0478 014084E2 		add	r4, r4, #1	@ tmp238, *_95,
 984 047c 0E40CCE7 		strb	r4, [ip, lr]	@ tmp238, *_95
 121:armwave.c     ****             }
 985              		.loc 1 121 17 is_stmt 1 view .LVU254
 986              	.LVL51:
 118:armwave.c     ****                 write_buffer = write_buffer_base + ((yy + ys) * g_armwave_state.target_height);
 987              		.loc 1 118 17 view .LVU255
 119:armwave.c     ****                 *(write_buffer + scale_value) += 1;
 988              		.loc 1 119 17 view .LVU256
 120:armwave.c     ****                 word >>= 8;
 989              		.loc 1 120 17 view .LVU257
 990              	@ armwave.c:118:                 scale_value = (word & 0xff) * g_armwave_state.vscale;
 118:armwave.c     ****                 write_buffer = write_buffer_base + ((yy + ys) * g_armwave_state.target_height);
 991              		.loc 1 118 45 is_stmt 0 view .LVU258
 992 0480 1C4092E5 		ldr	r4, [r2, #28]	@ g_armwave_state.vscale, g_armwave_state.vscale
 993              	@ armwave.c:119:                 write_buffer = write_buffer_base + ((yy + ys) * g_armwave_state.ta
 119:armwave.c     ****                 *(write_buffer + scale_value) += 1;
 994              		.loc 1 119 63 view .LVU259
 995 0484 38E092E5 		ldr	lr, [r2, #56]	@ g_armwave_state.target_height, g_armwave_state.target_height
 996              	@ armwave.c:120:                 *(write_buffer + scale_value) += 1;
 120:armwave.c     ****                 word >>= 8;
 997              		.loc 1 120 47 view .LVU260
 998 0488 946323E0 		mla	r3, r4, r3, r6	@ tmp244, g_armwave_state.vscale, word, _3
 999 048c 9E3523E0 		mla	r3, lr, r5, r3	@ tmp249, g_armwave_state.target_height, tmp246, tmp244
 1000 0490 03E0DCE7 		ldrb	lr, [ip, r3]	@ zero_extendqisi2	@ *_115, *_115
 1001 0494 01E08EE2 		add	lr, lr, #1	@ tmp252, *_115,
 1002 0498 03E0CCE7 		strb	lr, [ip, r3]	@ tmp252, *_115
 121:armwave.c     ****             }
 1003              		.loc 1 121 17 is_stmt 1 view .LVU261
 1004              	.LVL52:
 1005              	@ armwave.c:114:         for(yy = 0; yy < height; yy += 4) {
 114:armwave.c     ****             word = *(uint32_t*)(wave_base + yy);
 1006              		.loc 1 114 9 is_stmt 0 view .LVU262
 1007 049c D6FFFF8A 		bhi	.L53		@,
 1008              	@ armwave.c:109:     for(w = 0; w < g_armwave_state.waves; w++) {
 109:armwave.c     ****         wave_base = g_armwave_state.wave_buffer + slice_y + (w * g_armwave_state.wave_stride);
 1009              		.loc 1 109 5 view .LVU263
 1010 04a0 243092E5 		ldr	r3, [r2, #36]	@ g_armwave_state.waves, g_armwave_state.waves
 1011              	@ armwave.c:109:     for(w = 0; w < g_armwave_state.waves; w++) {
 109:armwave.c     ****         wave_base = g_armwave_state.wave_buffer + slice_y + (w * g_armwave_state.wave_stride);
 1012              		.loc 1 109 44 view .LVU264
 1013 04a4 018088E2 		add	r8, r8, #1	@ w, w,
 1014              	.LVL53:
 1015              	@ armwave.c:109:     for(w = 0; w < g_armwave_state.waves; w++) {
 109:armwave.c     ****         wave_base = g_armwave_state.wave_buffer + slice_y + (w * g_armwave_state.wave_stride);
 1016              		.loc 1 109 5 view .LVU265
 1017 04a8 030058E1 		cmp	r8, r3	@ w, g_armwave_state.waves
 1018 04ac CDFFFF3A 		bcc	.L54		@,
 1019 04b0 F08FBDE8 		pop	{r4, r5, r6, r7, r8, r9, r10, fp, pc}	@
 1020              	.L63:
 1021              		.align	2
 1022              	.L62:
 1023 04b4 00000000 		.word	g_armwave_state
 1024              		.cfi_endproc
 1025              	.LFE59:
 1027              		.align	2
 1028              		.global	armwave_init
 1029              		.syntax unified
 1030              		.arm
 1031              		.fpu vfp
 1033              	armwave_init:
 1034              	.LFB60:
 128:armwave.c     ****     g_armwave_state.flags = 0;
 1035              		.loc 1 128 1 is_stmt 1 view -0
 1036              		.cfi_startproc
 1037              		@ args = 0, pretend = 0, frame = 0
 1038              		@ frame_needed = 0, uses_anonymous_args = 0
 1039              		@ link register save eliminated.
 129:armwave.c     **** }
 1040              		.loc 1 129 5 view .LVU267
 1041              	@ armwave.c:129:     g_armwave_state.flags = 0;
 129:armwave.c     **** }
 1042              		.loc 1 129 27 is_stmt 0 view .LVU268
 1043 04b8 08309FE5 		ldr	r3, .L65	@ tmp110,
 1044 04bc 0020A0E3 		mov	r2, #0	@ tmp111,
 1045 04c0 002083E5 		str	r2, [r3]	@ tmp111, g_armwave_state.flags
 1046              	@ armwave.c:130: }
 130:armwave.c     **** 
 1047              		.loc 1 130 1 view .LVU269
 1048 04c4 1EFF2FE1 		bx	lr	@
 1049              	.L66:
 1050              		.align	2
 1051              	.L65:
 1052 04c8 00000000 		.word	g_armwave_state
 1053              		.cfi_endproc
 1054              	.LFE60:
 1056              		.align	2
 1057              		.global	armwave_setup_render
 1058              		.syntax unified
 1059              		.arm
 1060              		.fpu vfp
 1062              	armwave_setup_render:
 1063              	.LVL54:
 1064              	.LFB61:
 133:armwave.c     ****     uint32_t length, xx;
 1065              		.loc 1 133 1 is_stmt 1 view -0
 1066              		.cfi_startproc
 1067              		@ args = 16, pretend = 0, frame = 0
 1068              		@ frame_needed = 0, uses_anonymous_args = 0
 134:armwave.c     ****     float points_per_pixel;
 1069              		.loc 1 134 5 view .LVU271
 135:armwave.c     **** 
 1070              		.loc 1 135 5 view .LVU272
 137:armwave.c     **** 
 1071              		.loc 1 137 5 view .LVU273
 1072              	@ armwave.c:133: {
 133:armwave.c     ****     uint32_t length, xx;
 1073              		.loc 1 133 1 is_stmt 0 view .LVU274
 1074 04cc F0412DE9 		push	{r4, r5, r6, r7, r8, lr}	@
 1075              		.cfi_def_cfa_offset 24
 1076              		.cfi_offset 4, -24
 1077              		.cfi_offset 5, -20
 1078              		.cfi_offset 6, -16
 1079              		.cfi_offset 7, -12
 1080              		.cfi_offset 8, -8
 1081              		.cfi_offset 14, -4
 1082              	@ armwave.c:137:     assert(start_point < end_point);
 137:armwave.c     **** 
 1083              		.loc 1 137 5 view .LVU275
 1084 04d0 020051E1 		cmp	r1, r2	@ start_point, end_point
 1085              	@ armwave.c:133: {
 133:armwave.c     ****     uint32_t length, xx;
 1086              		.loc 1 133 1 view .LVU276
 1087 04d4 028B2DED 		vpush.64	{d8}	@
 1088              		.cfi_def_cfa_offset 32
 1089              		.cfi_offset 80, -32
 1090              		.cfi_offset 81, -28
 1091              	@ armwave.c:133: {
 133:armwave.c     ****     uint32_t length, xx;
 1092              		.loc 1 133 1 view .LVU277
 1093 04d8 0180A0E1 		mov	r8, r1	@ start_point, start_point
 1094 04dc 0250A0E1 		mov	r5, r2	@ end_point, end_point
 1095 04e0 20109DE5 		ldr	r1, [sp, #32]	@ wave_stride, wave_stride
 1096              	.LVL55:
 133:armwave.c     ****     uint32_t length, xx;
 1097              		.loc 1 133 1 view .LVU278
 1098 04e4 24709DE5 		ldr	r7, [sp, #36]	@ target_width, target_width
 1099 04e8 28209DE5 		ldr	r2, [sp, #40]	@ target_height, target_height
 1100              	.LVL56:
 1101              	@ armwave.c:137:     assert(start_point < end_point);
 137:armwave.c     **** 
 1102              		.loc 1 137 5 view .LVU279
 1103 04ec 6800002A 		bcs	.L83		@,
 140:armwave.c     **** 
 1104              		.loc 1 140 5 is_stmt 1 view .LVU280
 1105              	@ armwave.c:140:     g_armwave_state.wave_buffer = wave_buffer;
 140:armwave.c     **** 
 1106              		.loc 1 140 33 is_stmt 0 view .LVU281
 1107 04f0 B4419FE5 		ldr	r4, .L88+4	@ tmp217,
 1108              	@ armwave.c:143:     assert(target_height == 256 || target_height == 512 || target_height == 1024 |
 143:armwave.c     **** 
 1109              		.loc 1 143 5 view .LVU282
 1110 04f4 01CC42E2 		sub	ip, r2, #256	@ tmp151, target_height,
 1111 04f8 01CCDCE3 		bics	ip, ip, #256	@ tmp219, tmp151,
 1112              	@ armwave.c:140:     g_armwave_state.wave_buffer = wave_buffer;
 140:armwave.c     **** 
 1113              		.loc 1 140 33 view .LVU283
 1114 04fc 140084E5 		str	r0, [r4, #20]	@ wave_buffer, g_armwave_state.wave_buffer
 143:armwave.c     **** 
 1115              		.loc 1 143 5 is_stmt 1 view .LVU284
 1116 0500 4500000A 		beq	.L69		@,
 1117              	@ armwave.c:143:     assert(target_height == 256 || target_height == 512 || target_height == 1024 |
 143:armwave.c     **** 
 1118              		.loc 1 143 5 is_stmt 0 discriminator 1 view .LVU285
 1119 0504 010B42E2 		sub	r0, r2, #1024	@ tmp153, target_height,
 1120              	.LVL57:
 143:armwave.c     **** 
 1121              		.loc 1 143 5 discriminator 1 view .LVU286
 1122 0508 010BD0E3 		bics	r0, r0, #1024	@ tmp220, tmp153,
 1123 050c 5100001A 		bne	.L84		@,
 145:armwave.c     ****         g_armwave_state.row_shift = 8;
 1124              		.loc 1 145 5 is_stmt 1 view .LVU287
 151:armwave.c     ****         g_armwave_state.row_shift = 10;
 1125              		.loc 1 151 12 view .LVU288
 1126              	@ armwave.c:151:     } else if(target_height == 1024) {
 151:armwave.c     ****         g_armwave_state.row_shift = 10;
 1127              		.loc 1 151 14 is_stmt 0 view .LVU289
 1128 0510 010B52E3 		cmp	r2, #1024	@ target_height,
 1129 0514 4A00000A 		beq	.L85		@,
 154:armwave.c     ****         g_armwave_state.row_shift = 11;
 1130              		.loc 1 154 12 is_stmt 1 view .LVU290
 1131              	@ armwave.c:154:     } else if(target_height == 2048) {
 154:armwave.c     ****         g_armwave_state.row_shift = 11;
 1132              		.loc 1 154 14 is_stmt 0 view .LVU291
 1133 0518 020B52E3 		cmp	r2, #2048	@ target_height,
 155:armwave.c     ****         g_armwave_state.row_mask = 0x7ff;
 1134              		.loc 1 155 9 is_stmt 1 view .LVU292
 1135              	@ armwave.c:155:         g_armwave_state.row_shift = 11;
 155:armwave.c     ****         g_armwave_state.row_mask = 0x7ff;
 1136              		.loc 1 155 35 is_stmt 0 view .LVU293
 1137 051c 0B00A003 		moveq	r0, #11	@ tmp171,
 1138              	@ armwave.c:156:         g_armwave_state.row_mask = 0x7ff;
 156:armwave.c     ****     } 
 1139              		.loc 1 156 34 view .LVU294
 1140 0520 88C19F05 		ldreq	ip, .L88+8	@ tmp173,
 1141              	@ armwave.c:155:         g_armwave_state.row_shift = 11;
 155:armwave.c     ****         g_armwave_state.row_mask = 0x7ff;
 1142              		.loc 1 155 35 view .LVU295
 1143 0524 3C008405 		streq	r0, [r4, #60]	@ tmp171, g_armwave_state.row_shift
 156:armwave.c     ****     } 
 1144              		.loc 1 156 9 is_stmt 1 view .LVU296
 1145              	@ armwave.c:156:         g_armwave_state.row_mask = 0x7ff;
 156:armwave.c     ****     } 
 1146              		.loc 1 156 34 is_stmt 0 view .LVU297
 1147 0528 40C08405 		streq	ip, [r4, #64]	@ tmp173, g_armwave_state.row_mask
 1148              	.L72:
 160:armwave.c     ****     g_armwave_state.vscale = target_height / 256;
 1149              		.loc 1 160 5 is_stmt 1 view .LVU298
 1150              	@ armwave.c:164:     g_armwave_state.size = target_height * target_width;
 164:armwave.c     ****     g_armwave_state.target_width = target_width;
 1151              		.loc 1 164 42 is_stmt 0 view .LVU299
 1152 052c 970206E0 		mul	r6, r7, r2	@ _8, target_width, target_height
 1153              	@ armwave.c:173:     if(g_armwave_state.ch1_buffer != NULL)
 173:armwave.c     ****         free(g_armwave_state.ch1_buffer);
 1154              		.loc 1 173 23 view .LVU300
 1155 0530 040094E5 		ldr	r0, [r4, #4]	@ _9, g_armwave_state.ch1_buffer
 1156              	@ armwave.c:162:     g_armwave_state.wave_stride = wave_stride;
 162:armwave.c     ****     g_armwave_state.waves = waves;
 1157              		.loc 1 162 33 view .LVU301
 1158 0534 201084E5 		str	r1, [r4, #32]	@ wave_stride, g_armwave_state.wave_stride
 1159              	@ armwave.c:163:     g_armwave_state.waves = waves;
 163:armwave.c     ****     g_armwave_state.size = target_height * target_width;
 1160              		.loc 1 163 27 view .LVU302
 1161 0538 243084E5 		str	r3, [r4, #36]	@ waves, g_armwave_state.waves
 1162              	@ armwave.c:161:     g_armwave_state.vscale = target_height / 256;
 161:armwave.c     ****     g_armwave_state.wave_stride = wave_stride;
 1163              		.loc 1 161 44 view .LVU303
 1164 053c 2214A0E1 		lsr	r1, r2, #8	@ tmp176, target_height,
 1165              	@ armwave.c:171:     g_armwave_state.slice_height = 64;  
 171:armwave.c     **** 
 1166              		.loc 1 171 34 view .LVU304
 1167 0540 4030A0E3 		mov	r3, #64	@ tmp183,
 1168              	.LVL58:
 1169              	@ armwave.c:173:     if(g_armwave_state.ch1_buffer != NULL)
 173:armwave.c     ****         free(g_armwave_state.ch1_buffer);
 1170              		.loc 1 173 7 view .LVU305
 1171 0544 000050E3 		cmp	r0, #0	@ _9,
 1172              	@ armwave.c:160:     g_armwave_state.xstride = target_height;
 160:armwave.c     ****     g_armwave_state.vscale = target_height / 256;
 1173              		.loc 1 160 29 view .LVU306
 1174 0548 182084E5 		str	r2, [r4, #24]	@ target_height, g_armwave_state.xstride
 161:armwave.c     ****     g_armwave_state.wave_stride = wave_stride;
 1175              		.loc 1 161 5 is_stmt 1 view .LVU307
 1176              	@ armwave.c:165:     g_armwave_state.target_width = target_width;
 165:armwave.c     ****     g_armwave_state.target_height = target_height;
 1177              		.loc 1 165 34 is_stmt 0 view .LVU308
 1178 054c 347084E5 		str	r7, [r4, #52]	@ target_width, g_armwave_state.target_width
 1179              	@ armwave.c:166:     g_armwave_state.target_height = target_height;
 166:armwave.c     **** 
 1180              		.loc 1 166 35 view .LVU309
 1181 0550 382084E5 		str	r2, [r4, #56]	@ target_height, g_armwave_state.target_height
 1182              	@ armwave.c:164:     g_armwave_state.size = target_height * target_width;
 164:armwave.c     ****     g_armwave_state.target_width = target_width;
 1183              		.loc 1 164 26 view .LVU310
 1184 0554 306084E5 		str	r6, [r4, #48]	@ _8, g_armwave_state.size
 1185              	@ armwave.c:161:     g_armwave_state.vscale = target_height / 256;
 161:armwave.c     ****     g_armwave_state.wave_stride = wave_stride;
 1186              		.loc 1 161 28 view .LVU311
 1187 0558 1C1084E5 		str	r1, [r4, #28]	@ tmp176, g_armwave_state.vscale
 162:armwave.c     ****     g_armwave_state.waves = waves;
 1188              		.loc 1 162 5 is_stmt 1 view .LVU312
 163:armwave.c     ****     g_armwave_state.size = target_height * target_width;
 1189              		.loc 1 163 5 view .LVU313
 164:armwave.c     ****     g_armwave_state.target_width = target_width;
 1190              		.loc 1 164 5 view .LVU314
 165:armwave.c     ****     g_armwave_state.target_height = target_height;
 1191              		.loc 1 165 5 view .LVU315
 166:armwave.c     **** 
 1192              		.loc 1 166 5 view .LVU316
 171:armwave.c     **** 
 1193              		.loc 1 171 5 view .LVU317
 1194              	@ armwave.c:171:     g_armwave_state.slice_height = 64;  
 171:armwave.c     **** 
 1195              		.loc 1 171 34 is_stmt 0 view .LVU318
 1196 055c 283084E5 		str	r3, [r4, #40]	@ tmp183, g_armwave_state.slice_height
 173:armwave.c     ****         free(g_armwave_state.ch1_buffer);
 1197              		.loc 1 173 5 is_stmt 1 view .LVU319
 1198              	@ armwave.c:173:     if(g_armwave_state.ch1_buffer != NULL)
 173:armwave.c     ****         free(g_armwave_state.ch1_buffer);
 1199              		.loc 1 173 7 is_stmt 0 view .LVU320
 1200 0560 0100000A 		beq	.L74		@,
 174:armwave.c     **** 
 1201              		.loc 1 174 9 is_stmt 1 view .LVU321
 1202 0564 FEFFFFEB 		bl	free		@
 1203              	.LVL59:
 174:armwave.c     **** 
 1204              		.loc 1 174 9 is_stmt 0 view .LVU322
 1205 0568 306094E5 		ldr	r6, [r4, #48]	@ _8, g_armwave_state.size
 1206              	.L74:
 176:armwave.c     ****     g_armwave_state.ch1_color.r = 255 * overall_scale;
 1207              		.loc 1 176 5 is_stmt 1 view .LVU323
 1208              	@ armwave.c:176:     g_armwave_state.ch1_buffer = calloc(g_armwave_state.size, 1);
 176:armwave.c     ****     g_armwave_state.ch1_color.r = 255 * overall_scale;
 1209              		.loc 1 176 34 is_stmt 0 view .LVU324
 1210 056c 0110A0E3 		mov	r1, #1	@,
 1211 0570 0600A0E1 		mov	r0, r6	@, _8
 1212 0574 FEFFFFEB 		bl	calloc		@
 1213              	.LVL60:
 1214              	@ armwave.c:177:     g_armwave_state.ch1_color.r = 255 * overall_scale;
 177:armwave.c     ****     g_armwave_state.ch1_color.g = 178 * overall_scale;
 1215              		.loc 1 177 33 view .LVU325
 1216 0578 34219FE5 		ldr	r2, .L88+12	@ tmp189,
 1217              	@ armwave.c:179:     g_armwave_state.ch1_color.b = 25 * overall_scale;
 179:armwave.c     **** 
 1218              		.loc 1 179 33 view .LVU326
 1219 057c FA30A0E3 		mov	r3, #250	@ tmp192,
 1220              	@ armwave.c:177:     g_armwave_state.ch1_color.r = 255 * overall_scale;
 177:armwave.c     ****     g_armwave_state.ch1_color.g = 178 * overall_scale;
 1221              		.loc 1 177 33 view .LVU327
 1222 0580 482084E5 		str	r2, [r4, #72]	@ tmp189, MEM[(short int *)&g_armwave_state + 72B]
 1223              	@ armwave.c:179:     g_armwave_state.ch1_color.b = 25 * overall_scale;
 179:armwave.c     **** 
 1224              		.loc 1 179 33 view .LVU328
 1225 0584 BC34C4E1 		strh	r3, [r4, #76]	@ movhi	@ tmp192, g_armwave_state.ch1_color.b
 1226              	@ armwave.c:181:     assert(g_armwave_state.ch1_buffer != NULL);
 181:armwave.c     **** 
 1227              		.loc 1 181 5 view .LVU329
 1228 0588 000050E3 		cmp	r0, #0	@ tmp186,
 1229              	@ armwave.c:176:     g_armwave_state.ch1_buffer = calloc(g_armwave_state.size, 1);
 176:armwave.c     ****     g_armwave_state.ch1_color.r = 255 * overall_scale;
 1230              		.loc 1 176 32 view .LVU330
 1231 058c 040084E5 		str	r0, [r4, #4]	@ tmp186, g_armwave_state.ch1_buffer
 177:armwave.c     ****     g_armwave_state.ch1_color.g = 178 * overall_scale;
 1232              		.loc 1 177 5 is_stmt 1 view .LVU331
 178:armwave.c     ****     g_armwave_state.ch1_color.b = 25 * overall_scale;
 1233              		.loc 1 178 5 view .LVU332
 179:armwave.c     **** 
 1234              		.loc 1 179 5 view .LVU333
 181:armwave.c     **** 
 1235              		.loc 1 181 5 view .LVU334
 1236 0590 3500000A 		beq	.L86		@,
 184:armwave.c     ****     points_per_pixel = length / ((float)(target_width));
 1237              		.loc 1 184 5 view .LVU335
 1238              	@ armwave.c:185:     points_per_pixel = length / ((float)(target_width));
 185:armwave.c     ****     g_armwave_state.slice_record_height = points_per_pixel * g_armwave_state.slice_height;
 1239              		.loc 1 185 34 is_stmt 0 view .LVU336
 1240 0594 907A07EE 		vmov	s15, r7	@ int	@ target_width, target_width
 1241              	@ armwave.c:184:     length = end_point - start_point;
 184:armwave.c     ****     points_per_pixel = length / ((float)(target_width));
 1242              		.loc 1 184 12 view .LVU337
 1243 0598 085045E0 		sub	r5, r5, r8	@ length, end_point, start_point
 1244              	.LVL61:
 185:armwave.c     ****     g_armwave_state.slice_record_height = points_per_pixel * g_armwave_state.slice_height;
 1245              		.loc 1 185 5 is_stmt 1 view .LVU338
 1246              	@ armwave.c:187:     g_armwave_state.xcoord_to_xpixel = malloc(length * sizeof(uint16_t));
 187:armwave.c     **** 
 1247              		.loc 1 187 40 is_stmt 0 view .LVU339
 1248 059c 8500A0E1 		lsl	r0, r5, #1	@, length,
 1249              	@ armwave.c:185:     points_per_pixel = length / ((float)(target_width));
 185:armwave.c     ****     g_armwave_state.slice_record_height = points_per_pixel * g_armwave_state.slice_height;
 1250              		.loc 1 185 34 view .LVU340
 1251 05a0 677AB8EE 		vcvt.f32.u32	s14, s15	@ tmp197, target_width
 1252              	@ armwave.c:185:     points_per_pixel = length / ((float)(target_width));
 185:armwave.c     ****     g_armwave_state.slice_record_height = points_per_pixel * g_armwave_state.slice_height;
 1253              		.loc 1 185 31 view .LVU341
 1254 05a4 905A07EE 		vmov	s15, r5	@ int	@ length, length
 1255 05a8 676AF8EE 		vcvt.f32.u32	s13, s15	@ tmp196, length
 1256              	@ armwave.c:186:     g_armwave_state.slice_record_height = points_per_pixel * g_armwave_state.slice
 186:armwave.c     ****     g_armwave_state.xcoord_to_xpixel = malloc(length * sizeof(uint16_t));
 1257              		.loc 1 186 60 view .LVU342
 1258 05ac 0A7AD4ED 		vldr.32	s15, [r4, #40]	@ int	@ tmp223, g_armwave_state.slice_height
 1259 05b0 677AF8EE 		vcvt.f32.u32	s15, s15	@ tmp200, tmp223
 1260              	@ armwave.c:185:     points_per_pixel = length / ((float)(target_width));
 185:armwave.c     ****     g_armwave_state.slice_record_height = points_per_pixel * g_armwave_state.slice_height;
 1261              		.loc 1 185 22 view .LVU343
 1262 05b4 878A86EE 		vdiv.f32	s16, s13, s14	@ points_per_pixel, tmp196, tmp197
 1263              	.LVL62:
 186:armwave.c     ****     g_armwave_state.xcoord_to_xpixel = malloc(length * sizeof(uint16_t));
 1264              		.loc 1 186 5 is_stmt 1 view .LVU344
 1265              	@ armwave.c:186:     g_armwave_state.slice_record_height = points_per_pixel * g_armwave_state.slice
 186:armwave.c     ****     g_armwave_state.xcoord_to_xpixel = malloc(length * sizeof(uint16_t));
 1266              		.loc 1 186 60 is_stmt 0 view .LVU345
 1267 05b8 887A67EE 		vmul.f32	s15, s15, s16	@ tmp202, tmp200, points_per_pixel
 1268              	@ armwave.c:186:     g_armwave_state.slice_record_height = points_per_pixel * g_armwave_state.slice
 186:armwave.c     ****     g_armwave_state.xcoord_to_xpixel = malloc(length * sizeof(uint16_t));
 1269              		.loc 1 186 41 view .LVU346
 1270 05bc E77AFCEE 		vcvt.u32.f32	s15, s15	@ tmp203, tmp202
 1271 05c0 0B7AC4ED 		vstr.32	s15, [r4, #44]	@ int	@ tmp203, g_armwave_state.slice_record_height
 187:armwave.c     **** 
 1272              		.loc 1 187 5 is_stmt 1 view .LVU347
 1273              	@ armwave.c:187:     g_armwave_state.xcoord_to_xpixel = malloc(length * sizeof(uint16_t));
 187:armwave.c     **** 
 1274              		.loc 1 187 40 is_stmt 0 view .LVU348
 1275 05c4 FEFFFFEB 		bl	malloc		@
 1276              	.LVL63:
 1277              	@ armwave.c:189:     assert(g_armwave_state.xcoord_to_xpixel != NULL);
 189:armwave.c     **** 
 1278              		.loc 1 189 5 view .LVU349
 1279 05c8 000050E3 		cmp	r0, #0	@ tmp205,
 1280              	@ armwave.c:187:     g_armwave_state.xcoord_to_xpixel = malloc(length * sizeof(uint16_t));
 187:armwave.c     **** 
 1281              		.loc 1 187 38 view .LVU350
 1282 05cc 600084E5 		str	r0, [r4, #96]	@ tmp205, g_armwave_state.xcoord_to_xpixel
 189:armwave.c     **** 
 1283              		.loc 1 189 5 is_stmt 1 view .LVU351
 1284 05d0 2A00000A 		beq	.L87		@,
 1285              	@ armwave.c:192:         g_armwave_state.xcoord_to_xpixel[xx] = (1.0f / points_per_pixel) * xx;
 192:armwave.c     **** 
 1286              		.loc 1 192 54 is_stmt 0 view .LVU352
 1287 05d4 337ADFED 		vldr.32	s15, .L88	@ tmp210,
 1288 05d8 020040E2 		sub	r0, r0, #2	@ ivtmp.71, tmp205,
 1289              	@ armwave.c:191:     for(xx = 0; xx < length; xx++) {
 191:armwave.c     ****         g_armwave_state.xcoord_to_xpixel[xx] = (1.0f / points_per_pixel) * xx;
 1290              		.loc 1 191 12 view .LVU353
 1291 05dc 0030A0E3 		mov	r3, #0	@ xx,
 1292              	@ armwave.c:192:         g_armwave_state.xcoord_to_xpixel[xx] = (1.0f / points_per_pixel) * xx;
 192:armwave.c     **** 
 1293              		.loc 1 192 54 view .LVU354
 1294 05e0 887A87EE 		vdiv.f32	s14, s15, s16	@ _20, tmp210, points_per_pixel
 1295              	.L77:
 1296              	.LVL64:
 192:armwave.c     **** 
 1297              		.loc 1 192 9 is_stmt 1 discriminator 3 view .LVU355
 1298              	@ armwave.c:192:         g_armwave_state.xcoord_to_xpixel[xx] = (1.0f / points_per_pixel) * xx;
 192:armwave.c     **** 
 1299              		.loc 1 192 74 is_stmt 0 discriminator 3 view .LVU356
 1300 05e4 903A07EE 		vmov	s15, r3	@ int	@ xx, xx
 1301              	@ armwave.c:191:     for(xx = 0; xx < length; xx++) {
 191:armwave.c     ****         g_armwave_state.xcoord_to_xpixel[xx] = (1.0f / points_per_pixel) * xx;
 1302              		.loc 1 191 32 discriminator 3 view .LVU357
 1303 05e8 013083E2 		add	r3, r3, #1	@ xx, xx,
 1304              	.LVL65:
 1305              	@ armwave.c:191:     for(xx = 0; xx < length; xx++) {
 191:armwave.c     ****         g_armwave_state.xcoord_to_xpixel[xx] = (1.0f / points_per_pixel) * xx;
 1306              		.loc 1 191 5 discriminator 3 view .LVU358
 1307 05ec 030055E1 		cmp	r5, r3	@ length, xx
 1308              	@ armwave.c:192:         g_armwave_state.xcoord_to_xpixel[xx] = (1.0f / points_per_pixel) * xx;
 192:armwave.c     **** 
 1309              		.loc 1 192 74 discriminator 3 view .LVU359
 1310 05f0 E77AF8EE 		vcvt.f32.s32	s15, s15	@ tmp211, xx
 1311 05f4 877A67EE 		vmul.f32	s15, s15, s14	@ tmp212, tmp211, _20
 1312              	@ armwave.c:192:         g_armwave_state.xcoord_to_xpixel[xx] = (1.0f / points_per_pixel) * xx;
 192:armwave.c     **** 
 1313              		.loc 1 192 46 discriminator 3 view .LVU360
 1314 05f8 E77AFCEE 		vcvt.u32.f32	s15, s15	@ tmp213, tmp212
 1315 05fc 902A17EE 		vmov	r2, s15	@ int	@ tmp213, tmp213
 1316 0600 B220E0E1 		strh	r2, [r0, #2]!	@ movhi	@ tmp213, MEM[base: _6, offset: 0B]
 1317              	@ armwave.c:191:     for(xx = 0; xx < length; xx++) {
 191:armwave.c     ****         g_armwave_state.xcoord_to_xpixel[xx] = (1.0f / points_per_pixel) * xx;
 1318              		.loc 1 191 5 discriminator 3 view .LVU361
 1319 0604 F6FFFF1A 		bne	.L77		@,
 197:armwave.c     **** }
 1320              		.loc 1 197 5 is_stmt 1 view .LVU362
 1321              	@ armwave.c:197:     g_armwave_state.out_pixbuf = malloc(sizeof(uint32_t) * g_armwave_state.size);
 197:armwave.c     **** }
 1322              		.loc 1 197 34 is_stmt 0 view .LVU363
 1323 0608 0601A0E1 		lsl	r0, r6, #2	@, _8,
 1324 060c FEFFFFEB 		bl	malloc		@
 1325              	.LVL66:
 1326              	@ armwave.c:198: }
 1327              		.loc 1 198 1 view .LVU364
 1328 0610 028BBDEC 		vldm	sp!, {d8}	@
 1329              		.cfi_remember_state
 1330              		.cfi_restore 80
 1331              		.cfi_restore 81
 1332              		.cfi_def_cfa_offset 24
 1333              	.LVL67:
 1334              	@ armwave.c:197:     g_armwave_state.out_pixbuf = malloc(sizeof(uint32_t) * g_armwave_state.size);
 197:armwave.c     **** }
 1335              		.loc 1 197 32 view .LVU365
 1336 0614 440084E5 		str	r0, [r4, #68]	@, g_armwave_state.out_pixbuf
 1337              	@ armwave.c:198: }
 1338              		.loc 1 198 1 view .LVU366
 1339 0618 F081BDE8 		pop	{r4, r5, r6, r7, r8, pc}	@
 1340              	.LVL68:
 1341              	.L69:
 1342              		.cfi_restore_state
 145:armwave.c     ****         g_armwave_state.row_shift = 8;
 1343              		.loc 1 145 5 is_stmt 1 view .LVU367
 1344              	@ armwave.c:145:     if(target_height == 256) {
 145:armwave.c     ****         g_armwave_state.row_shift = 8;
 1345              		.loc 1 145 7 is_stmt 0 view .LVU368
 1346 061c 010C52E3 		cmp	r2, #256	@ target_height,
 146:armwave.c     ****         g_armwave_state.row_mask = 0x0ff;
 1347              		.loc 1 146 9 is_stmt 1 view .LVU369
 1348              	@ armwave.c:146:         g_armwave_state.row_shift = 8;
 146:armwave.c     ****         g_armwave_state.row_mask = 0x0ff;
 1349              		.loc 1 146 35 is_stmt 0 view .LVU370
 1350 0620 08C0A003 		moveq	ip, #8	@ tmp159,
 1351              	@ armwave.c:150:         g_armwave_state.row_mask = 0x1ff;
 150:armwave.c     ****     } else if(target_height == 1024) {
 1352              		.loc 1 150 34 view .LVU371
 1353 0624 8CC09F15 		ldrne	ip, .L88+16	@ tmp165,
 1354              	@ armwave.c:147:         g_armwave_state.row_mask = 0x0ff;
 147:armwave.c     ****     } else if(target_height == 512) {
 1355              		.loc 1 147 34 view .LVU372
 1356 0628 FF00A003 		moveq	r0, #255	@ tmp161,
 1357              	.LVL69:
 1358              	@ armwave.c:149:         g_armwave_state.row_shift = 9;
 149:armwave.c     ****         g_armwave_state.row_mask = 0x1ff;
 1359              		.loc 1 149 35 view .LVU373
 1360 062c 0900A013 		movne	r0, #9	@ tmp163,
 1361              	@ armwave.c:146:         g_armwave_state.row_shift = 8;
 146:armwave.c     ****         g_armwave_state.row_mask = 0x0ff;
 1362              		.loc 1 146 35 view .LVU374
 1363 0630 3CC08405 		streq	ip, [r4, #60]	@ tmp159, g_armwave_state.row_shift
 147:armwave.c     ****     } else if(target_height == 512) {
 1364              		.loc 1 147 9 is_stmt 1 view .LVU375
 1365              	@ armwave.c:147:         g_armwave_state.row_mask = 0x0ff;
 147:armwave.c     ****     } else if(target_height == 512) {
 1366              		.loc 1 147 34 is_stmt 0 view .LVU376
 1367 0634 40008405 		streq	r0, [r4, #64]	@ tmp161, g_armwave_state.row_mask
 148:armwave.c     ****         g_armwave_state.row_shift = 9;
 1368              		.loc 1 148 12 is_stmt 1 view .LVU377
 149:armwave.c     ****         g_armwave_state.row_mask = 0x1ff;
 1369              		.loc 1 149 9 view .LVU378
 1370              	@ armwave.c:150:         g_armwave_state.row_mask = 0x1ff;
 150:armwave.c     ****     } else if(target_height == 1024) {
 1371              		.loc 1 150 34 is_stmt 0 view .LVU379
 1372 0638 40C08415 		strne	ip, [r4, #64]	@ tmp165, g_armwave_state.row_mask
 1373              	@ armwave.c:149:         g_armwave_state.row_shift = 9;
 149:armwave.c     ****         g_armwave_state.row_mask = 0x1ff;
 1374              		.loc 1 149 35 view .LVU380
 1375 063c 3C008415 		strne	r0, [r4, #60]	@ tmp163, g_armwave_state.row_shift
 150:armwave.c     ****     } else if(target_height == 1024) {
 1376              		.loc 1 150 9 is_stmt 1 view .LVU381
 1377 0640 B9FFFFEA 		b	.L72		@
 1378              	.L85:
 152:armwave.c     ****         g_armwave_state.row_mask = 0x3ff;
 1379              		.loc 1 152 9 view .LVU382
 1380              	@ armwave.c:153:         g_armwave_state.row_mask = 0x3ff;
 153:armwave.c     ****     } else if(target_height == 2048) {
 1381              		.loc 1 153 34 is_stmt 0 view .LVU383
 1382 0644 70C09FE5 		ldr	ip, .L88+20	@ tmp169,
 1383              	@ armwave.c:152:         g_armwave_state.row_shift = 10;
 152:armwave.c     ****         g_armwave_state.row_mask = 0x3ff;
 1384              		.loc 1 152 35 view .LVU384
 1385 0648 0A00A0E3 		mov	r0, #10	@ tmp167,
 1386              	@ armwave.c:153:         g_armwave_state.row_mask = 0x3ff;
 153:armwave.c     ****     } else if(target_height == 2048) {
 1387              		.loc 1 153 34 view .LVU385
 1388 064c 40C084E5 		str	ip, [r4, #64]	@ tmp169, g_armwave_state.row_mask
 1389              	@ armwave.c:152:         g_armwave_state.row_shift = 10;
 152:armwave.c     ****         g_armwave_state.row_mask = 0x3ff;
 1390              		.loc 1 152 35 view .LVU386
 1391 0650 3C0084E5 		str	r0, [r4, #60]	@ tmp167, g_armwave_state.row_shift
 153:armwave.c     ****     } else if(target_height == 2048) {
 1392              		.loc 1 153 9 is_stmt 1 view .LVU387
 1393 0654 B4FFFFEA 		b	.L72		@
 1394              	.L84:
 143:armwave.c     **** 
 1395              		.loc 1 143 5 discriminator 2 view .LVU388
 1396 0658 60309FE5 		ldr	r3, .L88+24	@,
 1397              	.LVL70:
 143:armwave.c     **** 
 1398              		.loc 1 143 5 is_stmt 0 discriminator 2 view .LVU389
 1399 065c 8F20A0E3 		mov	r2, #143	@,
 1400 0660 5C109FE5 		ldr	r1, .L88+28	@,
 1401 0664 5C009FE5 		ldr	r0, .L88+32	@,
 1402 0668 FEFFFFEB 		bl	__assert_fail		@
 1403              	.LVL71:
 1404              	.L86:
 181:armwave.c     **** 
 1405              		.loc 1 181 5 is_stmt 1 discriminator 1 view .LVU390
 1406 066c 4C309FE5 		ldr	r3, .L88+24	@,
 1407 0670 B520A0E3 		mov	r2, #181	@,
 1408 0674 48109FE5 		ldr	r1, .L88+28	@,
 1409 0678 4C009FE5 		ldr	r0, .L88+36	@,
 1410 067c FEFFFFEB 		bl	__assert_fail		@
 1411              	.LVL72:
 1412              	.L87:
 189:armwave.c     **** 
 1413              		.loc 1 189 5 discriminator 1 view .LVU391
 1414 0680 38309FE5 		ldr	r3, .L88+24	@,
 1415 0684 BD20A0E3 		mov	r2, #189	@,
 1416 0688 34109FE5 		ldr	r1, .L88+28	@,
 1417 068c 3C009FE5 		ldr	r0, .L88+40	@,
 1418 0690 FEFFFFEB 		bl	__assert_fail		@
 1419              	.LVL73:
 1420              	.L83:
 137:armwave.c     **** 
 1421              		.loc 1 137 5 discriminator 1 view .LVU392
 1422 0694 24309FE5 		ldr	r3, .L88+24	@,
 1423              	.LVL74:
 137:armwave.c     **** 
 1424              		.loc 1 137 5 is_stmt 0 discriminator 1 view .LVU393
 1425 0698 8920A0E3 		mov	r2, #137	@,
 1426 069c 20109FE5 		ldr	r1, .L88+28	@,
 1427 06a0 2C009FE5 		ldr	r0, .L88+44	@,
 1428              	.LVL75:
 137:armwave.c     **** 
 1429              		.loc 1 137 5 discriminator 1 view .LVU394
 1430 06a4 FEFFFFEB 		bl	__assert_fail		@
 1431              	.LVL76:
 1432              	.L89:
 1433              		.align	2
 1434              	.L88:
 1435 06a8 0000803F 		.word	1065353216
 1436 06ac 00000000 		.word	g_armwave_state
 1437 06b0 FF070000 		.word	2047
 1438 06b4 F609F406 		.word	116656630
 1439 06b8 FF010000 		.word	511
 1440 06bc FF030000 		.word	1023
 1441 06c0 00000000 		.word	.LANCHOR0
 1442 06c4 00000000 		.word	.LC0
 1443 06c8 0C000000 		.word	.LC1
 1444 06cc 6C000000 		.word	.LC2
 1445 06d0 90000000 		.word	.LC3
 1446 06d4 BC000000 		.word	.LC4
 1447              		.cfi_endproc
 1448              	.LFE61:
 1450              		.align	2
 1451              		.global	armwave_clear_buffer
 1452              		.syntax unified
 1453              		.arm
 1454              		.fpu vfp
 1456              	armwave_clear_buffer:
 1457              	.LVL77:
 1458              	.LFB62:
 199:armwave.c     **** 
 200:armwave.c     **** void armwave_clear_buffer(uint32_t flags)
 201:armwave.c     **** {
 1459              		.loc 1 201 1 is_stmt 1 view -0
 1460              		.cfi_startproc
 1461              		@ args = 0, pretend = 0, frame = 0
 1462              		@ frame_needed = 0, uses_anonymous_args = 0
 1463              		@ link register save eliminated.
 202:armwave.c     ****     // Flags ignored, only one buffer cleared
 203:armwave.c     ****     memset(g_armwave_state.ch1_buffer, 0, g_armwave_state.size);
 1464              		.loc 1 203 5 view .LVU396
 1465 06d8 0C309FE5 		ldr	r3, .L91	@ tmp113,
 1466 06dc 0010A0E3 		mov	r1, #0	@,
 1467 06e0 302093E5 		ldr	r2, [r3, #48]	@, g_armwave_state.size
 1468 06e4 040093E5 		ldr	r0, [r3, #4]	@, g_armwave_state.ch1_buffer
 1469              	.LVL78:
 1470              		.loc 1 203 5 is_stmt 0 view .LVU397
 1471 06e8 FEFFFFEA 		b	memset		@
 1472              	.LVL79:
 1473              	.L92:
 1474              		.align	2
 1475              	.L91:
 1476 06ec 00000000 		.word	g_armwave_state
 1477              		.cfi_endproc
 1478              	.LFE62:
 1480              		.align	2
 1481              		.global	armwave_fill_pixbuf_256
 1482              		.syntax unified
 1483              		.arm
 1484              		.fpu vfp
 1486              	armwave_fill_pixbuf_256:
 1487              	.LVL80:
 1488              	.LFB63:
 204:armwave.c     **** }
 205:armwave.c     **** 
 206:armwave.c     **** /*
 207:armwave.c     ****  * Fill a pixbuf with a 256-height waveform.
 208:armwave.c     ****  */
 209:armwave.c     **** void armwave_fill_pixbuf_256(uint32_t *out_buffer)
 210:armwave.c     **** {
 1489              		.loc 1 210 1 is_stmt 1 view -0
 1490              		.cfi_startproc
 1491              		@ args = 0, pretend = 0, frame = 8
 1492              		@ frame_needed = 0, uses_anonymous_args = 0
 211:armwave.c     ****     uint32_t xx, yy, word, wave_word;
 1493              		.loc 1 211 5 view .LVU399
 212:armwave.c     ****     int rr, gg, bb, n, nsub, npix, i;
 1494              		.loc 1 212 5 view .LVU400
 213:armwave.c     ****     uint8_t r, g, b, value;
 1495              		.loc 1 213 5 view .LVU401
 214:armwave.c     ****     uint32_t *base_32ptr = (uint32_t*)g_armwave_state.ch1_buffer;
 1496              		.loc 1 214 5 view .LVU402
 1497              	@ armwave.c:210: {
 210:armwave.c     ****     uint32_t xx, yy, word, wave_word;
 1498              		.loc 1 210 1 is_stmt 0 view .LVU403
 1499 06f0 F04F2DE9 		push	{r4, r5, r6, r7, r8, r9, r10, fp, lr}	@
 1500              		.cfi_def_cfa_offset 36
 1501              		.cfi_offset 4, -36
 1502              		.cfi_offset 5, -32
 1503              		.cfi_offset 6, -28
 1504              		.cfi_offset 7, -24
 1505              		.cfi_offset 8, -20
 1506              		.cfi_offset 9, -16
 1507              		.cfi_offset 10, -12
 1508              		.cfi_offset 11, -8
 1509              		.cfi_offset 14, -4
 1510              	@ armwave.c:218:     assert(out_buffer != NULL);
 215:armwave.c     ****     uint32_t *out_buffer_base = out_buffer;
 216:armwave.c     ****     uint32_t offset;
 217:armwave.c     **** 
 218:armwave.c     ****     assert(out_buffer != NULL);
 1511              		.loc 1 218 5 view .LVU404
 1512 06f4 000050E3 		cmp	r0, #0	@ out_buffer
 1513              	@ armwave.c:214:     uint32_t *base_32ptr = (uint32_t*)g_armwave_state.ch1_buffer;
 214:armwave.c     ****     uint32_t *out_buffer_base = out_buffer;
 1514              		.loc 1 214 15 view .LVU405
 1515 06f8 44529FE5 		ldr	r5, .L120	@ tmp361,
 1516              	@ armwave.c:210: {
 210:armwave.c     ****     uint32_t xx, yy, word, wave_word;
 1517              		.loc 1 210 1 view .LVU406
 1518 06fc 0CD04DE2 		sub	sp, sp, #12	@,,
 1519              		.cfi_def_cfa_offset 48
 1520              	@ armwave.c:214:     uint32_t *base_32ptr = (uint32_t*)g_armwave_state.ch1_buffer;
 214:armwave.c     ****     uint32_t *out_buffer_base = out_buffer;
 1521              		.loc 1 214 15 view .LVU407
 1522 0700 041095E5 		ldr	r1, [r5, #4]	@ base_32ptr, g_armwave_state.ch1_buffer
 1523              	.LVL81:
 215:armwave.c     ****     uint32_t *out_buffer_base = out_buffer;
 1524              		.loc 1 215 5 is_stmt 1 view .LVU408
 216:armwave.c     **** 
 1525              		.loc 1 216 5 view .LVU409
 1526              		.loc 1 218 5 view .LVU410
 1527 0704 8900000A 		beq	.L118		@,
 219:armwave.c     **** 
 220:armwave.c     ****     // Buffer is sent non-rotated: we use GDK/GL to assemble and rotate it
 221:armwave.c     **** 
 222:armwave.c     ****     npix = g_armwave_state.target_width * 256;
 1528              		.loc 1 222 5 view .LVU411
 1529              	@ armwave.c:222:     npix = g_armwave_state.target_width * 256;
 1530              		.loc 1 222 41 is_stmt 0 view .LVU412
 1531 0708 34C095E5 		ldr	ip, [r5, #52]	@ g_armwave_state.target_width, g_armwave_state.target_width
 1532 070c 0CC4A0E1 		lsl	ip, ip, #8	@ npix, g_armwave_state.target_width,
 1533              	.LVL82:
 223:armwave.c     **** 
 224:armwave.c     ****     for(n = 0; n < npix; n += 4) {
 1534              		.loc 1 224 5 is_stmt 1 view .LVU413
 1535              		.loc 1 224 5 is_stmt 0 view .LVU414
 1536 0710 00005CE3 		cmp	ip, #0	@ npix,
 1537 0714 0A0000DA 		ble	.L93		@,
 1538              	@ armwave.c:236:                     rr = (g_armwave_state.ch1_color.r * value) >> 8;
 225:armwave.c     ****         // Read a 32-bit word at a time.  If any bits are nonzero, we need to process
 226:armwave.c     ****         // each byte.  We can afford to do this because most pixels will be blank for
 227:armwave.c     ****         // most normal waveforms.
 228:armwave.c     ****         wave_word = *base_32ptr++;
 229:armwave.c     **** 
 230:armwave.c     ****         if(COND_UNLIKELY(wave_word != 0)) {
 231:armwave.c     ****             for(i = 0; i < 4; i++) {
 232:armwave.c     ****                 value = wave_word & 0xff;
 233:armwave.c     ****                 wave_word >>= 8;
 234:armwave.c     **** 
 235:armwave.c     ****                 if(value != 0) {
 236:armwave.c     ****                     rr = (g_armwave_state.ch1_color.r * value) >> 8;
 1539              		.loc 1 236 52 view .LVU415
 1540 0718 F8A4D5E1 		ldrsh	r10, [r5, #72]	@ _70, g_armwave_state.ch1_color.r
 1541              	@ armwave.c:237:                     gg = (g_armwave_state.ch1_color.g * value) >> 8;
 237:armwave.c     ****                     gg = (g_armwave_state.ch1_color.g * value) >> 8;
 1542              		.loc 1 237 52 view .LVU416
 1543 071c FA94D5E1 		ldrsh	r9, [r5, #74]	@ _76, g_armwave_state.ch1_color.g
 1544              	@ armwave.c:238:                     bb = (g_armwave_state.ch1_color.b * value) >> 8;
 238:armwave.c     ****                     bb = (g_armwave_state.ch1_color.b * value) >> 8;
 1545              		.loc 1 238 52 view .LVU417
 1546 0720 FCB4D5E1 		ldrsh	fp, [r5, #76]	@ _80, g_armwave_state.ch1_color.b
 1547              	@ armwave.c:224:     for(n = 0; n < npix; n += 4) {
 224:armwave.c     ****         // Read a 32-bit word at a time.  If any bits are nonzero, we need to process
 1548              		.loc 1 224 11 view .LVU418
 1549 0724 0030A0E3 		mov	r3, #0	@ n,
 1550 0728 00008DE5 		str	r0, [sp]	@ out_buffer, %sfp
 1551              	.LVL83:
 1552              	.L102:
 228:armwave.c     **** 
 1553              		.loc 1 228 9 is_stmt 1 view .LVU419
 1554              	@ armwave.c:228:         wave_word = *base_32ptr++;
 228:armwave.c     **** 
 1555              		.loc 1 228 19 is_stmt 0 view .LVU420
 1556 072c 042091E4 		ldr	r2, [r1], #4	@ wave_word, MEM[base: base_32ptr_46, offset: 4294967292B]
 1557              	.LVL84:
 230:armwave.c     ****             for(i = 0; i < 4; i++) {
 1558              		.loc 1 230 9 is_stmt 1 view .LVU421
 1559              	@ armwave.c:230:         if(COND_UNLIKELY(wave_word != 0)) {
 230:armwave.c     ****             for(i = 0; i < 4; i++) {
 1560              		.loc 1 230 11 is_stmt 0 view .LVU422
 1561 0730 000052E3 		cmp	r2, #0	@ wave_word,
 1562 0734 0400001A 		bne	.L119		@,
 1563              	.LVL85:
 1564              	.L97:
 1565              	@ armwave.c:224:     for(n = 0; n < npix; n += 4) {
 224:armwave.c     ****         // Read a 32-bit word at a time.  If any bits are nonzero, we need to process
 1566              		.loc 1 224 28 discriminator 2 view .LVU423
 1567 0738 043083E2 		add	r3, r3, #4	@ n, n,
 1568              	.LVL86:
 1569              	@ armwave.c:224:     for(n = 0; n < npix; n += 4) {
 224:armwave.c     ****         // Read a 32-bit word at a time.  If any bits are nonzero, we need to process
 1570              		.loc 1 224 5 discriminator 2 view .LVU424
 1571 073c 03005CE1 		cmp	ip, r3	@ npix, n
 1572 0740 F9FFFFCA 		bgt	.L102		@,
 1573              	.LVL87:
 1574              	.L93:
 1575              	@ armwave.c:257: }
 239:armwave.c     **** 
 240:armwave.c     ****                     r = MIN(rr, 255);
 241:armwave.c     ****                     g = MIN(gg, 255);
 242:armwave.c     ****                     b = MIN(bb, 255);
 243:armwave.c     **** 
 244:armwave.c     ****                     // Ensure 100% alpha channel, if it is used
 245:armwave.c     ****                     word = 0xff000000 | (b << 16) | (g << 8) | r;
 246:armwave.c     **** 
 247:armwave.c     ****                     // Is there a better way?
 248:armwave.c     ****                     nsub = n + i;
 249:armwave.c     ****                     xx = nsub & 0xff;
 250:armwave.c     ****                     yy = nsub >> 8;
 251:armwave.c     ****                     offset = yy + (xx * g_armwave_state.target_width);
 252:armwave.c     ****                     *(out_buffer_base + offset) = word;
 253:armwave.c     ****                 }
 254:armwave.c     ****             }
 255:armwave.c     ****         } 
 256:armwave.c     ****     }
 257:armwave.c     **** }
 1576              		.loc 1 257 1 view .LVU425
 1577 0744 0CD08DE2 		add	sp, sp, #12	@,,
 1578              		.cfi_remember_state
 1579              		.cfi_def_cfa_offset 36
 1580              		@ sp needed	@
 1581 0748 F08FBDE8 		pop	{r4, r5, r6, r7, r8, r9, r10, fp, pc}	@
 1582              	.LVL88:
 1583              	.L119:
 1584              		.cfi_restore_state
 232:armwave.c     ****                 wave_word >>= 8;
 1585              		.loc 1 232 17 is_stmt 1 view .LVU426
 233:armwave.c     **** 
 1586              		.loc 1 233 17 view .LVU427
 1587              	@ armwave.c:235:                 if(value != 0) {
 235:armwave.c     ****                     rr = (g_armwave_state.ch1_color.r * value) >> 8;
 1588              		.loc 1 235 19 is_stmt 0 view .LVU428
 1589 074c FF6012E2 		ands	r6, r2, #255	@ _72, wave_word,
 1590              	@ armwave.c:233:                 wave_word >>= 8;
 233:armwave.c     **** 
 1591              		.loc 1 233 27 view .LVU429
 1592 0750 22E4A0E1 		lsr	lr, r2, #8	@ wave_word, wave_word,
 1593              	.LVL89:
 235:armwave.c     ****                     rr = (g_armwave_state.ch1_color.r * value) >> 8;
 1594              		.loc 1 235 17 is_stmt 1 view .LVU430
 1595              	@ armwave.c:235:                 if(value != 0) {
 235:armwave.c     ****                     rr = (g_armwave_state.ch1_color.r * value) >> 8;
 1596              		.loc 1 235 19 is_stmt 0 view .LVU431
 1597 0754 1900000A 		beq	.L98		@,
 236:armwave.c     ****                     gg = (g_armwave_state.ch1_color.g * value) >> 8;
 1598              		.loc 1 236 21 is_stmt 1 view .LVU432
 1599              	.LVL90:
 237:armwave.c     ****                     bb = (g_armwave_state.ch1_color.b * value) >> 8;
 1600              		.loc 1 237 21 view .LVU433
 238:armwave.c     **** 
 1601              		.loc 1 238 21 view .LVU434
 240:armwave.c     ****                     g = MIN(gg, 255);
 1602              		.loc 1 240 21 view .LVU435
 241:armwave.c     ****                     b = MIN(bb, 255);
 1603              		.loc 1 241 21 view .LVU436
 242:armwave.c     **** 
 1604              		.loc 1 242 21 view .LVU437
 245:armwave.c     **** 
 1605              		.loc 1 245 21 view .LVU438
 248:armwave.c     ****                     xx = nsub & 0xff;
 1606              		.loc 1 248 21 view .LVU439
 249:armwave.c     ****                     yy = nsub >> 8;
 1607              		.loc 1 249 21 view .LVU440
 250:armwave.c     ****                     offset = yy + (xx * g_armwave_state.target_width);
 1608              		.loc 1 250 21 view .LVU441
 251:armwave.c     ****                     *(out_buffer_base + offset) = word;
 1609              		.loc 1 251 21 view .LVU442
 252:armwave.c     ****                 }
 1610              		.loc 1 252 21 view .LVU443
 1611              	@ armwave.c:238:                     bb = (g_armwave_state.ch1_color.b * value) >> 8;
 238:armwave.c     **** 
 1612              		.loc 1 238 55 is_stmt 0 view .LVU444
 1613 0758 9B0604E0 		mul	r4, fp, r6	@ tmp277, _80, _72
 1614              	@ armwave.c:237:                     gg = (g_armwave_state.ch1_color.g * value) >> 8;
 237:armwave.c     ****                     bb = (g_armwave_state.ch1_color.b * value) >> 8;
 1615              		.loc 1 237 55 view .LVU445
 1616 075c 990608E0 		mul	r8, r9, r6	@ tmp281, _76, _72
 1617              	@ armwave.c:238:                     bb = (g_armwave_state.ch1_color.b * value) >> 8;
 238:armwave.c     **** 
 1618              		.loc 1 238 24 view .LVU446
 1619 0760 4444A0E1 		asr	r4, r4, #8	@ bb, tmp277,
 1620              	.LVL91:
 1621              	@ armwave.c:242:                     b = MIN(bb, 255);
 242:armwave.c     **** 
 1622              		.loc 1 242 25 view .LVU447
 1623 0764 FF0054E3 		cmp	r4, #255	@ bb,
 1624              	@ armwave.c:237:                     gg = (g_armwave_state.ch1_color.g * value) >> 8;
 237:armwave.c     ****                     bb = (g_armwave_state.ch1_color.b * value) >> 8;
 1625              		.loc 1 237 24 view .LVU448
 1626 0768 4884A0E1 		asr	r8, r8, #8	@ gg, tmp281,
 1627              	.LVL92:
 1628              	@ armwave.c:242:                     b = MIN(bb, 255);
 242:armwave.c     **** 
 1629              		.loc 1 242 25 view .LVU449
 1630 076c FF40A0A3 		movge	r4, #255	@ bb,
 1631              	.LVL93:
 1632              	@ armwave.c:236:                     rr = (g_armwave_state.ch1_color.r * value) >> 8;
 236:armwave.c     ****                     gg = (g_armwave_state.ch1_color.g * value) >> 8;
 1633              		.loc 1 236 55 view .LVU450
 1634 0770 960A06E0 		mul	r6, r6, r10	@ tmp287, _72, _70
 1635              	.LVL94:
 1636              	@ armwave.c:241:                     g = MIN(gg, 255);
 241:armwave.c     ****                     b = MIN(bb, 255);
 1637              		.loc 1 241 25 view .LVU451
 1638 0774 FF0058E3 		cmp	r8, #255	@ gg,
 1639 0778 FF80A0A3 		movge	r8, #255	@ gg,
 1640              	.LVL95:
 1641              	@ armwave.c:236:                     rr = (g_armwave_state.ch1_color.r * value) >> 8;
 236:armwave.c     ****                     gg = (g_armwave_state.ch1_color.g * value) >> 8;
 1642              		.loc 1 236 24 view .LVU452
 1643 077c 4664A0E1 		asr	r6, r6, #8	@ rr, tmp287,
 1644              	.LVL96:
 1645              	@ armwave.c:245:                     word = 0xff000000 | (b << 16) | (g << 8) | r;
 245:armwave.c     **** 
 1646              		.loc 1 245 56 view .LVU453
 1647 0780 0884A0E1 		lsl	r8, r8, #8	@ tmp282, gg,
 1648              	@ armwave.c:252:                     *(out_buffer_base + offset) = word;
 252:armwave.c     ****                 }
 1649              		.loc 1 252 39 view .LVU454
 1650 0784 340095E5 		ldr	r0, [r5, #52]	@ tmp373, g_armwave_state.target_width
 1651              	@ armwave.c:245:                     word = 0xff000000 | (b << 16) | (g << 8) | r;
 245:armwave.c     **** 
 1652              		.loc 1 245 44 view .LVU455
 1653 0788 0448A0E1 		lsl	r4, r4, #16	@ tmp278, bb,
 1654              	@ armwave.c:240:                     r = MIN(rr, 255);
 240:armwave.c     ****                     g = MIN(gg, 255);
 1655              		.loc 1 240 25 view .LVU456
 1656 078c FF0056E3 		cmp	r6, #255	@ rr,
 1657              	@ armwave.c:245:                     word = 0xff000000 | (b << 16) | (g << 8) | r;
 245:armwave.c     **** 
 1658              		.loc 1 245 56 view .LVU457
 1659 0790 7880FFE6 		uxth	r8, r8	@ tmp283, tmp282
 1660              	@ armwave.c:249:                     xx = nsub & 0xff;
 249:armwave.c     ****                     yy = nsub >> 8;
 1661              		.loc 1 249 24 view .LVU458
 1662 0794 7370EFE6 		uxtb	r7, r3	@ xx, n
 1663              	@ armwave.c:245:                     word = 0xff000000 | (b << 16) | (g << 8) | r;
 245:armwave.c     **** 
 1664              		.loc 1 245 44 view .LVU459
 1665 0798 FF4804E2 		and	r4, r4, #16711680	@ tmp279, tmp278,
 1666              	@ armwave.c:245:                     word = 0xff000000 | (b << 16) | (g << 8) | r;
 245:armwave.c     **** 
 1667              		.loc 1 245 51 view .LVU460
 1668 079c 084084E1 		orr	r4, r4, r8	@ tmp285, tmp279, tmp283
 1669              	@ armwave.c:240:                     r = MIN(rr, 255);
 240:armwave.c     ****                     g = MIN(gg, 255);
 1670              		.loc 1 240 25 view .LVU461
 1671 07a0 FF60A0A3 		movge	r6, #255	@ rr,
 1672              	.LVL97:
 1673              	@ armwave.c:250:                     yy = nsub >> 8;
 250:armwave.c     ****                     offset = yy + (xx * g_armwave_state.target_width);
 1674              		.loc 1 250 31 view .LVU462
 1675 07a4 4384A0E1 		asr	r8, r3, #8	@ yy, n,
 1676              	.LVL98:
 1677              	@ armwave.c:252:                     *(out_buffer_base + offset) = word;
 252:armwave.c     ****                 }
 1678              		.loc 1 252 39 view .LVU463
 1679 07a8 908727E0 		mla	r7, r0, r7, r8	@ tmp275, tmp373, xx, yy
 1680              	@ armwave.c:245:                     word = 0xff000000 | (b << 16) | (g << 8) | r;
 245:armwave.c     **** 
 1681              		.loc 1 245 62 view .LVU464
 1682 07ac 7660EFE6 		uxtb	r6, r6	@ rr, rr
 1683              	@ armwave.c:252:                     *(out_buffer_base + offset) = word;
 252:armwave.c     ****                 }
 1684              		.loc 1 252 49 view .LVU465
 1685 07b0 00009DE5 		ldr	r0, [sp]	@ out_buffer, %sfp
 1686              	@ armwave.c:245:                     word = 0xff000000 | (b << 16) | (g << 8) | r;
 245:armwave.c     **** 
 1687              		.loc 1 245 62 view .LVU466
 1688 07b4 066084E1 		orr	r6, r4, r6	@ tmp289, tmp285, rr
 1689              	@ armwave.c:245:                     word = 0xff000000 | (b << 16) | (g << 8) | r;
 245:armwave.c     **** 
 1690              		.loc 1 245 26 view .LVU467
 1691 07b8 FF6486E3 		orr	r6, r6, #-16777216	@ word, tmp289,
 1692              	@ armwave.c:252:                     *(out_buffer_base + offset) = word;
 252:armwave.c     ****                 }
 1693              		.loc 1 252 49 view .LVU468
 1694 07bc 076180E7 		str	r6, [r0, r7, lsl #2]	@ word, *_106
 1695              	.LVL99:
 1696              	.L98:
 232:armwave.c     ****                 wave_word >>= 8;
 1697              		.loc 1 232 17 is_stmt 1 view .LVU469
 233:armwave.c     **** 
 1698              		.loc 1 233 17 view .LVU470
 1699              	@ armwave.c:235:                 if(value != 0) {
 235:armwave.c     ****                     rr = (g_armwave_state.ch1_color.r * value) >> 8;
 1700              		.loc 1 235 19 is_stmt 0 view .LVU471
 1701 07c0 FFE01EE2 		ands	lr, lr, #255	@ _118, wave_word,
 1702              	.LVL100:
 1703              	@ armwave.c:233:                 wave_word >>= 8;
 233:armwave.c     **** 
 1704              		.loc 1 233 27 view .LVU472
 1705 07c4 2288A0E1 		lsr	r8, r2, #16	@ wave_word, wave_word,
 1706              	.LVL101:
 235:armwave.c     ****                     rr = (g_armwave_state.ch1_color.r * value) >> 8;
 1707              		.loc 1 235 17 is_stmt 1 view .LVU473
 1708              	@ armwave.c:235:                 if(value != 0) {
 235:armwave.c     ****                     rr = (g_armwave_state.ch1_color.r * value) >> 8;
 1709              		.loc 1 235 19 is_stmt 0 view .LVU474
 1710 07c8 1C00000A 		beq	.L99		@,
 236:armwave.c     ****                     gg = (g_armwave_state.ch1_color.g * value) >> 8;
 1711              		.loc 1 236 21 is_stmt 1 view .LVU475
 1712              	.LVL102:
 237:armwave.c     ****                     bb = (g_armwave_state.ch1_color.b * value) >> 8;
 1713              		.loc 1 237 21 view .LVU476
 238:armwave.c     **** 
 1714              		.loc 1 238 21 view .LVU477
 240:armwave.c     ****                     g = MIN(gg, 255);
 1715              		.loc 1 240 21 view .LVU478
 241:armwave.c     ****                     b = MIN(bb, 255);
 1716              		.loc 1 241 21 view .LVU479
 242:armwave.c     **** 
 1717              		.loc 1 242 21 view .LVU480
 245:armwave.c     **** 
 1718              		.loc 1 245 21 view .LVU481
 248:armwave.c     ****                     xx = nsub & 0xff;
 1719              		.loc 1 248 21 view .LVU482
 1720              	@ armwave.c:238:                     bb = (g_armwave_state.ch1_color.b * value) >> 8;
 238:armwave.c     **** 
 1721              		.loc 1 238 55 is_stmt 0 view .LVU483
 1722 07cc 9E0B04E0 		mul	r4, lr, fp	@ tmp300, _118, _80
 1723              	@ armwave.c:237:                     gg = (g_armwave_state.ch1_color.g * value) >> 8;
 237:armwave.c     ****                     bb = (g_armwave_state.ch1_color.b * value) >> 8;
 1724              		.loc 1 237 55 view .LVU484
 1725 07d0 9E0907E0 		mul	r7, lr, r9	@ tmp304, _118, _76
 1726              	@ armwave.c:238:                     bb = (g_armwave_state.ch1_color.b * value) >> 8;
 238:armwave.c     **** 
 1727              		.loc 1 238 24 view .LVU485
 1728 07d4 4444A0E1 		asr	r4, r4, #8	@ bb, tmp300,
 1729              	.LVL103:
 1730              	@ armwave.c:242:                     b = MIN(bb, 255);
 242:armwave.c     **** 
 1731              		.loc 1 242 25 view .LVU486
 1732 07d8 FF0054E3 		cmp	r4, #255	@ bb,
 1733 07dc FF40A0A3 		movge	r4, #255	@ bb,
 1734              	.LVL104:
 1735              	@ armwave.c:236:                     rr = (g_armwave_state.ch1_color.r * value) >> 8;
 236:armwave.c     ****                     gg = (g_armwave_state.ch1_color.g * value) >> 8;
 1736              		.loc 1 236 55 view .LVU487
 1737 07e0 9E0A0EE0 		mul	lr, lr, r10	@ tmp310, _118, _70
 1738              	.LVL105:
 1739              	@ armwave.c:237:                     gg = (g_armwave_state.ch1_color.g * value) >> 8;
 237:armwave.c     ****                     bb = (g_armwave_state.ch1_color.b * value) >> 8;
 1740              		.loc 1 237 24 view .LVU488
 1741 07e4 4774A0E1 		asr	r7, r7, #8	@ gg, tmp304,
 1742              	.LVL106:
 1743              	@ armwave.c:245:                     word = 0xff000000 | (b << 16) | (g << 8) | r;
 245:armwave.c     **** 
 1744              		.loc 1 245 44 view .LVU489
 1745 07e8 0448A0E1 		lsl	r4, r4, #16	@ tmp301, bb,
 1746              	@ armwave.c:241:                     g = MIN(gg, 255);
 241:armwave.c     ****                     b = MIN(bb, 255);
 1747              		.loc 1 241 25 view .LVU490
 1748 07ec FF0057E3 		cmp	r7, #255	@ gg,
 1749 07f0 016083E2 		add	r6, r3, #1	@ _158, n,
 249:armwave.c     ****                     yy = nsub >> 8;
 1750              		.loc 1 249 21 is_stmt 1 view .LVU491
 250:armwave.c     ****                     offset = yy + (xx * g_armwave_state.target_width);
 1751              		.loc 1 250 21 view .LVU492
 251:armwave.c     ****                     *(out_buffer_base + offset) = word;
 1752              		.loc 1 251 21 view .LVU493
 252:armwave.c     ****                 }
 1753              		.loc 1 252 21 view .LVU494
 1754              	@ armwave.c:245:                     word = 0xff000000 | (b << 16) | (g << 8) | r;
 245:armwave.c     **** 
 1755              		.loc 1 245 44 is_stmt 0 view .LVU495
 1756 07f4 FF4804E2 		and	r4, r4, #16711680	@ tmp302, tmp301,
 1757              	@ armwave.c:241:                     g = MIN(gg, 255);
 241:armwave.c     ****                     b = MIN(bb, 255);
 1758              		.loc 1 241 25 view .LVU496
 1759 07f8 FF70A0A3 		movge	r7, #255	@ gg,
 1760              	.LVL107:
 1761              	@ armwave.c:245:                     word = 0xff000000 | (b << 16) | (g << 8) | r;
 245:armwave.c     **** 
 1762              		.loc 1 245 44 view .LVU497
 1763 07fc 04408DE5 		str	r4, [sp, #4]	@ tmp302, %sfp
 1764              	@ armwave.c:252:                     *(out_buffer_base + offset) = word;
 252:armwave.c     ****                 }
 1765              		.loc 1 252 39 view .LVU498
 1766 0800 344095E5 		ldr	r4, [r5, #52]	@ tmp376, g_armwave_state.target_width
 1767              	@ armwave.c:236:                     rr = (g_armwave_state.ch1_color.r * value) >> 8;
 236:armwave.c     ****                     gg = (g_armwave_state.ch1_color.g * value) >> 8;
 1768              		.loc 1 236 24 view .LVU499
 1769 0804 4EE4A0E1 		asr	lr, lr, #8	@ rr, tmp310,
 1770              	.LVL108:
 1771              	@ armwave.c:249:                     xx = nsub & 0xff;
 249:armwave.c     ****                     yy = nsub >> 8;
 1772              		.loc 1 249 24 view .LVU500
 1773 0808 7600EFE6 		uxtb	r0, r6	@ xx, _158
 1774              	@ armwave.c:240:                     r = MIN(rr, 255);
 240:armwave.c     ****                     g = MIN(gg, 255);
 1775              		.loc 1 240 25 view .LVU501
 1776 080c FF005EE3 		cmp	lr, #255	@ rr,
 1777              	@ armwave.c:245:                     word = 0xff000000 | (b << 16) | (g << 8) | r;
 245:armwave.c     **** 
 1778              		.loc 1 245 56 view .LVU502
 1779 0810 0774A0E1 		lsl	r7, r7, #8	@ tmp305, gg,
 1780              	@ armwave.c:250:                     yy = nsub >> 8;
 250:armwave.c     ****                     offset = yy + (xx * g_armwave_state.target_width);
 1781              		.loc 1 250 31 view .LVU503
 1782 0814 4664A0E1 		asr	r6, r6, #8	@ yy, _158,
 1783              	@ armwave.c:252:                     *(out_buffer_base + offset) = word;
 252:armwave.c     ****                 }
 1784              		.loc 1 252 39 view .LVU504
 1785 0818 946026E0 		mla	r6, r4, r0, r6	@ tmp298, tmp376, xx, yy
 1786              	@ armwave.c:240:                     r = MIN(rr, 255);
 240:armwave.c     ****                     g = MIN(gg, 255);
 1787              		.loc 1 240 25 view .LVU505
 1788 081c FFE0A0A3 		movge	lr, #255	@ rr,
 1789              	.LVL109:
 1790              	@ armwave.c:245:                     word = 0xff000000 | (b << 16) | (g << 8) | r;
 245:armwave.c     **** 
 1791              		.loc 1 245 51 view .LVU506
 1792 0820 04009DE5 		ldr	r0, [sp, #4]	@ tmp302, %sfp
 1793              	@ armwave.c:245:                     word = 0xff000000 | (b << 16) | (g << 8) | r;
 245:armwave.c     **** 
 1794              		.loc 1 245 56 view .LVU507
 1795 0824 7770FFE6 		uxth	r7, r7	@ tmp306, tmp305
 1796              	@ armwave.c:245:                     word = 0xff000000 | (b << 16) | (g << 8) | r;
 245:armwave.c     **** 
 1797              		.loc 1 245 51 view .LVU508
 1798 0828 074080E1 		orr	r4, r0, r7	@ tmp308, tmp302, tmp306
 1799              	@ armwave.c:245:                     word = 0xff000000 | (b << 16) | (g << 8) | r;
 245:armwave.c     **** 
 1800              		.loc 1 245 62 view .LVU509
 1801 082c 7EE0EFE6 		uxtb	lr, lr	@ rr, rr
 1802              	@ armwave.c:252:                     *(out_buffer_base + offset) = word;
 252:armwave.c     ****                 }
 1803              		.loc 1 252 49 view .LVU510
 1804 0830 00009DE5 		ldr	r0, [sp]	@ out_buffer, %sfp
 1805              	@ armwave.c:245:                     word = 0xff000000 | (b << 16) | (g << 8) | r;
 245:armwave.c     **** 
 1806              		.loc 1 245 62 view .LVU511
 1807 0834 0EE084E1 		orr	lr, r4, lr	@ tmp312, tmp308, rr
 1808              	@ armwave.c:245:                     word = 0xff000000 | (b << 16) | (g << 8) | r;
 245:armwave.c     **** 
 1809              		.loc 1 245 26 view .LVU512
 1810 0838 FFE48EE3 		orr	lr, lr, #-16777216	@ word, tmp312,
 1811              	@ armwave.c:252:                     *(out_buffer_base + offset) = word;
 252:armwave.c     ****                 }
 1812              		.loc 1 252 49 view .LVU513
 1813 083c 06E180E7 		str	lr, [r0, r6, lsl #2]	@ word, *_152
 1814              	.LVL110:
 1815              	.L99:
 232:armwave.c     ****                 wave_word >>= 8;
 1816              		.loc 1 232 17 is_stmt 1 view .LVU514
 233:armwave.c     **** 
 1817              		.loc 1 233 17 view .LVU515
 1818              	@ armwave.c:235:                 if(value != 0) {
 235:armwave.c     ****                     rr = (g_armwave_state.ch1_color.r * value) >> 8;
 1819              		.loc 1 235 19 is_stmt 0 view .LVU516
 1820 0840 FFE018E2 		ands	lr, r8, #255	@ _164, wave_word,
 1821              	@ armwave.c:233:                 wave_word >>= 8;
 233:armwave.c     **** 
 1822              		.loc 1 233 27 view .LVU517
 1823 0844 222CA0E1 		lsr	r2, r2, #24	@ wave_word, wave_word,
 1824              	.LVL111:
 235:armwave.c     ****                     rr = (g_armwave_state.ch1_color.r * value) >> 8;
 1825              		.loc 1 235 17 is_stmt 1 view .LVU518
 1826              	@ armwave.c:235:                 if(value != 0) {
 235:armwave.c     ****                     rr = (g_armwave_state.ch1_color.r * value) >> 8;
 1827              		.loc 1 235 19 is_stmt 0 view .LVU519
 1828 0848 1A00000A 		beq	.L100		@,
 236:armwave.c     ****                     gg = (g_armwave_state.ch1_color.g * value) >> 8;
 1829              		.loc 1 236 21 is_stmt 1 view .LVU520
 1830              	.LVL112:
 237:armwave.c     ****                     bb = (g_armwave_state.ch1_color.b * value) >> 8;
 1831              		.loc 1 237 21 view .LVU521
 238:armwave.c     **** 
 1832              		.loc 1 238 21 view .LVU522
 240:armwave.c     ****                     g = MIN(gg, 255);
 1833              		.loc 1 240 21 view .LVU523
 241:armwave.c     ****                     b = MIN(bb, 255);
 1834              		.loc 1 241 21 view .LVU524
 242:armwave.c     **** 
 1835              		.loc 1 242 21 view .LVU525
 245:armwave.c     **** 
 1836              		.loc 1 245 21 view .LVU526
 248:armwave.c     ****                     xx = nsub & 0xff;
 1837              		.loc 1 248 21 view .LVU527
 1838              	@ armwave.c:238:                     bb = (g_armwave_state.ch1_color.b * value) >> 8;
 238:armwave.c     **** 
 1839              		.loc 1 238 55 is_stmt 0 view .LVU528
 1840 084c 9E0B04E0 		mul	r4, lr, fp	@ tmp323, _164, _80
 1841              	@ armwave.c:237:                     gg = (g_armwave_state.ch1_color.g * value) >> 8;
 237:armwave.c     ****                     bb = (g_armwave_state.ch1_color.b * value) >> 8;
 1842              		.loc 1 237 55 view .LVU529
 1843 0850 9E0906E0 		mul	r6, lr, r9	@ tmp327, _164, _76
 1844              	@ armwave.c:238:                     bb = (g_armwave_state.ch1_color.b * value) >> 8;
 238:armwave.c     **** 
 1845              		.loc 1 238 24 view .LVU530
 1846 0854 4444A0E1 		asr	r4, r4, #8	@ bb, tmp323,
 1847              	.LVL113:
 1848              	@ armwave.c:236:                     rr = (g_armwave_state.ch1_color.r * value) >> 8;
 236:armwave.c     ****                     gg = (g_armwave_state.ch1_color.g * value) >> 8;
 1849              		.loc 1 236 55 view .LVU531
 1850 0858 9E0A0EE0 		mul	lr, lr, r10	@ tmp333, _164, _70
 1851              	.LVL114:
 1852              	@ armwave.c:242:                     b = MIN(bb, 255);
 242:armwave.c     **** 
 1853              		.loc 1 242 25 view .LVU532
 1854 085c FF0054E3 		cmp	r4, #255	@ bb,
 1855              	@ armwave.c:237:                     gg = (g_armwave_state.ch1_color.g * value) >> 8;
 237:armwave.c     ****                     bb = (g_armwave_state.ch1_color.b * value) >> 8;
 1856              		.loc 1 237 24 view .LVU533
 1857 0860 4664A0E1 		asr	r6, r6, #8	@ gg, tmp327,
 1858              	.LVL115:
 1859              	@ armwave.c:242:                     b = MIN(bb, 255);
 242:armwave.c     **** 
 1860              		.loc 1 242 25 view .LVU534
 1861 0864 FF40A0A3 		movge	r4, #255	@ bb,
 1862              	.LVL116:
 1863              	@ armwave.c:241:                     g = MIN(gg, 255);
 241:armwave.c     ****                     b = MIN(bb, 255);
 1864              		.loc 1 241 25 view .LVU535
 1865 0868 FF0056E3 		cmp	r6, #255	@ gg,
 1866 086c FF60A0A3 		movge	r6, #255	@ gg,
 1867              	.LVL117:
 241:armwave.c     ****                     b = MIN(bb, 255);
 1868              		.loc 1 241 25 view .LVU536
 1869 0870 027083E2 		add	r7, r3, #2	@ _66, n,
 249:armwave.c     ****                     yy = nsub >> 8;
 1870              		.loc 1 249 21 is_stmt 1 view .LVU537
 250:armwave.c     ****                     offset = yy + (xx * g_armwave_state.target_width);
 1871              		.loc 1 250 21 view .LVU538
 251:armwave.c     ****                     *(out_buffer_base + offset) = word;
 1872              		.loc 1 251 21 view .LVU539
 252:armwave.c     ****                 }
 1873              		.loc 1 252 21 view .LVU540
 1874              	@ armwave.c:236:                     rr = (g_armwave_state.ch1_color.r * value) >> 8;
 236:armwave.c     ****                     gg = (g_armwave_state.ch1_color.g * value) >> 8;
 1875              		.loc 1 236 24 is_stmt 0 view .LVU541
 1876 0874 4EE4A0E1 		asr	lr, lr, #8	@ rr, tmp333,
 1877              	.LVL118:
 1878              	@ armwave.c:252:                     *(out_buffer_base + offset) = word;
 252:armwave.c     ****                 }
 1879              		.loc 1 252 39 view .LVU542
 1880 0878 340095E5 		ldr	r0, [r5, #52]	@ tmp377, g_armwave_state.target_width
 1881              	@ armwave.c:240:                     r = MIN(rr, 255);
 240:armwave.c     ****                     g = MIN(gg, 255);
 1882              		.loc 1 240 25 view .LVU543
 1883 087c FF005EE3 		cmp	lr, #255	@ rr,
 1884              	@ armwave.c:249:                     xx = nsub & 0xff;
 249:armwave.c     ****                     yy = nsub >> 8;
 1885              		.loc 1 249 24 view .LVU544
 1886 0880 7780EFE6 		uxtb	r8, r7	@ xx, _66
 1887              	.LVL119:
 1888              	@ armwave.c:245:                     word = 0xff000000 | (b << 16) | (g << 8) | r;
 245:armwave.c     **** 
 1889              		.loc 1 245 56 view .LVU545
 1890 0884 0664A0E1 		lsl	r6, r6, #8	@ tmp328, gg,
 1891              	@ armwave.c:245:                     word = 0xff000000 | (b << 16) | (g << 8) | r;
 245:armwave.c     **** 
 1892              		.loc 1 245 44 view .LVU546
 1893 0888 0448A0E1 		lsl	r4, r4, #16	@ tmp324, bb,
 1894              	@ armwave.c:240:                     r = MIN(rr, 255);
 240:armwave.c     ****                     g = MIN(gg, 255);
 1895              		.loc 1 240 25 view .LVU547
 1896 088c FFE0A0A3 		movge	lr, #255	@ rr,
 1897              	.LVL120:
 1898              	@ armwave.c:250:                     yy = nsub >> 8;
 250:armwave.c     ****                     offset = yy + (xx * g_armwave_state.target_width);
 1899              		.loc 1 250 31 view .LVU548
 1900 0890 4774A0E1 		asr	r7, r7, #8	@ yy, _66,
 1901              	@ armwave.c:252:                     *(out_buffer_base + offset) = word;
 252:armwave.c     ****                 }
 1902              		.loc 1 252 39 view .LVU549
 1903 0894 907827E0 		mla	r7, r0, r8, r7	@ tmp321, tmp377, xx, yy
 1904              	@ armwave.c:245:                     word = 0xff000000 | (b << 16) | (g << 8) | r;
 245:armwave.c     **** 
 1905              		.loc 1 245 44 view .LVU550
 1906 0898 FF4804E2 		and	r4, r4, #16711680	@ tmp325, tmp324,
 1907              	@ armwave.c:245:                     word = 0xff000000 | (b << 16) | (g << 8) | r;
 245:armwave.c     **** 
 1908              		.loc 1 245 56 view .LVU551
 1909 089c 7660FFE6 		uxth	r6, r6	@ tmp329, tmp328
 1910              	@ armwave.c:245:                     word = 0xff000000 | (b << 16) | (g << 8) | r;
 245:armwave.c     **** 
 1911              		.loc 1 245 51 view .LVU552
 1912 08a0 066084E1 		orr	r6, r4, r6	@ tmp331, tmp325, tmp329
 1913              	@ armwave.c:245:                     word = 0xff000000 | (b << 16) | (g << 8) | r;
 245:armwave.c     **** 
 1914              		.loc 1 245 62 view .LVU553
 1915 08a4 7EE0EFE6 		uxtb	lr, lr	@ rr, rr
 1916              	@ armwave.c:252:                     *(out_buffer_base + offset) = word;
 252:armwave.c     ****                 }
 1917              		.loc 1 252 49 view .LVU554
 1918 08a8 00009DE5 		ldr	r0, [sp]	@ out_buffer, %sfp
 1919              	@ armwave.c:245:                     word = 0xff000000 | (b << 16) | (g << 8) | r;
 245:armwave.c     **** 
 1920              		.loc 1 245 62 view .LVU555
 1921 08ac 0EE086E1 		orr	lr, r6, lr	@ tmp335, tmp331, rr
 1922              	@ armwave.c:245:                     word = 0xff000000 | (b << 16) | (g << 8) | r;
 245:armwave.c     **** 
 1923              		.loc 1 245 26 view .LVU556
 1924 08b0 FFE48EE3 		orr	lr, lr, #-16777216	@ word, tmp335,
 1925              	@ armwave.c:252:                     *(out_buffer_base + offset) = word;
 252:armwave.c     ****                 }
 1926              		.loc 1 252 49 view .LVU557
 1927 08b4 07E180E7 		str	lr, [r0, r7, lsl #2]	@ word, *_198
 1928              	.L100:
 1929              	.LVL121:
 232:armwave.c     ****                 wave_word >>= 8;
 1930              		.loc 1 232 17 is_stmt 1 view .LVU558
 233:armwave.c     **** 
 1931              		.loc 1 233 17 view .LVU559
 235:armwave.c     ****                     rr = (g_armwave_state.ch1_color.r * value) >> 8;
 1932              		.loc 1 235 17 view .LVU560
 1933              	@ armwave.c:235:                 if(value != 0) {
 235:armwave.c     ****                     rr = (g_armwave_state.ch1_color.r * value) >> 8;
 1934              		.loc 1 235 19 is_stmt 0 view .LVU561
 1935 08b8 000052E3 		cmp	r2, #0	@ wave_word,
 1936 08bc 9DFFFF0A 		beq	.L97		@,
 236:armwave.c     ****                     gg = (g_armwave_state.ch1_color.g * value) >> 8;
 1937              		.loc 1 236 21 is_stmt 1 view .LVU562
 1938              	.LVL122:
 237:armwave.c     ****                     bb = (g_armwave_state.ch1_color.b * value) >> 8;
 1939              		.loc 1 237 21 view .LVU563
 238:armwave.c     **** 
 1940              		.loc 1 238 21 view .LVU564
 240:armwave.c     ****                     g = MIN(gg, 255);
 1941              		.loc 1 240 21 view .LVU565
 241:armwave.c     ****                     b = MIN(bb, 255);
 1942              		.loc 1 241 21 view .LVU566
 242:armwave.c     **** 
 1943              		.loc 1 242 21 view .LVU567
 245:armwave.c     **** 
 1944              		.loc 1 245 21 view .LVU568
 248:armwave.c     ****                     xx = nsub & 0xff;
 1945              		.loc 1 248 21 view .LVU569
 1946              	@ armwave.c:238:                     bb = (g_armwave_state.ch1_color.b * value) >> 8;
 238:armwave.c     **** 
 1947              		.loc 1 238 55 is_stmt 0 view .LVU570
 1948 08c0 920B0EE0 		mul	lr, r2, fp	@ tmp344, wave_word, _80
 1949              	@ armwave.c:237:                     gg = (g_armwave_state.ch1_color.g * value) >> 8;
 237:armwave.c     ****                     bb = (g_armwave_state.ch1_color.b * value) >> 8;
 1950              		.loc 1 237 55 view .LVU571
 1951 08c4 920904E0 		mul	r4, r2, r9	@ tmp348, wave_word, _76
 1952              	@ armwave.c:238:                     bb = (g_armwave_state.ch1_color.b * value) >> 8;
 238:armwave.c     **** 
 1953              		.loc 1 238 24 view .LVU572
 1954 08c8 4EE4A0E1 		asr	lr, lr, #8	@ bb, tmp344,
 1955              	.LVL123:
 1956              	@ armwave.c:236:                     rr = (g_armwave_state.ch1_color.r * value) >> 8;
 236:armwave.c     ****                     gg = (g_armwave_state.ch1_color.g * value) >> 8;
 1957              		.loc 1 236 55 view .LVU573
 1958 08cc 920A02E0 		mul	r2, r2, r10	@ tmp354, wave_word, _70
 1959              	.LVL124:
 1960              	@ armwave.c:242:                     b = MIN(bb, 255);
 242:armwave.c     **** 
 1961              		.loc 1 242 25 view .LVU574
 1962 08d0 FF005EE3 		cmp	lr, #255	@ bb,
 1963              	@ armwave.c:237:                     gg = (g_armwave_state.ch1_color.g * value) >> 8;
 237:armwave.c     ****                     bb = (g_armwave_state.ch1_color.b * value) >> 8;
 1964              		.loc 1 237 24 view .LVU575
 1965 08d4 4444A0E1 		asr	r4, r4, #8	@ gg, tmp348,
 1966              	.LVL125:
 1967              	@ armwave.c:242:                     b = MIN(bb, 255);
 242:armwave.c     **** 
 1968              		.loc 1 242 25 view .LVU576
 1969 08d8 FFE0A0A3 		movge	lr, #255	@ bb,
 1970              	.LVL126:
 1971              	@ armwave.c:241:                     g = MIN(gg, 255);
 241:armwave.c     ****                     b = MIN(bb, 255);
 1972              		.loc 1 241 25 view .LVU577
 1973 08dc FF0054E3 		cmp	r4, #255	@ gg,
 1974 08e0 FF40A0A3 		movge	r4, #255	@ gg,
 1975              	.LVL127:
 241:armwave.c     ****                     b = MIN(bb, 255);
 1976              		.loc 1 241 25 view .LVU578
 1977 08e4 036083E2 		add	r6, r3, #3	@ _59, n,
 249:armwave.c     ****                     yy = nsub >> 8;
 1978              		.loc 1 249 21 is_stmt 1 view .LVU579
 250:armwave.c     ****                     offset = yy + (xx * g_armwave_state.target_width);
 1979              		.loc 1 250 21 view .LVU580
 251:armwave.c     ****                     *(out_buffer_base + offset) = word;
 1980              		.loc 1 251 21 view .LVU581
 252:armwave.c     ****                 }
 1981              		.loc 1 252 21 view .LVU582
 1982              	@ armwave.c:236:                     rr = (g_armwave_state.ch1_color.r * value) >> 8;
 236:armwave.c     ****                     gg = (g_armwave_state.ch1_color.g * value) >> 8;
 1983              		.loc 1 236 24 is_stmt 0 view .LVU583
 1984 08e8 4224A0E1 		asr	r2, r2, #8	@ rr, tmp354,
 1985              	.LVL128:
 1986              	@ armwave.c:251:                     offset = yy + (xx * g_armwave_state.target_width);
 251:armwave.c     ****                     *(out_buffer_base + offset) = word;
 1987              		.loc 1 251 39 view .LVU584
 1988 08ec 347095E5 		ldr	r7, [r5, #52]	@ g_armwave_state.target_width, g_armwave_state.target_width
 1989              	@ armwave.c:240:                     r = MIN(rr, 255);
 240:armwave.c     ****                     g = MIN(gg, 255);
 1990              		.loc 1 240 25 view .LVU585
 1991 08f0 FF0052E3 		cmp	r2, #255	@ rr,
 1992              	@ armwave.c:249:                     xx = nsub & 0xff;
 249:armwave.c     ****                     yy = nsub >> 8;
 1993              		.loc 1 249 24 view .LVU586
 1994 08f4 7680EFE6 		uxtb	r8, r6	@ xx, _59
 1995              	@ armwave.c:245:                     word = 0xff000000 | (b << 16) | (g << 8) | r;
 245:armwave.c     **** 
 1996              		.loc 1 245 56 view .LVU587
 1997 08f8 0444A0E1 		lsl	r4, r4, #8	@ tmp349, gg,
 1998              	@ armwave.c:245:                     word = 0xff000000 | (b << 16) | (g << 8) | r;
 245:armwave.c     **** 
 1999              		.loc 1 245 44 view .LVU588
 2000 08fc 0EE8A0E1 		lsl	lr, lr, #16	@ tmp345, bb,
 2001              	@ armwave.c:240:                     r = MIN(rr, 255);
 240:armwave.c     ****                     g = MIN(gg, 255);
 2002              		.loc 1 240 25 view .LVU589
 2003 0900 FF20A0A3 		movge	r2, #255	@ rr,
 2004              	.LVL129:
 2005              	@ armwave.c:250:                     yy = nsub >> 8;
 250:armwave.c     ****                     offset = yy + (xx * g_armwave_state.target_width);
 2006              		.loc 1 250 31 view .LVU590
 2007 0904 4664A0E1 		asr	r6, r6, #8	@ yy, _59,
 2008              	@ armwave.c:245:                     word = 0xff000000 | (b << 16) | (g << 8) | r;
 245:armwave.c     **** 
 2009              		.loc 1 245 44 view .LVU591
 2010 0908 FFE80EE2 		and	lr, lr, #16711680	@ tmp346, tmp345,
 2011              	@ armwave.c:245:                     word = 0xff000000 | (b << 16) | (g << 8) | r;
 245:armwave.c     **** 
 2012              		.loc 1 245 56 view .LVU592
 2013 090c 7440FFE6 		uxth	r4, r4	@ tmp350, tmp349
 2014              	@ armwave.c:252:                     *(out_buffer_base + offset) = word;
 252:armwave.c     ****                 }
 2015              		.loc 1 252 39 view .LVU593
 2016 0910 976826E0 		mla	r6, r7, r8, r6	@ tmp342, g_armwave_state.target_width, xx, yy
 2017              	@ armwave.c:245:                     word = 0xff000000 | (b << 16) | (g << 8) | r;
 245:armwave.c     **** 
 2018              		.loc 1 245 51 view .LVU594
 2019 0914 04E08EE1 		orr	lr, lr, r4	@ tmp352, tmp346, tmp350
 2020              	@ armwave.c:245:                     word = 0xff000000 | (b << 16) | (g << 8) | r;
 245:armwave.c     **** 
 2021              		.loc 1 245 62 view .LVU595
 2022 0918 7220EFE6 		uxtb	r2, r2	@ rr, rr
 2023              	@ armwave.c:252:                     *(out_buffer_base + offset) = word;
 252:armwave.c     ****                 }
 2024              		.loc 1 252 49 view .LVU596
 2025 091c 00009DE5 		ldr	r0, [sp]	@ out_buffer, %sfp
 2026              	@ armwave.c:245:                     word = 0xff000000 | (b << 16) | (g << 8) | r;
 245:armwave.c     **** 
 2027              		.loc 1 245 62 view .LVU597
 2028 0920 02208EE1 		orr	r2, lr, r2	@ tmp356, tmp352, rr
 2029              	@ armwave.c:245:                     word = 0xff000000 | (b << 16) | (g << 8) | r;
 245:armwave.c     **** 
 2030              		.loc 1 245 26 view .LVU598
 2031 0924 FF2482E3 		orr	r2, r2, #-16777216	@ word, tmp356,
 2032              	@ armwave.c:252:                     *(out_buffer_base + offset) = word;
 252:armwave.c     ****                 }
 2033              		.loc 1 252 49 view .LVU599
 2034 0928 062180E7 		str	r2, [r0, r6, lsl #2]	@ word, *_244
 2035 092c 81FFFFEA 		b	.L97		@
 2036              	.LVL130:
 2037              	.L118:
 218:armwave.c     **** 
 2038              		.loc 1 218 5 is_stmt 1 discriminator 1 view .LVU600
 2039 0930 10309FE5 		ldr	r3, .L120+4	@,
 2040 0934 DA20A0E3 		mov	r2, #218	@,
 2041 0938 0C109FE5 		ldr	r1, .L120+8	@,
 2042              	.LVL131:
 218:armwave.c     **** 
 2043              		.loc 1 218 5 is_stmt 0 discriminator 1 view .LVU601
 2044 093c 0C009FE5 		ldr	r0, .L120+12	@,
 2045              	.LVL132:
 218:armwave.c     **** 
 2046              		.loc 1 218 5 discriminator 1 view .LVU602
 2047 0940 FEFFFFEB 		bl	__assert_fail		@
 2048              	.LVL133:
 2049              	.L121:
 218:armwave.c     **** 
 2050              		.loc 1 218 5 discriminator 1 view .LVU603
 2051              		.align	2
 2052              	.L120:
 2053 0944 00000000 		.word	g_armwave_state
 2054 0948 18000000 		.word	.LANCHOR0+24
 2055 094c 00000000 		.word	.LC0
 2056 0950 D4000000 		.word	.LC5
 2057              		.cfi_endproc
 2058              	.LFE63:
 2060              		.align	2
 2061              		.global	armwave_fill_pixbuf_scaled
 2062              		.syntax unified
 2063              		.arm
 2064              		.fpu vfp
 2066              	armwave_fill_pixbuf_scaled:
 2067              	.LVL134:
 2068              	.LFB64:
 258:armwave.c     **** 
 259:armwave.c     **** /*
 260:armwave.c     ****  * Fill a pixbuf with a multiple of a 256-height waveform.
 261:armwave.c     ****  * Rows are repeated as necessary.
 262:armwave.c     ****  */
 263:armwave.c     **** void armwave_fill_pixbuf_scaled(uint32_t *out_buffer)
 264:armwave.c     **** {
 2069              		.loc 1 264 1 is_stmt 1 view -0
 2070              		.cfi_startproc
 2071              		@ args = 0, pretend = 0, frame = 0
 2072              		@ frame_needed = 0, uses_anonymous_args = 0
 265:armwave.c     ****     uint32_t xx, yy, ysub, word, wave_word;
 2073              		.loc 1 265 5 view .LVU605
 266:armwave.c     ****     int rr, gg, bb, n, nsub, npix, i, vscale;
 2074              		.loc 1 266 5 view .LVU606
 267:armwave.c     ****     uint8_t r, g, b, value;
 2075              		.loc 1 267 5 view .LVU607
 268:armwave.c     ****     uint32_t *base_32ptr = (uint32_t*)g_armwave_state.ch1_buffer;
 2076              		.loc 1 268 5 view .LVU608
 269:armwave.c     ****     uint32_t *out_buffer_base = out_buffer;
 2077              		.loc 1 269 5 view .LVU609
 270:armwave.c     ****     uint32_t offset;
 2078              		.loc 1 270 5 view .LVU610
 271:armwave.c     **** 
 272:armwave.c     ****     assert(out_buffer != NULL);
 2079              		.loc 1 272 5 view .LVU611
 2080              	@ armwave.c:264: {
 264:armwave.c     ****     uint32_t xx, yy, ysub, word, wave_word;
 2081              		.loc 1 264 1 is_stmt 0 view .LVU612
 2082 0954 F0472DE9 		push	{r4, r5, r6, r7, r8, r9, r10, lr}	@
 2083              		.cfi_def_cfa_offset 32
 2084              		.cfi_offset 4, -32
 2085              		.cfi_offset 5, -28
 2086              		.cfi_offset 6, -24
 2087              		.cfi_offset 7, -20
 2088              		.cfi_offset 8, -16
 2089              		.cfi_offset 9, -12
 2090              		.cfi_offset 10, -8
 2091              		.cfi_offset 14, -4
 2092              	@ armwave.c:272:     assert(out_buffer != NULL);
 2093              		.loc 1 272 5 view .LVU613
 2094 0958 005050E2 		subs	r5, r0, #0	@ out_buffer, out_buffer
 2095 095c 2C00000A 		beq	.L128		@,
 273:armwave.c     **** 
 274:armwave.c     ****     // Buffer is sent non-rotated: we use GDK/GL to assemble and rotate it
 275:armwave.c     **** 
 276:armwave.c     ****     npix = g_armwave_state.target_width * 256; //g_armwave_state.target_height;
 2096              		.loc 1 276 5 is_stmt 1 view .LVU614
 2097              	@ armwave.c:276:     npix = g_armwave_state.target_width * 256; //g_armwave_state.target_height;
 2098              		.loc 1 276 27 is_stmt 0 view .LVU615
 2099 0960 C0409FE5 		ldr	r4, .L129	@ tmp202,
 2100              	@ armwave.c:279:     printf("np=%d w=%d v=%d\n", npix, g_armwave_state.target_width, vscale);
 277:armwave.c     ****     vscale = g_armwave_state.target_height / 256;
 278:armwave.c     **** 
 279:armwave.c     ****     printf("np=%d w=%d v=%d\n", npix, g_armwave_state.target_width, vscale);
 2101              		.loc 1 279 5 view .LVU616
 2102 0964 C0009FE5 		ldr	r0, .L129+4	@,
 2103              	.LVL135:
 2104              	@ armwave.c:276:     npix = g_armwave_state.target_width * 256; //g_armwave_state.target_height;
 276:armwave.c     ****     vscale = g_armwave_state.target_height / 256;
 2105              		.loc 1 276 27 view .LVU617
 2106 0968 346094E5 		ldr	r6, [r4, #52]	@ _1, g_armwave_state.target_width
 2107              	@ armwave.c:277:     vscale = g_armwave_state.target_height / 256;
 277:armwave.c     ****     vscale = g_armwave_state.target_height / 256;
 2108              		.loc 1 277 44 view .LVU618
 2109 096c 383094E5 		ldr	r3, [r4, #56]	@ g_armwave_state.target_height, g_armwave_state.target_height
 2110              	@ armwave.c:279:     printf("np=%d w=%d v=%d\n", npix, g_armwave_state.target_width, vscale);
 2111              		.loc 1 279 5 view .LVU619
 2112 0970 0620A0E1 		mov	r2, r6	@, _1
 2113              	@ armwave.c:276:     npix = g_armwave_state.target_width * 256; //g_armwave_state.target_height;
 276:armwave.c     ****     vscale = g_armwave_state.target_height / 256;
 2114              		.loc 1 276 41 view .LVU620
 2115 0974 0664A0E1 		lsl	r6, r6, #8	@ npix, _1,
 2116              	.LVL136:
 277:armwave.c     ****     vscale = g_armwave_state.target_height / 256;
 2117              		.loc 1 277 5 is_stmt 1 view .LVU621
 2118              		.loc 1 279 5 view .LVU622
 2119 0978 0610A0E1 		mov	r1, r6	@, npix
 2120 097c 2334A0E1 		lsr	r3, r3, #8	@, g_armwave_state.target_height,
 2121              	.LVL137:
 2122              		.loc 1 279 5 is_stmt 0 view .LVU623
 2123 0980 FEFFFFEB 		bl	printf		@
 2124              	.LVL138:
 280:armwave.c     **** 
 281:armwave.c     ****     for(n = 0; n < npix; n += 1) {
 2125              		.loc 1 281 5 is_stmt 1 view .LVU624
 2126              		.loc 1 281 5 is_stmt 0 view .LVU625
 2127 0984 000056E3 		cmp	r6, #0	@ npix,
 2128 0988 F087BDD8 		pople	{r4, r5, r6, r7, r8, r9, r10, pc}	@
 2129              	@ armwave.c:290:             *(out_buffer_base + offset) = 0xff000000 | ((i * 64) << 8) | (yy << 8)
 282:armwave.c     ****         for(i = 0; i < 4; i++) {
 283:armwave.c     ****             yy = ((n & 0xff) * 4) + i;
 284:armwave.c     ****             xx = n >> 8;
 285:armwave.c     **** 
 286:armwave.c     ****             //offset = (yy + (xx * g_armwave_state.target_width));
 287:armwave.c     ****             //*(out_buffer_base + offset) = 0xff000000 | (yy << 8) | xx;
 288:armwave.c     **** 
 289:armwave.c     ****             offset = (xx + (yy * g_armwave_state.target_width));
 290:armwave.c     ****             *(out_buffer_base + offset) = 0xff000000 | ((i * 64) << 8) | (yy << 8) | xx;
 2130              		.loc 1 290 84 view .LVU626
 2131 098c 9C709FE5 		ldr	r7, .L129+8	@ tmp185,
 2132 0990 9CE09FE5 		ldr	lr, .L129+12	@ tmp193,
 2133 0994 9CC09FE5 		ldr	ip, .L129+16	@ tmp201,
 2134              	@ armwave.c:281:     for(n = 0; n < npix; n += 1) {
 281:armwave.c     ****         for(i = 0; i < 4; i++) {
 2135              		.loc 1 281 11 view .LVU627
 2136 0998 0000A0E3 		mov	r0, #0	@ n,
 2137              	.LVL139:
 2138              	.L125:
 283:armwave.c     ****             xx = n >> 8;
 2139              		.loc 1 283 13 is_stmt 1 view .LVU628
 2140              	@ armwave.c:283:             yy = ((n & 0xff) * 4) + i;
 283:armwave.c     ****             xx = n >> 8;
 2141              		.loc 1 283 22 is_stmt 0 view .LVU629
 2142 099c 7010EFE6 		uxtb	r1, r0	@ n, n
 2143              	@ armwave.c:289:             offset = (xx + (yy * g_armwave_state.target_width));
 289:armwave.c     ****             *(out_buffer_base + offset) = 0xff000000 | ((i * 64) << 8) | (yy << 8) | xx;
 2144              		.loc 1 289 32 view .LVU630
 2145 09a0 348094E5 		ldr	r8, [r4, #52]	@ g_armwave_state.target_width, g_armwave_state.target_width
 2146              	@ armwave.c:283:             yy = ((n & 0xff) * 4) + i;
 283:armwave.c     ****             xx = n >> 8;
 2147              		.loc 1 283 30 view .LVU631
 2148 09a4 0131A0E1 		lsl	r3, r1, #2	@ _39, n,
 2149              	.LVL140:
 284:armwave.c     **** 
 2150              		.loc 1 284 13 is_stmt 1 view .LVU632
 2151              	@ armwave.c:284:             xx = n >> 8;
 284:armwave.c     **** 
 2152              		.loc 1 284 20 is_stmt 0 view .LVU633
 2153 09a8 4024A0E1 		asr	r2, r0, #8	@ xx, n,
 2154              	.LVL141:
 289:armwave.c     ****             *(out_buffer_base + offset) = 0xff000000 | ((i * 64) << 8) | (yy << 8) | xx;
 2155              		.loc 1 289 13 is_stmt 1 view .LVU634
 2156              		.loc 1 290 13 view .LVU635
 2157              	@ armwave.c:290:             *(out_buffer_base + offset) = 0xff000000 | ((i * 64) << 8) | (yy << 8)
 2158              		.loc 1 290 31 is_stmt 0 view .LVU636
 2159 09ac 982328E0 		mla	r8, r8, r3, r2	@ tmp174, g_armwave_state.target_width, _39, xx
 2160              	.LVL142:
 2161              	@ armwave.c:290:             *(out_buffer_base + offset) = 0xff000000 | ((i * 64) << 8) | (yy << 8)
 2162              		.loc 1 290 84 view .LVU637
 2163 09b0 011582E1 		orr	r1, r2, r1, lsl #10	@ tmp176, xx, n,
 2164 09b4 FF1481E3 		orr	r1, r1, #-16777216	@ tmp177, tmp176,
 2165              	@ armwave.c:290:             *(out_buffer_base + offset) = 0xff000000 | ((i * 64) << 8) | (yy << 8)
 2166              		.loc 1 290 41 view .LVU638
 2167 09b8 081185E7 		str	r1, [r5, r8, lsl #2]	@ tmp177, *_54
 2168              	.LVL143:
 283:armwave.c     ****             xx = n >> 8;
 2169              		.loc 1 283 13 is_stmt 1 view .LVU639
 2170              	@ armwave.c:289:             offset = (xx + (yy * g_armwave_state.target_width));
 289:armwave.c     ****             *(out_buffer_base + offset) = 0xff000000 | ((i * 64) << 8) | (yy << 8) | xx;
 2171              		.loc 1 289 32 is_stmt 0 view .LVU640
 2172 09bc 349094E5 		ldr	r9, [r4, #52]	@ g_armwave_state.target_width, g_armwave_state.target_width
 2173              	@ armwave.c:283:             yy = ((n & 0xff) * 4) + i;
 283:armwave.c     ****             xx = n >> 8;
 2174              		.loc 1 283 35 view .LVU641
 2175 09c0 011083E2 		add	r1, r3, #1	@ yy, _39,
 2176              	.LVL144:
 284:armwave.c     **** 
 2177              		.loc 1 284 13 is_stmt 1 view .LVU642
 289:armwave.c     ****             *(out_buffer_base + offset) = 0xff000000 | ((i * 64) << 8) | (yy << 8) | xx;
 2178              		.loc 1 289 13 view .LVU643
 2179              		.loc 1 290 13 view .LVU644
 2180              	@ armwave.c:283:             yy = ((n & 0xff) * 4) + i;
 283:armwave.c     ****             xx = n >> 8;
 2181              		.loc 1 283 35 is_stmt 0 view .LVU645
 2182 09c4 028083E2 		add	r8, r3, #2	@ yy, _39,
 2183              	@ armwave.c:290:             *(out_buffer_base + offset) = 0xff000000 | ((i * 64) << 8) | (yy << 8)
 2184              		.loc 1 290 31 view .LVU646
 2185 09c8 992129E0 		mla	r9, r9, r1, r2	@ tmp181, g_armwave_state.target_width, yy, xx
 2186              	.LVL145:
 2187              	@ armwave.c:290:             *(out_buffer_base + offset) = 0xff000000 | ((i * 64) << 8) | (yy << 8)
 2188              		.loc 1 290 84 view .LVU647
 2189 09cc 011482E1 		orr	r1, r2, r1, lsl #8	@ tmp183, xx, yy,
 2190              	.LVL146:
 2191              		.loc 1 290 84 view .LVU648
 2192 09d0 071081E1 		orr	r1, r1, r7	@ tmp184, tmp183, tmp185
 2193              	@ armwave.c:290:             *(out_buffer_base + offset) = 0xff000000 | ((i * 64) << 8) | (yy << 8)
 2194              		.loc 1 290 41 view .LVU649
 2195 09d4 091185E7 		str	r1, [r5, r9, lsl #2]	@ tmp184, *_76
 2196              	.LVL147:
 283:armwave.c     ****             xx = n >> 8;
 2197              		.loc 1 283 13 is_stmt 1 view .LVU650
 284:armwave.c     **** 
 2198              		.loc 1 284 13 view .LVU651
 289:armwave.c     ****             *(out_buffer_base + offset) = 0xff000000 | ((i * 64) << 8) | (yy << 8) | xx;
 2199              		.loc 1 289 13 view .LVU652
 2200              		.loc 1 290 13 view .LVU653
 2201              	@ armwave.c:289:             offset = (xx + (yy * g_armwave_state.target_width));
 289:armwave.c     ****             *(out_buffer_base + offset) = 0xff000000 | ((i * 64) << 8) | (yy << 8) | xx;
 2202              		.loc 1 289 32 is_stmt 0 view .LVU654
 2203 09d8 349094E5 		ldr	r9, [r4, #52]	@ g_armwave_state.target_width, g_armwave_state.target_width
 2204              	@ armwave.c:290:             *(out_buffer_base + offset) = 0xff000000 | ((i * 64) << 8) | (yy << 8)
 2205              		.loc 1 290 84 view .LVU655
 2206 09dc 081482E1 		orr	r1, r2, r8, lsl #8	@ tmp191, xx, yy,
 2207 09e0 0E1081E1 		orr	r1, r1, lr	@ tmp192, tmp191, tmp193
 2208              	@ armwave.c:290:             *(out_buffer_base + offset) = 0xff000000 | ((i * 64) << 8) | (yy << 8)
 2209              		.loc 1 290 31 view .LVU656
 2210 09e4 992828E0 		mla	r8, r9, r8, r2	@ tmp189, g_armwave_state.target_width, yy, xx
 2211              	.LVL148:
 2212              	@ armwave.c:283:             yy = ((n & 0xff) * 4) + i;
 283:armwave.c     ****             xx = n >> 8;
 2213              		.loc 1 283 35 view .LVU657
 2214 09e8 033083E2 		add	r3, r3, #3	@ yy, _39,
 2215              	.LVL149:
 2216              	@ armwave.c:281:     for(n = 0; n < npix; n += 1) {
 281:armwave.c     ****         for(i = 0; i < 4; i++) {
 2217              		.loc 1 281 28 view .LVU658
 2218 09ec 010080E2 		add	r0, r0, #1	@ n, n,
 2219              	.LVL150:
 2220              	@ armwave.c:290:             *(out_buffer_base + offset) = 0xff000000 | ((i * 64) << 8) | (yy << 8)
 2221              		.loc 1 290 41 view .LVU659
 2222 09f0 081185E7 		str	r1, [r5, r8, lsl #2]	@ tmp192, *_98
 2223              	.LVL151:
 283:armwave.c     ****             xx = n >> 8;
 2224              		.loc 1 283 13 is_stmt 1 view .LVU660
 284:armwave.c     **** 
 2225              		.loc 1 284 13 view .LVU661
 289:armwave.c     ****             *(out_buffer_base + offset) = 0xff000000 | ((i * 64) << 8) | (yy << 8) | xx;
 2226              		.loc 1 289 13 view .LVU662
 2227              		.loc 1 290 13 view .LVU663
 2228              	@ armwave.c:289:             offset = (xx + (yy * g_armwave_state.target_width));
 289:armwave.c     ****             *(out_buffer_base + offset) = 0xff000000 | ((i * 64) << 8) | (yy << 8) | xx;
 2229              		.loc 1 289 32 is_stmt 0 view .LVU664
 2230 09f4 348094E5 		ldr	r8, [r4, #52]	@ g_armwave_state.target_width, g_armwave_state.target_width
 2231              	@ armwave.c:290:             *(out_buffer_base + offset) = 0xff000000 | ((i * 64) << 8) | (yy << 8)
 2232              		.loc 1 290 84 view .LVU665
 2233 09f8 031482E1 		orr	r1, r2, r3, lsl #8	@ tmp199, xx, yy,
 2234              	@ armwave.c:281:     for(n = 0; n < npix; n += 1) {
 281:armwave.c     ****         for(i = 0; i < 4; i++) {
 2235              		.loc 1 281 5 view .LVU666
 2236 09fc 000056E1 		cmp	r6, r0	@ npix, n
 2237              	@ armwave.c:290:             *(out_buffer_base + offset) = 0xff000000 | ((i * 64) << 8) | (yy << 8)
 2238              		.loc 1 290 31 view .LVU667
 2239 0a00 982323E0 		mla	r3, r8, r3, r2	@ tmp197, g_armwave_state.target_width, yy, xx
 2240              	.LVL152:
 2241              	@ armwave.c:290:             *(out_buffer_base + offset) = 0xff000000 | ((i * 64) << 8) | (yy << 8)
 2242              		.loc 1 290 84 view .LVU668
 2243 0a04 0C2081E1 		orr	r2, r1, ip	@ tmp200, tmp199, tmp201
 2244              	.LVL153:
 2245              	@ armwave.c:290:             *(out_buffer_base + offset) = 0xff000000 | ((i * 64) << 8) | (yy << 8)
 2246              		.loc 1 290 41 view .LVU669
 2247 0a08 032185E7 		str	r2, [r5, r3, lsl #2]	@ tmp200, *_120
 2248              	.LVL154:
 2249              	@ armwave.c:281:     for(n = 0; n < npix; n += 1) {
 281:armwave.c     ****         for(i = 0; i < 4; i++) {
 2250              		.loc 1 281 5 view .LVU670
 2251 0a0c E2FFFF1A 		bne	.L125		@,
 2252 0a10 F087BDE8 		pop	{r4, r5, r6, r7, r8, r9, r10, pc}	@
 2253              	.LVL155:
 2254              	.L128:
 2255              	.LBB6:
 2256              	.LBI6:
 263:armwave.c     **** {
 2257              		.loc 1 263 6 is_stmt 1 view .LVU671
 2258              	.LBB7:
 272:armwave.c     **** 
 2259              		.loc 1 272 5 view .LVU672
 2260 0a14 20309FE5 		ldr	r3, .L129+20	@,
 2261 0a18 112EA0E3 		mov	r2, #272	@,
 2262 0a1c 1C109FE5 		ldr	r1, .L129+24	@,
 2263 0a20 1C009FE5 		ldr	r0, .L129+28	@,
 2264              	.LVL156:
 272:armwave.c     **** 
 2265              		.loc 1 272 5 is_stmt 0 view .LVU673
 2266 0a24 FEFFFFEB 		bl	__assert_fail		@
 2267              	.LVL157:
 2268              	.L130:
 272:armwave.c     **** 
 2269              		.loc 1 272 5 view .LVU674
 2270              		.align	2
 2271              	.L129:
 2272 0a28 00000000 		.word	g_armwave_state
 2273 0a2c E8000000 		.word	.LC6
 2274 0a30 004000FF 		.word	-16760832
 2275 0a34 008000FF 		.word	-16744448
 2276 0a38 00C000FF 		.word	-16728064
 2277 0a3c 30000000 		.word	.LANCHOR0+48
 2278 0a40 00000000 		.word	.LC0
 2279 0a44 D4000000 		.word	.LC5
 2280              	.LBE7:
 2281              	.LBE6:
 2282              		.cfi_endproc
 2283              	.LFE64:
 2285              		.align	2
 2286              		.global	armwave_dump_ppm_debug
 2287              		.syntax unified
 2288              		.arm
 2289              		.fpu vfp
 2291              	armwave_dump_ppm_debug:
 2292              	.LVL158:
 2293              	.LFB65:
 291:armwave.c     ****         }
 292:armwave.c     ****     }
 293:armwave.c     **** 
 294:armwave.c     ****     //for(n = 0; n < npix; n += 4) {
 295:armwave.c     ****         // Read a 32-bit word at a time.  If any bits are nonzero, we need to process
 296:armwave.c     ****         // each byte.  We can afford to do this because most pixels will be blank for
 297:armwave.c     ****         // most normal waveforms.
 298:armwave.c     ****         /*
 299:armwave.c     ****         wave_word = *base_32ptr++;
 300:armwave.c     **** 
 301:armwave.c     ****         if(COND_UNLIKELY(wave_word != 0)) {
 302:armwave.c     ****             for(i = 0; i < 4; i++) {
 303:armwave.c     ****                 value = wave_word & 0xff;
 304:armwave.c     ****                 wave_word >>= 8;
 305:armwave.c     **** 
 306:armwave.c     ****                 if(value != 0) {
 307:armwave.c     ****                     rr = (g_armwave_state.ch1_color.r * value) >> 8;
 308:armwave.c     ****                     gg = (g_armwave_state.ch1_color.g * value) >> 8;
 309:armwave.c     ****                     bb = (g_armwave_state.ch1_color.b * value) >> 8;
 310:armwave.c     **** 
 311:armwave.c     ****                     r = MIN(rr, 255);
 312:armwave.c     ****                     g = MIN(gg, 255);
 313:armwave.c     ****                     b = MIN(bb, 255);
 314:armwave.c     **** 
 315:armwave.c     ****                     // Ensure 100% alpha channel, if it is used
 316:armwave.c     ****                     word = 0xff000000 | (b << 16) | (g << 8) | r;
 317:armwave.c     **** 
 318:armwave.c     ****                     // Do line scaling as necessary.
 319:armwave.c     ****                     nsub = n + i;
 320:armwave.c     ****                     xx = nsub & 0x1ff;
 321:armwave.c     ****                     yy = nsub >> 8;
 322:armwave.c     ****                     offset = (yy + (xx * 2 * g_armwave_state.target_width));
 323:armwave.c     ****                     word = 0xff000000 | (xx & 0xff) | ((xx & 0xff) << 8) | ((xx & 0xff) << 16);
 324:armwave.c     ****                     //*(out_buffer_base + offset) = word;
 325:armwave.c     ****                 }
 326:armwave.c     ****             }
 327:armwave.c     ****         }
 328:armwave.c     **** 
 329:armwave.c     ****         //printf("0x%08x, %d\n", out_buffer_base, n);
 330:armwave.c     ****         */
 331:armwave.c     **** 
 332:armwave.c     ****         //*out_buffer_base++ = 0xff000000 | n;
 333:armwave.c     ****     //}
 334:armwave.c     **** }
 335:armwave.c     **** 
 336:armwave.c     **** void armwave_dump_ppm_debug(uint32_t *buffer, char *fn)
 337:armwave.c     **** {
 2294              		.loc 1 337 1 is_stmt 1 view -0
 2295              		.cfi_startproc
 2296              		@ args = 0, pretend = 0, frame = 0
 2297              		@ frame_needed = 0, uses_anonymous_args = 0
 338:armwave.c     ****     FILE *fp = fopen(fn, "wb");
 2298              		.loc 1 338 5 view .LVU676
 2299              	@ armwave.c:337: {
 337:armwave.c     ****     FILE *fp = fopen(fn, "wb");
 2300              		.loc 1 337 1 is_stmt 0 view .LVU677
 2301 0a48 0130A0E1 		mov	r3, r1	@ fn, fn
 2302 0a4c F0432DE9 		push	{r4, r5, r6, r7, r8, r9, lr}	@
 2303              		.cfi_def_cfa_offset 28
 2304              		.cfi_offset 4, -28
 2305              		.cfi_offset 5, -24
 2306              		.cfi_offset 6, -20
 2307              		.cfi_offset 7, -16
 2308              		.cfi_offset 8, -12
 2309              		.cfi_offset 9, -8
 2310              		.cfi_offset 14, -4
 2311 0a50 0080A0E1 		mov	r8, r0	@ buffer, buffer
 2312 0a54 0CD04DE2 		sub	sp, sp, #12	@,,
 2313              		.cfi_def_cfa_offset 40
 2314              	@ armwave.c:338:     FILE *fp = fopen(fn, "wb");
 2315              		.loc 1 338 16 view .LVU678
 2316 0a58 D8109FE5 		ldr	r1, .L143	@,
 2317              	.LVL159:
 2318              		.loc 1 338 16 view .LVU679
 2319 0a5c 0300A0E1 		mov	r0, r3	@, fn
 2320              	.LVL160:
 2321              		.loc 1 338 16 view .LVU680
 2322 0a60 FEFFFFEB 		bl	fopen64		@
 2323              	.LVL161:
 2324              	@ armwave.c:345:     fprintf(fp, "%d %d\n", g_armwave_state.target_height, g_armwave_state.target_w
 339:armwave.c     ****     uint32_t data;
 340:armwave.c     ****     int xx, yy;
 341:armwave.c     **** 
 342:armwave.c     ****     //printf("in_buffer=0x%08x\n", buffer);
 343:armwave.c     **** 
 344:armwave.c     ****     fputs("P3\n", fp);
 345:armwave.c     ****     fprintf(fp, "%d %d\n", g_armwave_state.target_height, g_armwave_state.target_width);
 2325              		.loc 1 345 5 view .LVU681
 2326 0a64 D0609FE5 		ldr	r6, .L143+4	@ tmp154,
 2327              	@ armwave.c:344:     fputs("P3\n", fp);
 344:armwave.c     ****     fprintf(fp, "%d %d\n", g_armwave_state.target_height, g_armwave_state.target_width);
 2328              		.loc 1 344 5 view .LVU682
 2329 0a68 0320A0E3 		mov	r2, #3	@,
 2330 0a6c 0110A0E3 		mov	r1, #1	@,
 2331              	@ armwave.c:338:     FILE *fp = fopen(fn, "wb");
 338:armwave.c     ****     uint32_t data;
 2332              		.loc 1 338 16 view .LVU683
 2333 0a70 0070A0E1 		mov	r7, r0	@ fp,
 2334              	.LVL162:
 339:armwave.c     ****     uint32_t data;
 2335              		.loc 1 339 5 is_stmt 1 view .LVU684
 340:armwave.c     **** 
 2336              		.loc 1 340 5 view .LVU685
 344:armwave.c     ****     fprintf(fp, "%d %d\n", g_armwave_state.target_height, g_armwave_state.target_width);
 2337              		.loc 1 344 5 view .LVU686
 2338 0a74 0030A0E1 		mov	r3, r0	@, fp
 2339 0a78 C0009FE5 		ldr	r0, .L143+8	@,
 2340              	.LVL163:
 344:armwave.c     ****     fprintf(fp, "%d %d\n", g_armwave_state.target_height, g_armwave_state.target_width);
 2341              		.loc 1 344 5 is_stmt 0 view .LVU687
 2342 0a7c FEFFFFEB 		bl	fwrite		@
 2343              	.LVL164:
 2344              		.loc 1 345 5 is_stmt 1 view .LVU688
 2345 0a80 343096E5 		ldr	r3, [r6, #52]	@, g_armwave_state.target_width
 2346 0a84 382096E5 		ldr	r2, [r6, #56]	@, g_armwave_state.target_height
 2347 0a88 B4109FE5 		ldr	r1, .L143+12	@,
 2348 0a8c 0700A0E1 		mov	r0, r7	@, fp
 2349 0a90 FEFFFFEB 		bl	fprintf		@
 2350              	.LVL165:
 346:armwave.c     ****     fputs("255\n", fp);
 2351              		.loc 1 346 5 view .LVU689
 2352 0a94 0420A0E3 		mov	r2, #4	@,
 2353 0a98 0730A0E1 		mov	r3, r7	@, fp
 2354 0a9c 0110A0E3 		mov	r1, #1	@,
 2355 0aa0 A0009FE5 		ldr	r0, .L143+16	@,
 2356 0aa4 FEFFFFEB 		bl	fwrite		@
 2357              	.LVL166:
 347:armwave.c     **** 
 348:armwave.c     ****     for(yy = 0; yy < g_armwave_state.target_height; yy++) {
 2358              		.loc 1 348 5 view .LVU690
 2359              	@ armwave.c:348:     for(yy = 0; yy < g_armwave_state.target_height; yy++) {
 2360              		.loc 1 348 37 is_stmt 0 view .LVU691
 2361 0aa8 382096E5 		ldr	r2, [r6, #56]	@ prephitmp_57, g_armwave_state.target_height
 2362              	@ armwave.c:348:     for(yy = 0; yy < g_armwave_state.target_height; yy++) {
 2363              		.loc 1 348 5 view .LVU692
 2364 0aac 000052E3 		cmp	r2, #0	@ prephitmp_57,
 2365 0ab0 1800000A 		beq	.L132		@,
 2366 0ab4 343096E5 		ldr	r3, [r6, #52]	@ _12, g_armwave_state.target_width
 2367              	@ armwave.c:353:             fprintf(fp, "%3d %3d %3d\n", data & 0xff, (data >> 8) & 0xff, (data >>
 349:armwave.c     ****         for(xx = 0; xx < g_armwave_state.target_width; xx++) {
 350:armwave.c     ****             data = *(buffer + (xx + (yy * g_armwave_state.target_width)));
 351:armwave.c     ****             //printf("xx,yy=%4d,%4d, word=0x%08x\n", xx, yy, data);
 352:armwave.c     **** 
 353:armwave.c     ****             fprintf(fp, "%3d %3d %3d\n", data & 0xff, (data >> 8) & 0xff, (data >> 16) & 0xff);
 2368              		.loc 1 353 13 view .LVU693
 2369 0ab8 8C909FE5 		ldr	r9, .L143+20	@ tmp156,
 2370              	@ armwave.c:348:     for(yy = 0; yy < g_armwave_state.target_height; yy++) {
 348:armwave.c     ****         for(xx = 0; xx < g_armwave_state.target_width; xx++) {
 2371              		.loc 1 348 12 view .LVU694
 2372 0abc 0050A0E3 		mov	r5, #0	@ yy,
 2373              	.LVL167:
 2374              	.L133:
 2375              	@ armwave.c:349:         for(xx = 0; xx < g_armwave_state.target_width; xx++) {
 349:armwave.c     ****         for(xx = 0; xx < g_armwave_state.target_width; xx++) {
 2376              		.loc 1 349 9 view .LVU695
 2377 0ac0 000053E3 		cmp	r3, #0	@ _12,
 2378              	@ armwave.c:349:         for(xx = 0; xx < g_armwave_state.target_width; xx++) {
 349:armwave.c     ****         for(xx = 0; xx < g_armwave_state.target_width; xx++) {
 2379              		.loc 1 349 16 view .LVU696
 2380 0ac4 0040A013 		movne	r4, #0	@ xx,
 2381              	@ armwave.c:349:         for(xx = 0; xx < g_armwave_state.target_width; xx++) {
 349:armwave.c     ****         for(xx = 0; xx < g_armwave_state.target_width; xx++) {
 2382              		.loc 1 349 9 view .LVU697
 2383 0ac8 1600000A 		beq	.L142		@,
 2384              	.LVL168:
 2385              	.L134:
 350:armwave.c     ****             //printf("xx,yy=%4d,%4d, word=0x%08x\n", xx, yy, data);
 2386              		.loc 1 350 13 is_stmt 1 discriminator 3 view .LVU698
 2387              	@ armwave.c:350:             data = *(buffer + (xx + (yy * g_armwave_state.target_width)));
 350:armwave.c     ****             //printf("xx,yy=%4d,%4d, word=0x%08x\n", xx, yy, data);
 2388              		.loc 1 350 29 is_stmt 0 discriminator 3 view .LVU699
 2389 0acc 954323E0 		mla	r3, r5, r3, r4	@ tmp145, yy, _12, xx
 2390              	@ armwave.c:353:             fprintf(fp, "%3d %3d %3d\n", data & 0xff, (data >> 8) & 0xff, (data >>
 2391              		.loc 1 353 13 discriminator 3 view .LVU700
 2392 0ad0 0910A0E1 		mov	r1, r9	@, tmp156
 2393 0ad4 0700A0E1 		mov	r0, r7	@, fp
 2394              	@ armwave.c:350:             data = *(buffer + (xx + (yy * g_armwave_state.target_width)));
 350:armwave.c     ****             //printf("xx,yy=%4d,%4d, word=0x%08x\n", xx, yy, data);
 2395              		.loc 1 350 18 discriminator 3 view .LVU701
 2396 0ad8 032198E7 		ldr	r2, [r8, r3, lsl #2]	@ data, *_6
 2397              	.LVL169:
 2398              		.loc 1 353 13 is_stmt 1 discriminator 3 view .LVU702
 2399              	@ armwave.c:349:         for(xx = 0; xx < g_armwave_state.target_width; xx++) {
 349:armwave.c     ****         for(xx = 0; xx < g_armwave_state.target_width; xx++) {
 2400              		.loc 1 349 58 is_stmt 0 discriminator 3 view .LVU703
 2401 0adc 014084E2 		add	r4, r4, #1	@ xx, xx,
 2402              	.LVL170:
 2403              	@ armwave.c:353:             fprintf(fp, "%3d %3d %3d\n", data & 0xff, (data >> 8) & 0xff, (data >>
 2404              		.loc 1 353 81 discriminator 3 view .LVU704
 2405 0ae0 22C8A0E1 		lsr	ip, r2, #16	@ tmp150, data,
 2406              	@ armwave.c:353:             fprintf(fp, "%3d %3d %3d\n", data & 0xff, (data >> 8) & 0xff, (data >>
 2407              		.loc 1 353 61 discriminator 3 view .LVU705
 2408 0ae4 2234A0E1 		lsr	r3, r2, #8	@ tmp146, data,
 2409              	@ armwave.c:353:             fprintf(fp, "%3d %3d %3d\n", data & 0xff, (data >> 8) & 0xff, (data >>
 2410              		.loc 1 353 13 discriminator 3 view .LVU706
 2411 0ae8 7CC0EFE6 		uxtb	ip, ip	@ tmp151, tmp150
 2412 0aec 7330EFE6 		uxtb	r3, r3	@, tmp146
 2413 0af0 00C08DE5 		str	ip, [sp]	@ tmp151,
 2414 0af4 7220EFE6 		uxtb	r2, r2	@, data
 2415              	.LVL171:
 2416              		.loc 1 353 13 discriminator 3 view .LVU707
 2417 0af8 FEFFFFEB 		bl	fprintf		@
 2418              	.LVL172:
 2419              	@ armwave.c:349:         for(xx = 0; xx < g_armwave_state.target_width; xx++) {
 349:armwave.c     ****         for(xx = 0; xx < g_armwave_state.target_width; xx++) {
 2420              		.loc 1 349 41 discriminator 3 view .LVU708
 2421 0afc 343096E5 		ldr	r3, [r6, #52]	@ _12, g_armwave_state.target_width
 2422              	@ armwave.c:349:         for(xx = 0; xx < g_armwave_state.target_width; xx++) {
 349:armwave.c     ****         for(xx = 0; xx < g_armwave_state.target_width; xx++) {
 2423              		.loc 1 349 9 discriminator 3 view .LVU709
 2424 0b00 040053E1 		cmp	r3, r4	@ _12, xx
 2425 0b04 F0FFFF8A 		bhi	.L134		@,
 2426 0b08 382096E5 		ldr	r2, [r6, #56]	@ prephitmp_57, g_armwave_state.target_height
 2427              	.LVL173:
 2428              	.L135:
 2429              	@ armwave.c:348:     for(yy = 0; yy < g_armwave_state.target_height; yy++) {
 348:armwave.c     ****         for(xx = 0; xx < g_armwave_state.target_width; xx++) {
 2430              		.loc 1 348 55 discriminator 2 view .LVU710
 2431 0b0c 015085E2 		add	r5, r5, #1	@ yy, yy,
 2432              	.LVL174:
 2433              	@ armwave.c:348:     for(yy = 0; yy < g_armwave_state.target_height; yy++) {
 348:armwave.c     ****         for(xx = 0; xx < g_armwave_state.target_width; xx++) {
 2434              		.loc 1 348 5 discriminator 2 view .LVU711
 2435 0b10 020055E1 		cmp	r5, r2	@ yy, prephitmp_57
 2436 0b14 E9FFFF3A 		bcc	.L133		@,
 2437              	.LVL175:
 2438              	.L132:
 354:armwave.c     ****         }
 355:armwave.c     ****     }
 356:armwave.c     **** 
 357:armwave.c     ****     fclose(fp);
 2439              		.loc 1 357 5 is_stmt 1 view .LVU712
 2440 0b18 0700A0E1 		mov	r0, r7	@, fp
 2441              	@ armwave.c:358: }
 358:armwave.c     **** }
 2442              		.loc 1 358 1 is_stmt 0 view .LVU713
 2443 0b1c 0CD08DE2 		add	sp, sp, #12	@,,
 2444              		.cfi_remember_state
 2445              		.cfi_def_cfa_offset 28
 2446              		@ sp needed	@
 2447 0b20 F043BDE8 		pop	{r4, r5, r6, r7, r8, r9, lr}	@
 2448              		.cfi_restore 14
 2449              		.cfi_restore 9
 2450              		.cfi_restore 8
 2451              		.cfi_restore 7
 2452              		.cfi_restore 6
 2453              		.cfi_restore 5
 2454              		.cfi_restore 4
 2455              		.cfi_def_cfa_offset 0
 2456              	.LVL176:
 2457              	@ armwave.c:357:     fclose(fp);
 357:armwave.c     **** }
 2458              		.loc 1 357 5 view .LVU714
 2459 0b24 FEFFFFEA 		b	fclose		@
 2460              	.LVL177:
 2461              	.L142:
 2462              		.cfi_restore_state
 2463              	@ armwave.c:348:     for(yy = 0; yy < g_armwave_state.target_height; yy++) {
 348:armwave.c     ****         for(xx = 0; xx < g_armwave_state.target_width; xx++) {
 2464              		.loc 1 348 55 view .LVU715
 2465 0b28 015085E2 		add	r5, r5, #1	@ yy, yy,
 2466              	.LVL178:
 2467              	@ armwave.c:348:     for(yy = 0; yy < g_armwave_state.target_height; yy++) {
 348:armwave.c     ****         for(xx = 0; xx < g_armwave_state.target_width; xx++) {
 2468              		.loc 1 348 5 view .LVU716
 2469 0b2c 050052E1 		cmp	r2, r5	@ prephitmp_57, yy
 2470 0b30 F5FFFF8A 		bhi	.L135		@,
 2471 0b34 F7FFFFEA 		b	.L132		@
 2472              	.L144:
 2473              		.align	2
 2474              	.L143:
 2475 0b38 FC000000 		.word	.LC7
 2476 0b3c 00000000 		.word	g_armwave_state
 2477 0b40 00010000 		.word	.LC8
 2478 0b44 04010000 		.word	.LC9
 2479 0b48 0C010000 		.word	.LC10
 2480 0b4c 14010000 		.word	.LC11
 2481              		.cfi_endproc
 2482              	.LFE65:
 2484              		.align	2
 2485              		.global	armwave_test_init
 2486              		.syntax unified
 2487              		.arm
 2488              		.fpu vfp
 2490              	armwave_test_init:
 2491              	.LVL179:
 2492              	.LFB66:
 359:armwave.c     **** 
 360:armwave.c     **** void armwave_test_init(float mod, int render_width, int render_height)
 361:armwave.c     **** {
 2493              		.loc 1 361 1 is_stmt 1 view -0
 2494              		.cfi_startproc
 2495              		@ args = 0, pretend = 0, frame = 0
 2496              		@ frame_needed = 0, uses_anonymous_args = 0
 362:armwave.c     ****     mod_depth = mod;
 2497              		.loc 1 362 5 view .LVU718
 2498              	@ armwave.c:362:     mod_depth = mod;
 2499              		.loc 1 362 15 is_stmt 0 view .LVU719
 2500 0b50 9C309FE5 		ldr	r3, .L149+20	@ tmp128,
 2501              	@ armwave.c:361: {
 361:armwave.c     ****     mod_depth = mod;
 2502              		.loc 1 361 1 view .LVU720
 2503 0b54 F0412DE9 		push	{r4, r5, r6, r7, r8, lr}	@
 2504              		.cfi_def_cfa_offset 24
 2505              		.cfi_offset 4, -24
 2506              		.cfi_offset 5, -20
 2507              		.cfi_offset 6, -16
 2508              		.cfi_offset 7, -12
 2509              		.cfi_offset 8, -8
 2510              		.cfi_offset 14, -4
 2511 0b58 068B2DED 		vpush.64	{d8, d9, d10}	@
 2512              		.cfi_def_cfa_offset 48
 2513              		.cfi_offset 80, -48
 2514              		.cfi_offset 81, -44
 2515              		.cfi_offset 82, -40
 2516              		.cfi_offset 83, -36
 2517              		.cfi_offset 84, -32
 2518              		.cfi_offset 85, -28
 2519 0b5c 94409FE5 		ldr	r4, .L149+24	@ ivtmp.95,
 2520              	.LBB10:
 2521              	.LBB11:
 2522              	@ armwave.c:87:         gamma_table[i] = pow(i / 255.0f, gamma) * 255.0f;
  87:armwave.c     ****     }
 2523              		.loc 1 87 32 view .LVU721
 2524 0b60 22AA9FED 		vldr.32	s20, .L149+16	@ tmp134,
 2525              	@ armwave.c:87:         gamma_table[i] = pow(i / 255.0f, gamma) * 255.0f;
  87:armwave.c     ****     }
 2526              		.loc 1 87 26 view .LVU722
 2527 0b64 1D9B9FED 		vldr.64	d9, .L149	@ tmp143,
 2528              	@ armwave.c:87:         gamma_table[i] = pow(i / 255.0f, gamma) * 255.0f;
  87:armwave.c     ****     }
 2529              		.loc 1 87 49 view .LVU723
 2530 0b68 1E8B9FED 		vldr.64	d8, .L149+8	@ tmp137,
 2531              	.LBE11:
 2532              	.LBE10:
 2533              	@ armwave.c:362:     mod_depth = mod;
 2534              		.loc 1 362 15 view .LVU724
 2535 0b6c 000A83ED 		vstr.32	s0, [r3]	@ mod, mod_depth
 363:armwave.c     **** 
 364:armwave.c     ****     test_create_waveform();
 2536              		.loc 1 364 5 is_stmt 1 view .LVU725
 2537              	@ armwave.c:361: {
 361:armwave.c     ****     mod_depth = mod;
 2538              		.loc 1 361 1 is_stmt 0 view .LVU726
 2539 0b70 0060A0E1 		mov	r6, r0	@ render_width, render_width
 2540 0b74 0170A0E1 		mov	r7, r1	@ render_height, render_height
 2541              	@ armwave.c:364:     test_create_waveform();
 2542              		.loc 1 364 5 view .LVU727
 2543 0b78 FEFFFFEB 		bl	test_create_waveform		@
 2544              	.LVL180:
 365:armwave.c     ****     test_create_gamma();
 2545              		.loc 1 365 5 is_stmt 1 view .LVU728
 2546              	.LBB13:
 2547              	.LBI10:
  81:armwave.c     **** {
 2548              		.loc 1 81 6 view .LVU729
  81:armwave.c     **** {
 2549              		.loc 1 81 6 is_stmt 0 view .LVU730
 2550 0b7c 013084E2 		add	r3, r4, #1	@ _34, ivtmp.95,
 2551 0b80 018C84E2 		add	r8, r4, #256	@ _35, ivtmp.95,
 2552 0b84 015063E2 		rsb	r5, r3, #1	@ tmp142, _34,
 2553              	.LVL181:
 2554              	.L146:
 2555              	.LBB12:
  87:armwave.c     ****     }
 2556              		.loc 1 87 9 is_stmt 1 view .LVU731
 2557              	@ armwave.c:87:         gamma_table[i] = pow(i / 255.0f, gamma) * 255.0f;
  87:armwave.c     ****     }
 2558              		.loc 1 87 32 is_stmt 0 view .LVU732
 2559 0b88 043085E0 		add	r3, r5, r4	@ tmp131, tmp142, ivtmp.95
 2560              	@ armwave.c:87:         gamma_table[i] = pow(i / 255.0f, gamma) * 255.0f;
  87:armwave.c     ****     }
 2561              		.loc 1 87 26 view .LVU733
 2562 0b8c 491BB0EE 		vmov.f64	d1, d9	@, tmp143
 2563              	@ armwave.c:87:         gamma_table[i] = pow(i / 255.0f, gamma) * 255.0f;
  87:armwave.c     ****     }
 2564              		.loc 1 87 32 view .LVU734
 2565 0b90 903A07EE 		vmov	s15, r3	@ int	@ tmp131, tmp131
 2566 0b94 E77AF8EE 		vcvt.f32.s32	s15, s15	@ tmp132, tmp131
 2567 0b98 8A0A87EE 		vdiv.f32	s0, s15, s20	@ tmp133, tmp132, tmp134
 2568              	@ armwave.c:87:         gamma_table[i] = pow(i / 255.0f, gamma) * 255.0f;
  87:armwave.c     ****     }
 2569              		.loc 1 87 26 view .LVU735
 2570 0b9c C00AB7EE 		vcvt.f64.f32	d0, s0	@, tmp133
 2571 0ba0 FEFFFFEB 		bl	pow		@
 2572              	.LVL182:
 2573              	@ armwave.c:87:         gamma_table[i] = pow(i / 255.0f, gamma) * 255.0f;
  87:armwave.c     ****     }
 2574              		.loc 1 87 49 view .LVU736
 2575 0ba4 080B20EE 		vmul.f64	d0, d0, d8	@ tmp136,, tmp137
 2576              	@ armwave.c:87:         gamma_table[i] = pow(i / 255.0f, gamma) * 255.0f;
  87:armwave.c     ****     }
 2577              		.loc 1 87 24 view .LVU737
 2578 0ba8 C07BFCEE 		vcvt.u32.f64	s15, d0	@ tmp138, tmp136
 2579 0bac 903A17EE 		vmov	r3, s15	@ int	@ tmp138, tmp138
 2580 0bb0 0130E4E5 		strb	r3, [r4, #1]!	@ tmp138, MEM[base: _33, offset: 0B]
 2581              	.LVL183:
 2582              	@ armwave.c:86:     for(i = 0; i < 256; i++) {
  86:armwave.c     ****         gamma_table[i] = pow(i / 255.0f, gamma) * 255.0f;
 2583              		.loc 1 86 5 view .LVU738
 2584 0bb4 080054E1 		cmp	r4, r8	@ ivtmp.95, _35
 2585 0bb8 F2FFFF1A 		bne	.L146		@,
 2586              	.LVL184:
  86:armwave.c     ****         gamma_table[i] = pow(i / 255.0f, gamma) * 255.0f;
 2587              		.loc 1 86 5 view .LVU739
 2588              	.LBE12:
 2589              	.LBE13:
 366:armwave.c     **** 
 367:armwave.c     ****     armwave_setup_render(&test_wave_buffer, 0, TEST_WAVE_SIZE, TEST_NWAVES, TEST_WAVE_SIZE, render_
 2590              		.loc 1 367 5 is_stmt 1 view .LVU740
 2591 0bbc 0710A0E1 		mov	r1, r7	@, render_height
 2592 0bc0 0600A0E1 		mov	r0, r6	@, render_width
 2593 0bc4 0DFDFFEB 		bl	armwave_setup_render.constprop.1		@
 2594              	.LVL185:
 368:armwave.c     **** 
 369:armwave.c     ****     printf("armwave version: %s\n", ARMWAVE_VER);
 2595              		.loc 1 369 5 view .LVU741
 2596              	@ armwave.c:370: }
 370:armwave.c     **** }
 2597              		.loc 1 370 1 is_stmt 0 view .LVU742
 2598 0bc8 068BBDEC 		vldm	sp!, {d8-d10}	@,
 2599              		.cfi_restore 84
 2600              		.cfi_restore 85
 2601              		.cfi_restore 82
 2602              		.cfi_restore 83
 2603              		.cfi_restore 80
 2604              		.cfi_restore 81
 2605              		.cfi_def_cfa_offset 24
 2606              	@ armwave.c:369:     printf("armwave version: %s\n", ARMWAVE_VER);
 369:armwave.c     **** }
 2607              		.loc 1 369 5 view .LVU743
 2608 0bcc 28109FE5 		ldr	r1, .L149+28	@,
 2609 0bd0 28009FE5 		ldr	r0, .L149+32	@,
 2610              	@ armwave.c:370: }
 2611              		.loc 1 370 1 view .LVU744
 2612 0bd4 F041BDE8 		pop	{r4, r5, r6, r7, r8, lr}	@
 2613              		.cfi_restore 14
 2614              		.cfi_restore 8
 2615              		.cfi_restore 7
 2616              		.cfi_restore 6
 2617              		.cfi_restore 5
 2618              		.cfi_restore 4
 2619              		.cfi_def_cfa_offset 0
 2620              	.LVL186:
 2621              	@ armwave.c:369:     printf("armwave version: %s\n", ARMWAVE_VER);
 369:armwave.c     **** }
 2622              		.loc 1 369 5 view .LVU745
 2623 0bd8 FEFFFFEA 		b	printf		@
 2624              	.LVL187:
 2625              	.L150:
 2626 0bdc 0000A0E1 		.align	3
 2627              	.L149:
 2628 0be0 000000C0 		.word	-1073741824
 2629 0be4 CCCCEC3F 		.word	1072483532
 2630 0be8 00000000 		.word	0
 2631 0bec 00E06F40 		.word	1081073664
 2632 0bf0 00007F43 		.word	1132396544
 2633 0bf4 00000000 		.word	.LANCHOR1
 2634 0bf8 FFFFFFFF 		.word	gamma_table-1
 2635 0bfc 24010000 		.word	.LC12
 2636 0c00 2C010000 		.word	.LC13
 2637              		.cfi_endproc
 2638              	.LFE66:
 2640              		.global	__aeabi_uidiv
 2641              		.align	2
 2642              		.global	armwave_test_generate
 2643              		.syntax unified
 2644              		.arm
 2645              		.fpu vfp
 2647              	armwave_test_generate:
 2648              	.LFB67:
 371:armwave.c     **** 
 372:armwave.c     **** void armwave_test_generate()
 373:armwave.c     **** {
 2649              		.loc 1 373 1 is_stmt 1 view -0
 2650              		.cfi_startproc
 2651              		@ args = 0, pretend = 0, frame = 8
 2652              		@ frame_needed = 0, uses_anonymous_args = 0
 374:armwave.c     ****     uint32_t yy;
 2653              		.loc 1 374 5 view .LVU747
 375:armwave.c     **** 
 376:armwave.c     ****     memset(g_armwave_state.ch1_buffer, 0, g_armwave_state.size);
 2654              		.loc 1 376 5 view .LVU748
 2655              	@ armwave.c:373: {
 373:armwave.c     ****     uint32_t yy;
 2656              		.loc 1 373 1 is_stmt 0 view .LVU749
 2657 0c04 F04F2DE9 		push	{r4, r5, r6, r7, r8, r9, r10, fp, lr}	@
 2658              		.cfi_def_cfa_offset 36
 2659              		.cfi_offset 4, -36
 2660              		.cfi_offset 5, -32
 2661              		.cfi_offset 6, -28
 2662              		.cfi_offset 7, -24
 2663              		.cfi_offset 8, -20
 2664              		.cfi_offset 9, -16
 2665              		.cfi_offset 10, -12
 2666              		.cfi_offset 11, -8
 2667              		.cfi_offset 14, -4
 2668              	@ armwave.c:376:     memset(g_armwave_state.ch1_buffer, 0, g_armwave_state.size);
 2669              		.loc 1 376 5 view .LVU750
 2670 0c08 0010A0E3 		mov	r1, #0	@,
 2671 0c0c 44419FE5 		ldr	r4, .L169	@ tmp269,
 2672              	@ armwave.c:373: {
 373:armwave.c     ****     uint32_t yy;
 2673              		.loc 1 373 1 view .LVU751
 2674 0c10 0CD04DE2 		sub	sp, sp, #12	@,,
 2675              		.cfi_def_cfa_offset 48
 2676              	@ armwave.c:376:     memset(g_armwave_state.ch1_buffer, 0, g_armwave_state.size);
 2677              		.loc 1 376 5 view .LVU752
 2678 0c14 302094E5 		ldr	r2, [r4, #48]	@, g_armwave_state.size
 2679 0c18 040094E5 		ldr	r0, [r4, #4]	@, g_armwave_state.ch1_buffer
 2680 0c1c FEFFFFEB 		bl	memset		@
 2681              	.LVL188:
 377:armwave.c     **** 
 378:armwave.c     ****     for(yy = 0; yy < (2048 / g_armwave_state.slice_height); yy++) {
 2682              		.loc 1 378 5 is_stmt 1 view .LVU753
 2683              	@ armwave.c:378:     for(yy = 0; yy < (2048 / g_armwave_state.slice_height); yy++) {
 2684              		.loc 1 378 45 is_stmt 0 view .LVU754
 2685 0c20 285094E5 		ldr	r5, [r4, #40]	@ _72, g_armwave_state.slice_height
 2686              	@ armwave.c:378:     for(yy = 0; yy < (2048 / g_armwave_state.slice_height); yy++) {
 2687              		.loc 1 378 5 view .LVU755
 2688 0c24 020B55E3 		cmp	r5, #2048	@ _72,
 2689 0c28 4800008A 		bhi	.L151		@,
 2690 0c2c 246094E5 		ldr	r6, [r4, #36]	@ prephitmp_171, g_armwave_state.waves
 2691              	@ armwave.c:378:     for(yy = 0; yy < (2048 / g_armwave_state.slice_height); yy++) {
 2692              		.loc 1 378 12 view .LVU756
 2693 0c30 00A0A0E3 		mov	r10, #0	@ yy,
 2694              	.LVL189:
 2695              	.L157:
 379:armwave.c     ****         render_nonaa_to_buffer_1ch_slice(yy * g_armwave_state.slice_height, g_armwave_state.slice_r
 2696              		.loc 1 379 9 is_stmt 1 discriminator 3 view .LVU757
 2697 0c34 950A03E0 		mul	r3, r5, r10	@ _3, _72, yy
 2698              	.LBB16:
 2699              	.LBB17:
 2700              	@ armwave.c:106:     write_buffer_base = g_armwave_state.ch1_buffer + (slice_y * g_armwave_state.ta
 106:armwave.c     **** 
 2701              		.loc 1 106 63 is_stmt 0 discriminator 3 view .LVU758
 2702 0c38 380094E5 		ldr	r0, [r4, #56]	@ g_armwave_state.target_height, g_armwave_state.target_height
 2703              	@ armwave.c:109:     for(w = 0; w < g_armwave_state.waves; w++) {
 109:armwave.c     ****         wave_base = g_armwave_state.wave_buffer + slice_y + (w * g_armwave_state.wave_stride);
 2704              		.loc 1 109 5 discriminator 3 view .LVU759
 2705 0c3c 000056E3 		cmp	r6, #0	@ prephitmp_171,
 2706              	.LBE17:
 2707              	.LBE16:
 2708              	@ armwave.c:379:         render_nonaa_to_buffer_1ch_slice(yy * g_armwave_state.slice_height, g_armw
 2709              		.loc 1 379 9 discriminator 3 view .LVU760
 2710 0c40 2C9094E5 		ldr	r9, [r4, #44]	@ _4, g_armwave_state.slice_record_height
 2711              	.LVL190:
 2712              	.LBB19:
 2713              	.LBI16:
  98:armwave.c     **** {
 2714              		.loc 1 98 6 is_stmt 1 discriminator 3 view .LVU761
 2715              	.LBB18:
 100:armwave.c     ****     uint32_t value, word;
 2716              		.loc 1 100 5 discriminator 3 view .LVU762
 101:armwave.c     ****     uint8_t *wave_base;
 2717              		.loc 1 101 5 discriminator 3 view .LVU763
 102:armwave.c     ****     uint8_t *write_buffer_base;
 2718              		.loc 1 102 5 discriminator 3 view .LVU764
 103:armwave.c     ****     uint8_t *write_buffer;
 2719              		.loc 1 103 5 discriminator 3 view .LVU765
 104:armwave.c     ****     
 2720              		.loc 1 104 5 discriminator 3 view .LVU766
 106:armwave.c     **** 
 2721              		.loc 1 106 5 discriminator 3 view .LVU767
 2722              	@ armwave.c:106:     write_buffer_base = g_armwave_state.ch1_buffer + (slice_y * g_armwave_state.ta
 106:armwave.c     **** 
 2723              		.loc 1 106 63 is_stmt 0 discriminator 3 view .LVU768
 2724 0c44 900300E0 		mul	r0, r0, r3	@ _15, g_armwave_state.target_height, _3
 2725              	@ armwave.c:106:     write_buffer_base = g_armwave_state.ch1_buffer + (slice_y * g_armwave_state.ta
 106:armwave.c     **** 
 2726              		.loc 1 106 40 discriminator 3 view .LVU769
 2727 0c48 042094E5 		ldr	r2, [r4, #4]	@ _13, g_armwave_state.ch1_buffer
 2728              	.LVL191:
 109:armwave.c     ****         wave_base = g_armwave_state.wave_buffer + slice_y + (w * g_armwave_state.wave_stride);
 2729              		.loc 1 109 5 is_stmt 1 discriminator 3 view .LVU770
 109:armwave.c     ****         wave_base = g_armwave_state.wave_buffer + slice_y + (w * g_armwave_state.wave_stride);
 2730              		.loc 1 109 5 is_stmt 0 discriminator 3 view .LVU771
 2731 0c4c 3900000A 		beq	.L153		@,
 2732              	@ armwave.c:109:     for(w = 0; w < g_armwave_state.waves; w++) {
 109:armwave.c     ****         wave_base = g_armwave_state.wave_buffer + slice_y + (w * g_armwave_state.wave_stride);
 2733              		.loc 1 109 11 view .LVU772
 2734 0c50 0080A0E3 		mov	r8, #0	@ w,
 2735 0c54 043043E2 		sub	r3, r3, #4	@ _77, _3,
 2736              	.LVL192:
 109:armwave.c     ****         wave_base = g_armwave_state.wave_buffer + slice_y + (w * g_armwave_state.wave_stride);
 2737              		.loc 1 109 11 view .LVU773
 2738 0c58 04308DE5 		str	r3, [sp, #4]	@ _77, %sfp
 2739              	.LVL193:
 2740              	.L156:
 110:armwave.c     **** 
 2741              		.loc 1 110 9 is_stmt 1 view .LVU774
 2742              	@ armwave.c:110:         wave_base = g_armwave_state.wave_buffer + slice_y + (w * g_armwave_state.w
 110:armwave.c     **** 
 2743              		.loc 1 110 64 is_stmt 0 view .LVU775
 2744 0c5c 203094E5 		ldr	r3, [r4, #32]	@ g_armwave_state.wave_stride, g_armwave_state.wave_stride
 2745              	@ armwave.c:114:         for(yy = 0; yy < height; yy += 4) {
 114:armwave.c     ****             word = *(uint32_t*)(wave_base + yy);
 2746              		.loc 1 114 9 view .LVU776
 2747 0c60 000059E3 		cmp	r9, #0	@ _4,
 2748              	@ armwave.c:110:         wave_base = g_armwave_state.wave_buffer + slice_y + (w * g_armwave_state.w
 110:armwave.c     **** 
 2749              		.loc 1 110 36 view .LVU777
 2750 0c64 14E094E5 		ldr	lr, [r4, #20]	@ _16, g_armwave_state.wave_buffer
 2751              	@ armwave.c:110:         wave_base = g_armwave_state.wave_buffer + slice_y + (w * g_armwave_state.w
 110:armwave.c     **** 
 2752              		.loc 1 110 64 view .LVU778
 2753 0c68 930803E0 		mul	r3, r3, r8	@ _19, g_armwave_state.wave_stride, w
 2754              	.LVL194:
 114:armwave.c     ****             word = *(uint32_t*)(wave_base + yy);
 2755              		.loc 1 114 9 is_stmt 1 view .LVU779
 114:armwave.c     ****             word = *(uint32_t*)(wave_base + yy);
 2756              		.loc 1 114 9 is_stmt 0 view .LVU780
 2757 0c6c 2D00000A 		beq	.L154		@,
 2758 0c70 04109DE5 		ldr	r1, [sp, #4]	@ _77, %sfp
 2759 0c74 013083E0 		add	r3, r3, r1	@ tmp205, _19, _77
 2760              	.LVL195:
 114:armwave.c     ****             word = *(uint32_t*)(wave_base + yy);
 2761              		.loc 1 114 9 view .LVU781
 2762 0c78 03E08EE0 		add	lr, lr, r3	@ ivtmp.101, _16, tmp205
 2763              	.LVL196:
 2764              	@ armwave.c:114:         for(yy = 0; yy < height; yy += 4) {
 114:armwave.c     ****             word = *(uint32_t*)(wave_base + yy);
 2765              		.loc 1 114 16 view .LVU782
 2766 0c7c 0010A0E3 		mov	r1, #0	@ yy,
 2767              	.LVL197:
 2768              	.L155:
 115:armwave.c     **** 
 2769              		.loc 1 115 13 is_stmt 1 view .LVU783
 2770              	@ armwave.c:115:             word = *(uint32_t*)(wave_base + yy);
 115:armwave.c     **** 
 2771              		.loc 1 115 18 is_stmt 0 view .LVU784
 2772 0c80 0430BEE5 		ldr	r3, [lr, #4]!	@ word, MEM[base: _183, offset: 0B]
 2773              	.LVL198:
 117:armwave.c     ****                 scale_value = (word & 0xff) * g_armwave_state.vscale;
 2774              		.loc 1 117 13 is_stmt 1 view .LVU785
 118:armwave.c     ****                 write_buffer = write_buffer_base + ((yy + ys) * g_armwave_state.target_height);
 2775              		.loc 1 118 17 view .LVU786
 119:armwave.c     ****                 *(write_buffer + scale_value) += 1;
 2776              		.loc 1 119 17 view .LVU787
 120:armwave.c     ****                 word >>= 8;
 2777              		.loc 1 120 17 view .LVU788
 2778              	@ armwave.c:118:                 scale_value = (word & 0xff) * g_armwave_state.vscale;
 118:armwave.c     ****                 write_buffer = write_buffer_base + ((yy + ys) * g_armwave_state.target_height);
 2779              		.loc 1 118 45 is_stmt 0 view .LVU789
 2780 0c84 1C7094E5 		ldr	r7, [r4, #28]	@ g_armwave_state.vscale, g_armwave_state.vscale
 2781              	@ armwave.c:119:                 write_buffer = write_buffer_base + ((yy + ys) * g_armwave_state.ta
 119:armwave.c     ****                 *(write_buffer + scale_value) += 1;
 2782              		.loc 1 119 63 view .LVU790
 2783 0c88 386094E5 		ldr	r6, [r4, #56]	@ g_armwave_state.target_height, g_armwave_state.target_height
 2784              	@ armwave.c:118:                 scale_value = (word & 0xff) * g_armwave_state.vscale;
 118:armwave.c     ****                 write_buffer = write_buffer_base + ((yy + ys) * g_armwave_state.target_height);
 2785              		.loc 1 118 37 view .LVU791
 2786 0c8c 73C0EFE6 		uxtb	ip, r3	@ word, word
 2787              	@ armwave.c:121:                 word >>= 8;
 121:armwave.c     ****             }
 2788              		.loc 1 121 22 view .LVU792
 2789 0c90 2354A0E1 		lsr	r5, r3, #8	@ word, word,
 2790              	@ armwave.c:120:                 *(write_buffer + scale_value) += 1;
 120:armwave.c     ****                 word >>= 8;
 2791              		.loc 1 120 47 view .LVU793
 2792 0c94 970C2CE0 		mla	ip, r7, ip, r0	@ tmp210, g_armwave_state.vscale, word, _15
 2793              	@ armwave.c:118:                 scale_value = (word & 0xff) * g_armwave_state.vscale;
 118:armwave.c     ****                 write_buffer = write_buffer_base + ((yy + ys) * g_armwave_state.target_height);
 2794              		.loc 1 118 37 view .LVU794
 2795 0c98 7550EFE6 		uxtb	r5, r5	@ word, word
 2796              	@ armwave.c:120:                 *(write_buffer + scale_value) += 1;
 120:armwave.c     ****                 word >>= 8;
 2797              		.loc 1 120 47 view .LVU795
 2798 0c9c 96C126E0 		mla	r6, r6, r1, ip	@ tmp214, g_armwave_state.target_height, yy, tmp210
 2799              	@ armwave.c:119:                 write_buffer = write_buffer_base + ((yy + ys) * g_armwave_state.ta
 119:armwave.c     ****                 *(write_buffer + scale_value) += 1;
 2800              		.loc 1 119 63 view .LVU796
 2801 0ca0 01B081E2 		add	fp, r1, #1	@ tmp226, yy,
 2802              	@ armwave.c:121:                 word >>= 8;
 121:armwave.c     ****             }
 2803              		.loc 1 121 22 view .LVU797
 2804 0ca4 23C8A0E1 		lsr	ip, r3, #16	@ word, word,
 2805              	@ armwave.c:120:                 *(write_buffer + scale_value) += 1;
 120:armwave.c     ****                 word >>= 8;
 2806              		.loc 1 120 47 view .LVU798
 2807 0ca8 0670D2E7 		ldrb	r7, [r2, r6]	@ zero_extendqisi2	@ *_63, *_63
 2808              	@ armwave.c:118:                 scale_value = (word & 0xff) * g_armwave_state.vscale;
 118:armwave.c     ****                 write_buffer = write_buffer_base + ((yy + ys) * g_armwave_state.target_height);
 2809              		.loc 1 118 37 view .LVU799
 2810 0cac 7CC0EFE6 		uxtb	ip, ip	@ word, word
 2811              	@ armwave.c:121:                 word >>= 8;
 121:armwave.c     ****             }
 2812              		.loc 1 121 22 view .LVU800
 2813 0cb0 233CA0E1 		lsr	r3, r3, #24	@ word, word,
 2814              	.LVL199:
 2815              	@ armwave.c:120:                 *(write_buffer + scale_value) += 1;
 120:armwave.c     ****                 word >>= 8;
 2816              		.loc 1 120 47 view .LVU801
 2817 0cb4 017087E2 		add	r7, r7, #1	@ tmp217, *_63,
 2818 0cb8 0670C2E7 		strb	r7, [r2, r6]	@ tmp217, *_63
 2819              	.LVL200:
 121:armwave.c     ****             }
 2820              		.loc 1 121 17 is_stmt 1 view .LVU802
 118:armwave.c     ****                 write_buffer = write_buffer_base + ((yy + ys) * g_armwave_state.target_height);
 2821              		.loc 1 118 17 view .LVU803
 119:armwave.c     ****                 *(write_buffer + scale_value) += 1;
 2822              		.loc 1 119 17 view .LVU804
 120:armwave.c     ****                 word >>= 8;
 2823              		.loc 1 120 17 view .LVU805
 2824              	@ armwave.c:118:                 scale_value = (word & 0xff) * g_armwave_state.vscale;
 118:armwave.c     ****                 write_buffer = write_buffer_base + ((yy + ys) * g_armwave_state.target_height);
 2825              		.loc 1 118 45 is_stmt 0 view .LVU806
 2826 0cbc 1C6094E5 		ldr	r6, [r4, #28]	@ g_armwave_state.vscale, g_armwave_state.vscale
 2827              	@ armwave.c:119:                 write_buffer = write_buffer_base + ((yy + ys) * g_armwave_state.ta
 119:armwave.c     ****                 *(write_buffer + scale_value) += 1;
 2828              		.loc 1 119 63 view .LVU807
 2829 0cc0 027081E2 		add	r7, r1, #2	@ tmp241, yy,
 2830              	@ armwave.c:120:                 *(write_buffer + scale_value) += 1;
 120:armwave.c     ****                 word >>= 8;
 2831              		.loc 1 120 47 view .LVU808
 2832 0cc4 960525E0 		mla	r5, r6, r5, r0	@ tmp224, g_armwave_state.vscale, word, _15
 2833              	@ armwave.c:119:                 write_buffer = write_buffer_base + ((yy + ys) * g_armwave_state.ta
 119:armwave.c     ****                 *(write_buffer + scale_value) += 1;
 2834              		.loc 1 119 63 view .LVU809
 2835 0cc8 386094E5 		ldr	r6, [r4, #56]	@ g_armwave_state.target_height, g_armwave_state.target_height
 2836              	@ armwave.c:120:                 *(write_buffer + scale_value) += 1;
 120:armwave.c     ****                 word >>= 8;
 2837              		.loc 1 120 47 view .LVU810
 2838 0ccc 965B25E0 		mla	r5, r6, fp, r5	@ tmp229, g_armwave_state.target_height, tmp226, tmp224
 2839              	@ armwave.c:119:                 write_buffer = write_buffer_base + ((yy + ys) * g_armwave_state.ta
 119:armwave.c     ****                 *(write_buffer + scale_value) += 1;
 2840              		.loc 1 119 63 view .LVU811
 2841 0cd0 036081E2 		add	r6, r1, #3	@ tmp255, yy,
 2842              	@ armwave.c:114:         for(yy = 0; yy < height; yy += 4) {
 114:armwave.c     ****             word = *(uint32_t*)(wave_base + yy);
 2843              		.loc 1 114 37 view .LVU812
 2844 0cd4 041081E2 		add	r1, r1, #4	@ yy, yy,
 2845              	.LVL201:
 2846              	@ armwave.c:120:                 *(write_buffer + scale_value) += 1;
 120:armwave.c     ****                 word >>= 8;
 2847              		.loc 1 120 47 view .LVU813
 2848 0cd8 05B0D2E7 		ldrb	fp, [r2, r5]	@ zero_extendqisi2	@ *_83, *_83
 2849              	@ armwave.c:114:         for(yy = 0; yy < height; yy += 4) {
 114:armwave.c     ****             word = *(uint32_t*)(wave_base + yy);
 2850              		.loc 1 114 9 view .LVU814
 2851 0cdc 010059E1 		cmp	r9, r1	@ _4, yy
 2852              	@ armwave.c:120:                 *(write_buffer + scale_value) += 1;
 120:armwave.c     ****                 word >>= 8;
 2853              		.loc 1 120 47 view .LVU815
 2854 0ce0 01B08BE2 		add	fp, fp, #1	@ tmp232, *_83,
 2855 0ce4 05B0C2E7 		strb	fp, [r2, r5]	@ tmp232, *_83
 2856              	.LVL202:
 121:armwave.c     ****             }
 2857              		.loc 1 121 17 is_stmt 1 view .LVU816
 118:armwave.c     ****                 write_buffer = write_buffer_base + ((yy + ys) * g_armwave_state.target_height);
 2858              		.loc 1 118 17 view .LVU817
 119:armwave.c     ****                 *(write_buffer + scale_value) += 1;
 2859              		.loc 1 119 17 view .LVU818
 120:armwave.c     ****                 word >>= 8;
 2860              		.loc 1 120 17 view .LVU819
 2861              	@ armwave.c:118:                 scale_value = (word & 0xff) * g_armwave_state.vscale;
 118:armwave.c     ****                 write_buffer = write_buffer_base + ((yy + ys) * g_armwave_state.target_height);
 2862              		.loc 1 118 45 is_stmt 0 view .LVU820
 2863 0ce8 1CB094E5 		ldr	fp, [r4, #28]	@ g_armwave_state.vscale, g_armwave_state.vscale
 2864              	@ armwave.c:119:                 write_buffer = write_buffer_base + ((yy + ys) * g_armwave_state.ta
 119:armwave.c     ****                 *(write_buffer + scale_value) += 1;
 2865              		.loc 1 119 63 view .LVU821
 2866 0cec 385094E5 		ldr	r5, [r4, #56]	@ g_armwave_state.target_height, g_armwave_state.target_height
 2867              	@ armwave.c:120:                 *(write_buffer + scale_value) += 1;
 120:armwave.c     ****                 word >>= 8;
 2868              		.loc 1 120 47 view .LVU822
 2869 0cf0 9B0C2CE0 		mla	ip, fp, ip, r0	@ tmp239, g_armwave_state.vscale, word, _15
 2870 0cf4 95C72CE0 		mla	ip, r5, r7, ip	@ tmp244, g_armwave_state.target_height, tmp241, tmp239
 2871 0cf8 0C50D2E7 		ldrb	r5, [r2, ip]	@ zero_extendqisi2	@ *_103, *_103
 2872 0cfc 015085E2 		add	r5, r5, #1	@ tmp247, *_103,
 2873 0d00 0C50C2E7 		strb	r5, [r2, ip]	@ tmp247, *_103
 121:armwave.c     ****             }
 2874              		.loc 1 121 17 is_stmt 1 view .LVU823
 2875              	.LVL203:
 118:armwave.c     ****                 write_buffer = write_buffer_base + ((yy + ys) * g_armwave_state.target_height);
 2876              		.loc 1 118 17 view .LVU824
 119:armwave.c     ****                 *(write_buffer + scale_value) += 1;
 2877              		.loc 1 119 17 view .LVU825
 120:armwave.c     ****                 word >>= 8;
 2878              		.loc 1 120 17 view .LVU826
 2879              	@ armwave.c:118:                 scale_value = (word & 0xff) * g_armwave_state.vscale;
 118:armwave.c     ****                 write_buffer = write_buffer_base + ((yy + ys) * g_armwave_state.target_height);
 2880              		.loc 1 118 45 is_stmt 0 view .LVU827
 2881 0d04 1C5094E5 		ldr	r5, [r4, #28]	@ g_armwave_state.vscale, g_armwave_state.vscale
 2882              	@ armwave.c:119:                 write_buffer = write_buffer_base + ((yy + ys) * g_armwave_state.ta
 119:armwave.c     ****                 *(write_buffer + scale_value) += 1;
 2883              		.loc 1 119 63 view .LVU828
 2884 0d08 38C094E5 		ldr	ip, [r4, #56]	@ g_armwave_state.target_height, g_armwave_state.target_height
 2885              	@ armwave.c:120:                 *(write_buffer + scale_value) += 1;
 120:armwave.c     ****                 word >>= 8;
 2886              		.loc 1 120 47 view .LVU829
 2887 0d0c 950323E0 		mla	r3, r5, r3, r0	@ tmp253, g_armwave_state.vscale, word, _15
 2888 0d10 9C3623E0 		mla	r3, ip, r6, r3	@ tmp258, g_armwave_state.target_height, tmp255, tmp253
 2889 0d14 03C0D2E7 		ldrb	ip, [r2, r3]	@ zero_extendqisi2	@ *_123, *_123
 2890 0d18 01C08CE2 		add	ip, ip, #1	@ tmp261, *_123,
 2891 0d1c 03C0C2E7 		strb	ip, [r2, r3]	@ tmp261, *_123
 121:armwave.c     ****             }
 2892              		.loc 1 121 17 is_stmt 1 view .LVU830
 2893              	.LVL204:
 2894              	@ armwave.c:114:         for(yy = 0; yy < height; yy += 4) {
 114:armwave.c     ****             word = *(uint32_t*)(wave_base + yy);
 2895              		.loc 1 114 9 is_stmt 0 view .LVU831
 2896 0d20 D6FFFF8A 		bhi	.L155		@,
 2897 0d24 246094E5 		ldr	r6, [r4, #36]	@ prephitmp_171, g_armwave_state.waves
 2898              	.LVL205:
 2899              	.L154:
 2900              	@ armwave.c:109:     for(w = 0; w < g_armwave_state.waves; w++) {
 109:armwave.c     ****         wave_base = g_armwave_state.wave_buffer + slice_y + (w * g_armwave_state.wave_stride);
 2901              		.loc 1 109 44 view .LVU832
 2902 0d28 018088E2 		add	r8, r8, #1	@ w, w,
 2903              	.LVL206:
 2904              	@ armwave.c:109:     for(w = 0; w < g_armwave_state.waves; w++) {
 109:armwave.c     ****         wave_base = g_armwave_state.wave_buffer + slice_y + (w * g_armwave_state.wave_stride);
 2905              		.loc 1 109 5 view .LVU833
 2906 0d2c 060058E1 		cmp	r8, r6	@ w, prephitmp_171
 2907 0d30 C9FFFF3A 		bcc	.L156		@,
 2908 0d34 285094E5 		ldr	r5, [r4, #40]	@ _72, g_armwave_state.slice_height
 2909              	.LVL207:
 2910              	.L153:
 109:armwave.c     ****         wave_base = g_armwave_state.wave_buffer + slice_y + (w * g_armwave_state.wave_stride);
 2911              		.loc 1 109 5 view .LVU834
 2912              	.LBE18:
 2913              	.LBE19:
 2914              	@ armwave.c:378:     for(yy = 0; yy < (2048 / g_armwave_state.slice_height); yy++) {
 378:armwave.c     ****         render_nonaa_to_buffer_1ch_slice(yy * g_armwave_state.slice_height, g_armwave_state.slice_r
 2915              		.loc 1 378 28 discriminator 3 view .LVU835
 2916 0d38 0510A0E1 		mov	r1, r5	@, _72
 2917 0d3c 020BA0E3 		mov	r0, #2048	@,
 2918              	.LVL208:
 378:armwave.c     ****         render_nonaa_to_buffer_1ch_slice(yy * g_armwave_state.slice_height, g_armwave_state.slice_r
 2919              		.loc 1 378 28 discriminator 3 view .LVU836
 2920 0d40 FEFFFFEB 		bl	__aeabi_uidiv		@
 2921              	.LVL209:
 2922              	@ armwave.c:378:     for(yy = 0; yy < (2048 / g_armwave_state.slice_height); yy++) {
 378:armwave.c     ****         render_nonaa_to_buffer_1ch_slice(yy * g_armwave_state.slice_height, g_armwave_state.slice_r
 2923              		.loc 1 378 63 discriminator 3 view .LVU837
 2924 0d44 01A08AE2 		add	r10, r10, #1	@ yy, yy,
 2925              	.LVL210:
 2926              	@ armwave.c:378:     for(yy = 0; yy < (2048 / g_armwave_state.slice_height); yy++) {
 378:armwave.c     ****         render_nonaa_to_buffer_1ch_slice(yy * g_armwave_state.slice_height, g_armwave_state.slice_r
 2927              		.loc 1 378 5 discriminator 3 view .LVU838
 2928 0d48 0A0050E1 		cmp	r0, r10	@, yy
 2929 0d4c B8FFFF8A 		bhi	.L157		@,
 2930              	.LVL211:
 2931              	.L151:
 2932              	@ armwave.c:381: }
 380:armwave.c     ****     }
 381:armwave.c     **** }
 2933              		.loc 1 381 1 view .LVU839
 2934 0d50 0CD08DE2 		add	sp, sp, #12	@,,
 2935              		.cfi_def_cfa_offset 36
 2936              		@ sp needed	@
 2937 0d54 F08FBDE8 		pop	{r4, r5, r6, r7, r8, r9, r10, fp, pc}	@
 2938              	.L170:
 2939              		.align	2
 2940              	.L169:
 2941 0d58 00000000 		.word	g_armwave_state
 2942              		.cfi_endproc
 2943              	.LFE67:
 2945              		.align	2
 2946              		.global	armwave_test_get_buffer
 2947              		.syntax unified
 2948              		.arm
 2949              		.fpu vfp
 2951              	armwave_test_get_buffer:
 2952              	.LFB68:
 382:armwave.c     **** 
 383:armwave.c     **** PyObject *armwave_test_get_buffer()
 384:armwave.c     **** {
 2953              		.loc 1 384 1 is_stmt 1 view -0
 2954              		.cfi_startproc
 2955              		@ args = 0, pretend = 0, frame = 0
 2956              		@ frame_needed = 0, uses_anonymous_args = 0
 385:armwave.c     ****     PyObject *mv;
 2957              		.loc 1 385 5 view .LVU841
 386:armwave.c     ****     Py_buffer *buf = malloc(sizeof(Py_buffer));
 2958              		.loc 1 386 5 view .LVU842
 2959              	@ armwave.c:384: {
 384:armwave.c     ****     PyObject *mv;
 2960              		.loc 1 384 1 is_stmt 0 view .LVU843
 2961 0d5c 30402DE9 		push	{r4, r5, lr}	@
 2962              		.cfi_def_cfa_offset 12
 2963              		.cfi_offset 4, -12
 2964              		.cfi_offset 5, -8
 2965              		.cfi_offset 14, -4
 2966              	@ armwave.c:386:     Py_buffer *buf = malloc(sizeof(Py_buffer));
 2967              		.loc 1 386 22 view .LVU844
 2968 0d60 2C00A0E3 		mov	r0, #44	@,
 2969              	@ armwave.c:384: {
 384:armwave.c     ****     PyObject *mv;
 2970              		.loc 1 384 1 view .LVU845
 2971 0d64 0CD04DE2 		sub	sp, sp, #12	@,,
 2972              		.cfi_def_cfa_offset 24
 2973              	@ armwave.c:386:     Py_buffer *buf = malloc(sizeof(Py_buffer));
 2974              		.loc 1 386 22 view .LVU846
 2975 0d68 FEFFFFEB 		bl	malloc		@
 2976              	.LVL212:
 2977              	@ armwave.c:388:  	armwave_fill_pixbuf_scaled(g_armwave_state.out_pixbuf);
 387:armwave.c     ****     
 388:armwave.c     ****  	armwave_fill_pixbuf_scaled(g_armwave_state.out_pixbuf);
 2978              		.loc 1 388 3 view .LVU847
 2979 0d6c 3C409FE5 		ldr	r4, .L173	@ tmp118,
 2980              	@ armwave.c:386:     Py_buffer *buf = malloc(sizeof(Py_buffer));
 386:armwave.c     ****     
 2981              		.loc 1 386 22 view .LVU848
 2982 0d70 0050A0E1 		mov	r5, r0	@ tmp117,
 2983              	.LVL213:
 2984              		.loc 1 388 3 is_stmt 1 view .LVU849
 2985 0d74 440094E5 		ldr	r0, [r4, #68]	@, g_armwave_state.out_pixbuf
 2986              	.LVL214:
 2987              		.loc 1 388 3 is_stmt 0 view .LVU850
 2988 0d78 FEFFFFEB 		bl	armwave_fill_pixbuf_scaled		@
 2989              	.LVL215:
 389:armwave.c     **** 
 390:armwave.c     ****     /*
 391:armwave.c     ****     if(g_armwave_state.target_height == 256) {
 392:armwave.c     ****         armwave_fill_pixbuf_256(g_armwave_state.out_pixbuf);
 393:armwave.c     ****     } else {
 394:armwave.c     ****         armwave_fill_pixbuf_scaled(g_armwave_state.out_pixbuf);
 395:armwave.c     ****     }
 396:armwave.c     ****     */
 397:armwave.c     **** 
 398:armwave.c     ****     PyBuffer_FillInfo(buf, NULL, g_armwave_state.out_pixbuf, sizeof(uint32_t) * g_armwave_state.siz
 2990              		.loc 1 398 5 is_stmt 1 view .LVU851
 2991              	@ armwave.c:398:     PyBuffer_FillInfo(buf, NULL, g_armwave_state.out_pixbuf, sizeof(uint32_t) * g_
 2992              		.loc 1 398 79 is_stmt 0 view .LVU852
 2993 0d7c 303094E5 		ldr	r3, [r4, #48]	@ g_armwave_state.size, g_armwave_state.size
 2994              	@ armwave.c:398:     PyBuffer_FillInfo(buf, NULL, g_armwave_state.out_pixbuf, sizeof(uint32_t) * g_
 2995              		.loc 1 398 5 view .LVU853
 2996 0d80 08C0A0E3 		mov	ip, #8	@ tmp125,
 2997 0d84 0110A0E3 		mov	r1, #1	@ tmp126,
 2998 0d88 0331A0E1 		lsl	r3, r3, #2	@, g_armwave_state.size,
 2999 0d8c 02108DE8 		stm	sp, {r1, ip}	@,,
 3000 0d90 442094E5 		ldr	r2, [r4, #68]	@, g_armwave_state.out_pixbuf
 3001 0d94 0500A0E1 		mov	r0, r5	@, tmp117
 3002 0d98 0010A0E3 		mov	r1, #0	@,
 3003 0d9c FEFFFFEB 		bl	PyBuffer_FillInfo		@
 3004              	.LVL216:
 399:armwave.c     **** 
 400:armwave.c     ****     mv = PyMemoryView_FromBuffer(buf);
 3005              		.loc 1 400 5 is_stmt 1 view .LVU854
 3006              	@ armwave.c:400:     mv = PyMemoryView_FromBuffer(buf);
 3007              		.loc 1 400 10 is_stmt 0 view .LVU855
 3008 0da0 0500A0E1 		mov	r0, r5	@, tmp117
 3009              	@ armwave.c:401: }
 401:armwave.c     **** }
 3010              		.loc 1 401 1 view .LVU856
 3011 0da4 0CD08DE2 		add	sp, sp, #12	@,,
 3012              		.cfi_def_cfa_offset 12
 3013              		@ sp needed	@
 3014 0da8 3040BDE8 		pop	{r4, r5, lr}	@
 3015              		.cfi_restore 14
 3016              		.cfi_restore 5
 3017              		.cfi_restore 4
 3018              		.cfi_def_cfa_offset 0
 3019              	.LVL217:
 3020              	@ armwave.c:400:     mv = PyMemoryView_FromBuffer(buf);
 400:armwave.c     **** }
 3021              		.loc 1 400 10 view .LVU857
 3022 0dac FEFFFFEA 		b	PyMemoryView_FromBuffer		@
 3023              	.LVL218:
 3024              	.L174:
 400:armwave.c     **** }
 3025              		.loc 1 400 10 view .LVU858
 3026              		.align	2
 3027              	.L173:
 3028 0db0 00000000 		.word	g_armwave_state
 3029              		.cfi_endproc
 3030              	.LFE68:
 3032              		.align	2
 3033              		.global	armwave_test_dump_buffer_to_ppm
 3034              		.syntax unified
 3035              		.arm
 3036              		.fpu vfp
 3038              	armwave_test_dump_buffer_to_ppm:
 3039              	.LVL219:
 3040              	.LFB69:
 402:armwave.c     **** 
 403:armwave.c     **** void armwave_test_dump_buffer_to_ppm(char *fn)
 404:armwave.c     **** {
 3041              		.loc 1 404 1 is_stmt 1 view -0
 3042              		.cfi_startproc
 3043              		@ args = 0, pretend = 0, frame = 0
 3044              		@ frame_needed = 0, uses_anonymous_args = 0
 3045              		@ link register save eliminated.
 405:armwave.c     ****     armwave_dump_ppm_debug(g_armwave_state.out_pixbuf, fn);
 3046              		.loc 1 405 5 view .LVU860
 3047 0db4 08309FE5 		ldr	r3, .L176	@ tmp112,
 3048 0db8 0010A0E1 		mov	r1, r0	@, fn
 3049 0dbc 440093E5 		ldr	r0, [r3, #68]	@, g_armwave_state.out_pixbuf
 3050              	.LVL220:
 3051              		.loc 1 405 5 is_stmt 0 view .LVU861
 3052 0dc0 FEFFFFEA 		b	armwave_dump_ppm_debug		@
 3053              	.LVL221:
 3054              	.L177:
 3055              		.loc 1 405 5 view .LVU862
 3056              		.align	2
 3057              	.L176:
 3058 0dc4 00000000 		.word	g_armwave_state
 3059              		.cfi_endproc
 3060              	.LFE69:
 3062              		.align	2
 3063              		.global	armwave_cleanup
 3064              		.syntax unified
 3065              		.arm
 3066              		.fpu vfp
 3068              	armwave_cleanup:
 3069              	.LFB70:
 406:armwave.c     **** }
 407:armwave.c     **** 
 408:armwave.c     **** void armwave_cleanup()
 409:armwave.c     **** {
 3070              		.loc 1 409 1 is_stmt 1 view -0
 3071              		.cfi_startproc
 3072              		@ args = 0, pretend = 0, frame = 0
 3073              		@ frame_needed = 0, uses_anonymous_args = 0
 410:armwave.c     ****     free(g_armwave_state.out_pixbuf);
 3074              		.loc 1 410 5 view .LVU864
 3075              	@ armwave.c:409: {
 409:armwave.c     ****     free(g_armwave_state.out_pixbuf);
 3076              		.loc 1 409 1 is_stmt 0 view .LVU865
 3077 0dc8 10402DE9 		push	{r4, lr}	@
 3078              		.cfi_def_cfa_offset 8
 3079              		.cfi_offset 4, -8
 3080              		.cfi_offset 14, -4
 3081              	@ armwave.c:410:     free(g_armwave_state.out_pixbuf);
 3082              		.loc 1 410 25 view .LVU866
 3083 0dcc 28409FE5 		ldr	r4, .L180	@ tmp113,
 3084              	@ armwave.c:410:     free(g_armwave_state.out_pixbuf);
 3085              		.loc 1 410 5 view .LVU867
 3086 0dd0 440094E5 		ldr	r0, [r4, #68]	@, g_armwave_state.out_pixbuf
 3087 0dd4 FEFFFFEB 		bl	free		@
 3088              	.LVL222:
 411:armwave.c     ****     free(g_armwave_state.ch1_buffer);
 3089              		.loc 1 411 5 is_stmt 1 view .LVU868
 3090 0dd8 040094E5 		ldr	r0, [r4, #4]	@, g_armwave_state.ch1_buffer
 3091 0ddc FEFFFFEB 		bl	free		@
 3092              	.LVL223:
 412:armwave.c     ****     free(g_armwave_state.xcoord_to_xpixel);
 3093              		.loc 1 412 5 view .LVU869
 3094 0de0 600094E5 		ldr	r0, [r4, #96]	@, g_armwave_state.xcoord_to_xpixel
 3095 0de4 FEFFFFEB 		bl	free		@
 3096              	.LVL224:
 413:armwave.c     **** 
 414:armwave.c     ****     g_armwave_state.out_pixbuf = NULL;
 3097              		.loc 1 414 5 view .LVU870
 3098              	@ armwave.c:414:     g_armwave_state.out_pixbuf = NULL;
 3099              		.loc 1 414 32 is_stmt 0 view .LVU871
 3100 0de8 0030A0E3 		mov	r3, #0	@ tmp120,
 3101 0dec 443084E5 		str	r3, [r4, #68]	@ tmp120, g_armwave_state.out_pixbuf
 415:armwave.c     ****     g_armwave_state.ch1_buffer = NULL;
 3102              		.loc 1 415 5 is_stmt 1 view .LVU872
 3103              	@ armwave.c:415:     g_armwave_state.ch1_buffer = NULL;
 3104              		.loc 1 415 32 is_stmt 0 view .LVU873
 3105 0df0 043084E5 		str	r3, [r4, #4]	@ tmp120, g_armwave_state.ch1_buffer
 416:armwave.c     ****     g_armwave_state.xcoord_to_xpixel = NULL;
 3106              		.loc 1 416 5 is_stmt 1 view .LVU874
 3107              	@ armwave.c:416:     g_armwave_state.xcoord_to_xpixel = NULL;
 3108              		.loc 1 416 38 is_stmt 0 view .LVU875
 3109 0df4 603084E5 		str	r3, [r4, #96]	@ tmp120, g_armwave_state.xcoord_to_xpixel
 3110              	@ armwave.c:417: }
 417:armwave.c     **** }
 3111              		.loc 1 417 1 view .LVU876
 3112 0df8 1080BDE8 		pop	{r4, pc}	@
 3113              	.L181:
 3114              		.align	2
 3115              	.L180:
 3116 0dfc 00000000 		.word	g_armwave_state
 3117              		.cfi_endproc
 3118              	.LFE70:
 3120              		.section	.text.startup,"ax",%progbits
 3121              		.align	2
 3122              		.global	main
 3123              		.syntax unified
 3124              		.arm
 3125              		.fpu vfp
 3127              	main:
 3128              	.LVL225:
 3129              	.LFB71:
 418:armwave.c     **** 
 419:armwave.c     **** int main(int argc, char *argv[])
 420:armwave.c     **** {
 3130              		.loc 1 420 1 is_stmt 1 view -0
 3131              		.cfi_startproc
 3132              		@ args = 0, pretend = 0, frame = 8
 3133              		@ frame_needed = 0, uses_anonymous_args = 0
 421:armwave.c     ****     uint32_t *out_buffer;
 3134              		.loc 1 421 5 view .LVU878
 422:armwave.c     ****     uint32_t xx, yy, n;
 3135              		.loc 1 422 5 view .LVU879
 423:armwave.c     **** 
 424:armwave.c     ****     //printf("Starting armwave...\n");
 425:armwave.c     ****     armwave_init();
 3136              		.loc 1 425 5 view .LVU880
 3137              	.LBB24:
 3138              	.LBI24:
 127:armwave.c     **** {
 3139              		.loc 1 127 6 view .LVU881
 3140              	.LBB25:
 129:armwave.c     **** }
 3141              		.loc 1 129 5 view .LVU882
 3142              	.LBE25:
 3143              	.LBE24:
 3144              	@ armwave.c:420: {
 420:armwave.c     ****     uint32_t *out_buffer;
 3145              		.loc 1 420 1 is_stmt 0 view .LVU883
 3146 0000 F04F2DE9 		push	{r4, r5, r6, r7, r8, r9, r10, fp, lr}	@
 3147              		.cfi_def_cfa_offset 36
 3148              		.cfi_offset 4, -36
 3149              		.cfi_offset 5, -32
 3150              		.cfi_offset 6, -28
 3151              		.cfi_offset 7, -24
 3152              		.cfi_offset 8, -20
 3153              		.cfi_offset 9, -16
 3154              		.cfi_offset 10, -12
 3155              		.cfi_offset 11, -8
 3156              		.cfi_offset 14, -4
 3157 0004 0CD04DE2 		sub	sp, sp, #12	@,,
 3158              		.cfi_def_cfa_offset 48
 3159              	.LBB29:
 3160              	.LBB26:
 3161              	@ armwave.c:129:     g_armwave_state.flags = 0;
 129:armwave.c     **** }
 3162              		.loc 1 129 27 view .LVU884
 3163 0008 70919FE5 		ldr	r9, .L202	@ tmp267,
 3164              	.LBE26:
 3165              	.LBE29:
 3166              	@ armwave.c:434:     armwave_setup_render(&test_wave_buffer, 0, TEST_WAVE_SIZE, TEST_NWAVES, TEST_W
 426:armwave.c     **** 
 427:armwave.c     ****     //printf("Creating test waveform...\n");
 428:armwave.c     ****     test_create_waveform();
 429:armwave.c     **** 
 430:armwave.c     ****     //printf("Creating gamma LUT...\n");
 431:armwave.c     ****     test_create_gamma();
 432:armwave.c     **** 
 433:armwave.c     ****     //printf("Setting up render...\n");
 434:armwave.c     ****     armwave_setup_render(&test_wave_buffer, 0, TEST_WAVE_SIZE, TEST_NWAVES, TEST_WAVE_SIZE, 2048, 2
 3167              		.loc 1 434 5 view .LVU885
 3168 000c 70219FE5 		ldr	r2, .L202+4	@ ivtmp_191,
 3169              	.LBB30:
 3170              	.LBB27:
 3171              	@ armwave.c:129:     g_armwave_state.flags = 0;
 129:armwave.c     **** }
 3172              		.loc 1 129 27 view .LVU886
 3173 0010 0030A0E3 		mov	r3, #0	@ tmp192,
 3174              	.LBE27:
 3175              	.LBE30:
 3176              	@ armwave.c:434:     armwave_setup_render(&test_wave_buffer, 0, TEST_WAVE_SIZE, TEST_NWAVES, TEST_W
 3177              		.loc 1 434 5 view .LVU887
 3178 0014 04208DE5 		str	r2, [sp, #4]	@ ivtmp_191, %sfp
 3179              	.LBB31:
 3180              	.LBB28:
 3181              	@ armwave.c:129:     g_armwave_state.flags = 0;
 129:armwave.c     **** }
 3182              		.loc 1 129 27 view .LVU888
 3183 0018 003089E5 		str	r3, [r9]	@ tmp192, g_armwave_state.flags
 3184              	.LBE28:
 3185              	.LBE31:
 428:armwave.c     **** 
 3186              		.loc 1 428 5 is_stmt 1 view .LVU889
 3187 001c FEFFFFEB 		bl	test_create_waveform		@
 3188              	.LVL226:
 431:armwave.c     **** 
 3189              		.loc 1 431 5 view .LVU890
 3190 0020 FEFFFFEB 		bl	test_create_gamma		@
 3191              	.LVL227:
 3192              		.loc 1 434 5 view .LVU891
 3193 0024 011CA0E3 		mov	r1, #256	@,
 3194 0028 020BA0E3 		mov	r0, #2048	@,
 3195 002c FEFFFFEB 		bl	armwave_setup_render.constprop.1		@
 3196              	.LVL228:
 435:armwave.c     **** 
 436:armwave.c     ****     //printf("Wave buffer = 0x%08x (const ptr:0x%08x)\n", g_armwave_state.wave_buffer, &test_wave_b
 437:armwave.c     **** 
 438:armwave.c     ****     for(n = 0; n < 5000; n++) {
 3197              		.loc 1 438 5 view .LVU892
 3198              		.loc 1 438 5 is_stmt 0 view .LVU893
 3199 0030 285099E5 		ldr	r5, [r9, #40]	@ _61, g_armwave_state.slice_height
 3200              	.LVL229:
 3201              	.L183:
 3202              	@ armwave.c:439:         for(yy = 0; yy < (2048 / g_armwave_state.slice_height); yy++) {
 439:armwave.c     ****         for(yy = 0; yy < (2048 / g_armwave_state.slice_height); yy++) {
 3203              		.loc 1 439 9 view .LVU894
 3204 0034 020B55E3 		cmp	r5, #2048	@ _61,
 3205 0038 4900008A 		bhi	.L191		@,
 3206 003c 244099E5 		ldr	r4, [r9, #36]	@ prephitmp_178, g_armwave_state.waves
 3207              	@ armwave.c:439:         for(yy = 0; yy < (2048 / g_armwave_state.slice_height); yy++) {
 3208              		.loc 1 439 16 view .LVU895
 3209 0040 0080A0E3 		mov	r8, #0	@ yy,
 3210 0044 0460A0E1 		mov	r6, r4	@ prephitmp_178, prephitmp_178
 3211              	.LVL230:
 3212              	.L188:
 440:armwave.c     ****             //printf("Rendering slice y=%d at y_pos=%d\n", yy, yy * g_armwave_state.slice_height);
 441:armwave.c     ****             render_nonaa_to_buffer_1ch_slice(yy * g_armwave_state.slice_height, g_armwave_state.sli
 3213              		.loc 1 441 13 is_stmt 1 discriminator 3 view .LVU896
 3214 0048 950803E0 		mul	r3, r5, r8	@ _1, _61, yy
 3215              	.LBB32:
 3216              	.LBB33:
 3217              	@ armwave.c:106:     write_buffer_base = g_armwave_state.ch1_buffer + (slice_y * g_armwave_state.ta
 106:armwave.c     **** 
 3218              		.loc 1 106 63 is_stmt 0 discriminator 3 view .LVU897
 3219 004c 380099E5 		ldr	r0, [r9, #56]	@ g_armwave_state.target_height, g_armwave_state.target_height
 3220              	@ armwave.c:109:     for(w = 0; w < g_armwave_state.waves; w++) {
 109:armwave.c     ****         wave_base = g_armwave_state.wave_buffer + slice_y + (w * g_armwave_state.wave_stride);
 3221              		.loc 1 109 5 discriminator 3 view .LVU898
 3222 0050 000056E3 		cmp	r6, #0	@ prephitmp_178,
 3223              	.LBE33:
 3224              	.LBE32:
 3225              	@ armwave.c:441:             render_nonaa_to_buffer_1ch_slice(yy * g_armwave_state.slice_height, g_
 3226              		.loc 1 441 13 discriminator 3 view .LVU899
 3227 0054 2CA099E5 		ldr	r10, [r9, #44]	@ _2, g_armwave_state.slice_record_height
 3228              	.LVL231:
 3229              	.LBB35:
 3230              	.LBI32:
  98:armwave.c     **** {
 3231              		.loc 1 98 6 is_stmt 1 discriminator 3 view .LVU900
 3232              	.LBB34:
 100:armwave.c     ****     uint32_t value, word;
 3233              		.loc 1 100 5 discriminator 3 view .LVU901
 101:armwave.c     ****     uint8_t *wave_base;
 3234              		.loc 1 101 5 discriminator 3 view .LVU902
 102:armwave.c     ****     uint8_t *write_buffer_base;
 3235              		.loc 1 102 5 discriminator 3 view .LVU903
 103:armwave.c     ****     uint8_t *write_buffer;
 3236              		.loc 1 103 5 discriminator 3 view .LVU904
 104:armwave.c     ****     
 3237              		.loc 1 104 5 discriminator 3 view .LVU905
 106:armwave.c     **** 
 3238              		.loc 1 106 5 discriminator 3 view .LVU906
 3239              	@ armwave.c:106:     write_buffer_base = g_armwave_state.ch1_buffer + (slice_y * g_armwave_state.ta
 106:armwave.c     **** 
 3240              		.loc 1 106 63 is_stmt 0 discriminator 3 view .LVU907
 3241 0058 900300E0 		mul	r0, r0, r3	@ _19, g_armwave_state.target_height, _1
 3242              	@ armwave.c:106:     write_buffer_base = g_armwave_state.ch1_buffer + (slice_y * g_armwave_state.ta
 106:armwave.c     **** 
 3243              		.loc 1 106 40 discriminator 3 view .LVU908
 3244 005c 042099E5 		ldr	r2, [r9, #4]	@ _17, g_armwave_state.ch1_buffer
 3245              	.LVL232:
 109:armwave.c     ****         wave_base = g_armwave_state.wave_buffer + slice_y + (w * g_armwave_state.wave_stride);
 3246              		.loc 1 109 5 is_stmt 1 discriminator 3 view .LVU909
 109:armwave.c     ****         wave_base = g_armwave_state.wave_buffer + slice_y + (w * g_armwave_state.wave_stride);
 3247              		.loc 1 109 5 is_stmt 0 discriminator 3 view .LVU910
 3248 0060 3900000A 		beq	.L184		@,
 3249              	@ armwave.c:109:     for(w = 0; w < g_armwave_state.waves; w++) {
 109:armwave.c     ****         wave_base = g_armwave_state.wave_buffer + slice_y + (w * g_armwave_state.wave_stride);
 3250              		.loc 1 109 11 view .LVU911
 3251 0064 0070A0E3 		mov	r7, #0	@ w,
 3252 0068 043043E2 		sub	r3, r3, #4	@ _81, _1,
 3253              	.LVL233:
 109:armwave.c     ****         wave_base = g_armwave_state.wave_buffer + slice_y + (w * g_armwave_state.wave_stride);
 3254              		.loc 1 109 11 view .LVU912
 3255 006c 00308DE5 		str	r3, [sp]	@ _81, %sfp
 3256              	.LVL234:
 3257              	.L187:
 110:armwave.c     **** 
 3258              		.loc 1 110 9 is_stmt 1 view .LVU913
 3259              	@ armwave.c:110:         wave_base = g_armwave_state.wave_buffer + slice_y + (w * g_armwave_state.w
 110:armwave.c     **** 
 3260              		.loc 1 110 64 is_stmt 0 view .LVU914
 3261 0070 203099E5 		ldr	r3, [r9, #32]	@ g_armwave_state.wave_stride, g_armwave_state.wave_stride
 3262              	@ armwave.c:114:         for(yy = 0; yy < height; yy += 4) {
 114:armwave.c     ****             word = *(uint32_t*)(wave_base + yy);
 3263              		.loc 1 114 9 view .LVU915
 3264 0074 00005AE3 		cmp	r10, #0	@ _2,
 3265              	@ armwave.c:110:         wave_base = g_armwave_state.wave_buffer + slice_y + (w * g_armwave_state.w
 110:armwave.c     **** 
 3266              		.loc 1 110 36 view .LVU916
 3267 0078 14E099E5 		ldr	lr, [r9, #20]	@ _20, g_armwave_state.wave_buffer
 3268              	@ armwave.c:110:         wave_base = g_armwave_state.wave_buffer + slice_y + (w * g_armwave_state.w
 110:armwave.c     **** 
 3269              		.loc 1 110 64 view .LVU917
 3270 007c 930703E0 		mul	r3, r3, r7	@ _23, g_armwave_state.wave_stride, w
 3271              	.LVL235:
 114:armwave.c     ****             word = *(uint32_t*)(wave_base + yy);
 3272              		.loc 1 114 9 is_stmt 1 view .LVU918
 114:armwave.c     ****             word = *(uint32_t*)(wave_base + yy);
 3273              		.loc 1 114 9 is_stmt 0 view .LVU919
 3274 0080 2D00000A 		beq	.L185		@,
 3275 0084 00109DE5 		ldr	r1, [sp]	@ _81, %sfp
 3276 0088 013083E0 		add	r3, r3, r1	@ tmp202, _23, _81
 3277              	.LVL236:
 114:armwave.c     ****             word = *(uint32_t*)(wave_base + yy);
 3278              		.loc 1 114 9 view .LVU920
 3279 008c 03E08EE0 		add	lr, lr, r3	@ ivtmp.114, _20, tmp202
 3280              	.LVL237:
 3281              	@ armwave.c:114:         for(yy = 0; yy < height; yy += 4) {
 114:armwave.c     ****             word = *(uint32_t*)(wave_base + yy);
 3282              		.loc 1 114 16 view .LVU921
 3283 0090 0010A0E3 		mov	r1, #0	@ yy,
 3284              	.LVL238:
 3285              	.L186:
 115:armwave.c     **** 
 3286              		.loc 1 115 13 is_stmt 1 view .LVU922
 3287              	@ armwave.c:115:             word = *(uint32_t*)(wave_base + yy);
 115:armwave.c     **** 
 3288              		.loc 1 115 18 is_stmt 0 view .LVU923
 3289 0094 0430BEE5 		ldr	r3, [lr, #4]!	@ word, MEM[base: _177, offset: 0B]
 3290              	.LVL239:
 117:armwave.c     ****                 scale_value = (word & 0xff) * g_armwave_state.vscale;
 3291              		.loc 1 117 13 is_stmt 1 view .LVU924
 118:armwave.c     ****                 write_buffer = write_buffer_base + ((yy + ys) * g_armwave_state.target_height);
 3292              		.loc 1 118 17 view .LVU925
 119:armwave.c     ****                 *(write_buffer + scale_value) += 1;
 3293              		.loc 1 119 17 view .LVU926
 120:armwave.c     ****                 word >>= 8;
 3294              		.loc 1 120 17 view .LVU927
 3295              	@ armwave.c:118:                 scale_value = (word & 0xff) * g_armwave_state.vscale;
 118:armwave.c     ****                 write_buffer = write_buffer_base + ((yy + ys) * g_armwave_state.target_height);
 3296              		.loc 1 118 45 is_stmt 0 view .LVU928
 3297 0098 1C6099E5 		ldr	r6, [r9, #28]	@ g_armwave_state.vscale, g_armwave_state.vscale
 3298              	@ armwave.c:119:                 write_buffer = write_buffer_base + ((yy + ys) * g_armwave_state.ta
 119:armwave.c     ****                 *(write_buffer + scale_value) += 1;
 3299              		.loc 1 119 63 view .LVU929
 3300 009c 385099E5 		ldr	r5, [r9, #56]	@ g_armwave_state.target_height, g_armwave_state.target_height
 3301              	@ armwave.c:118:                 scale_value = (word & 0xff) * g_armwave_state.vscale;
 118:armwave.c     ****                 write_buffer = write_buffer_base + ((yy + ys) * g_armwave_state.target_height);
 3302              		.loc 1 118 37 view .LVU930
 3303 00a0 73C0EFE6 		uxtb	ip, r3	@ word, word
 3304              	@ armwave.c:121:                 word >>= 8;
 121:armwave.c     ****             }
 3305              		.loc 1 121 22 view .LVU931
 3306 00a4 2344A0E1 		lsr	r4, r3, #8	@ word, word,
 3307              	@ armwave.c:120:                 *(write_buffer + scale_value) += 1;
 120:armwave.c     ****                 word >>= 8;
 3308              		.loc 1 120 47 view .LVU932
 3309 00a8 960C2CE0 		mla	ip, r6, ip, r0	@ tmp207, g_armwave_state.vscale, word, _19
 3310              	@ armwave.c:118:                 scale_value = (word & 0xff) * g_armwave_state.vscale;
 118:armwave.c     ****                 write_buffer = write_buffer_base + ((yy + ys) * g_armwave_state.target_height);
 3311              		.loc 1 118 37 view .LVU933
 3312 00ac 7440EFE6 		uxtb	r4, r4	@ word, word
 3313              	@ armwave.c:120:                 *(write_buffer + scale_value) += 1;
 120:armwave.c     ****                 word >>= 8;
 3314              		.loc 1 120 47 view .LVU934
 3315 00b0 95C125E0 		mla	r5, r5, r1, ip	@ tmp211, g_armwave_state.target_height, yy, tmp207
 3316              	@ armwave.c:119:                 write_buffer = write_buffer_base + ((yy + ys) * g_armwave_state.ta
 119:armwave.c     ****                 *(write_buffer + scale_value) += 1;
 3317              		.loc 1 119 63 view .LVU935
 3318 00b4 01B081E2 		add	fp, r1, #1	@ tmp223, yy,
 3319              	@ armwave.c:121:                 word >>= 8;
 121:armwave.c     ****             }
 3320              		.loc 1 121 22 view .LVU936
 3321 00b8 23C8A0E1 		lsr	ip, r3, #16	@ word, word,
 3322              	@ armwave.c:120:                 *(write_buffer + scale_value) += 1;
 120:armwave.c     ****                 word >>= 8;
 3323              		.loc 1 120 47 view .LVU937
 3324 00bc 0560D2E7 		ldrb	r6, [r2, r5]	@ zero_extendqisi2	@ *_67, *_67
 3325              	@ armwave.c:118:                 scale_value = (word & 0xff) * g_armwave_state.vscale;
 118:armwave.c     ****                 write_buffer = write_buffer_base + ((yy + ys) * g_armwave_state.target_height);
 3326              		.loc 1 118 37 view .LVU938
 3327 00c0 7CC0EFE6 		uxtb	ip, ip	@ word, word
 3328              	@ armwave.c:121:                 word >>= 8;
 121:armwave.c     ****             }
 3329              		.loc 1 121 22 view .LVU939
 3330 00c4 233CA0E1 		lsr	r3, r3, #24	@ word, word,
 3331              	.LVL240:
 3332              	@ armwave.c:120:                 *(write_buffer + scale_value) += 1;
 120:armwave.c     ****                 word >>= 8;
 3333              		.loc 1 120 47 view .LVU940
 3334 00c8 016086E2 		add	r6, r6, #1	@ tmp214, *_67,
 3335 00cc 0560C2E7 		strb	r6, [r2, r5]	@ tmp214, *_67
 3336              	.LVL241:
 121:armwave.c     ****             }
 3337              		.loc 1 121 17 is_stmt 1 view .LVU941
 118:armwave.c     ****                 write_buffer = write_buffer_base + ((yy + ys) * g_armwave_state.target_height);
 3338              		.loc 1 118 17 view .LVU942
 119:armwave.c     ****                 *(write_buffer + scale_value) += 1;
 3339              		.loc 1 119 17 view .LVU943
 120:armwave.c     ****                 word >>= 8;
 3340              		.loc 1 120 17 view .LVU944
 3341              	@ armwave.c:118:                 scale_value = (word & 0xff) * g_armwave_state.vscale;
 118:armwave.c     ****                 write_buffer = write_buffer_base + ((yy + ys) * g_armwave_state.target_height);
 3342              		.loc 1 118 45 is_stmt 0 view .LVU945
 3343 00d0 1C5099E5 		ldr	r5, [r9, #28]	@ g_armwave_state.vscale, g_armwave_state.vscale
 3344              	@ armwave.c:119:                 write_buffer = write_buffer_base + ((yy + ys) * g_armwave_state.ta
 119:armwave.c     ****                 *(write_buffer + scale_value) += 1;
 3345              		.loc 1 119 63 view .LVU946
 3346 00d4 026081E2 		add	r6, r1, #2	@ tmp238, yy,
 3347              	@ armwave.c:120:                 *(write_buffer + scale_value) += 1;
 120:armwave.c     ****                 word >>= 8;
 3348              		.loc 1 120 47 view .LVU947
 3349 00d8 950424E0 		mla	r4, r5, r4, r0	@ tmp221, g_armwave_state.vscale, word, _19
 3350              	@ armwave.c:119:                 write_buffer = write_buffer_base + ((yy + ys) * g_armwave_state.ta
 119:armwave.c     ****                 *(write_buffer + scale_value) += 1;
 3351              		.loc 1 119 63 view .LVU948
 3352 00dc 385099E5 		ldr	r5, [r9, #56]	@ g_armwave_state.target_height, g_armwave_state.target_height
 3353              	@ armwave.c:120:                 *(write_buffer + scale_value) += 1;
 120:armwave.c     ****                 word >>= 8;
 3354              		.loc 1 120 47 view .LVU949
 3355 00e0 954B24E0 		mla	r4, r5, fp, r4	@ tmp226, g_armwave_state.target_height, tmp223, tmp221
 3356              	@ armwave.c:119:                 write_buffer = write_buffer_base + ((yy + ys) * g_armwave_state.ta
 119:armwave.c     ****                 *(write_buffer + scale_value) += 1;
 3357              		.loc 1 119 63 view .LVU950
 3358 00e4 035081E2 		add	r5, r1, #3	@ tmp252, yy,
 3359              	@ armwave.c:114:         for(yy = 0; yy < height; yy += 4) {
 114:armwave.c     ****             word = *(uint32_t*)(wave_base + yy);
 3360              		.loc 1 114 37 view .LVU951
 3361 00e8 041081E2 		add	r1, r1, #4	@ yy, yy,
 3362              	.LVL242:
 3363              	@ armwave.c:120:                 *(write_buffer + scale_value) += 1;
 120:armwave.c     ****                 word >>= 8;
 3364              		.loc 1 120 47 view .LVU952
 3365 00ec 04B0D2E7 		ldrb	fp, [r2, r4]	@ zero_extendqisi2	@ *_87, *_87
 3366              	@ armwave.c:114:         for(yy = 0; yy < height; yy += 4) {
 114:armwave.c     ****             word = *(uint32_t*)(wave_base + yy);
 3367              		.loc 1 114 9 view .LVU953
 3368 00f0 01005AE1 		cmp	r10, r1	@ _2, yy
 3369              	@ armwave.c:120:                 *(write_buffer + scale_value) += 1;
 120:armwave.c     ****                 word >>= 8;
 3370              		.loc 1 120 47 view .LVU954
 3371 00f4 01B08BE2 		add	fp, fp, #1	@ tmp229, *_87,
 3372 00f8 04B0C2E7 		strb	fp, [r2, r4]	@ tmp229, *_87
 3373              	.LVL243:
 121:armwave.c     ****             }
 3374              		.loc 1 121 17 is_stmt 1 view .LVU955
 118:armwave.c     ****                 write_buffer = write_buffer_base + ((yy + ys) * g_armwave_state.target_height);
 3375              		.loc 1 118 17 view .LVU956
 119:armwave.c     ****                 *(write_buffer + scale_value) += 1;
 3376              		.loc 1 119 17 view .LVU957
 120:armwave.c     ****                 word >>= 8;
 3377              		.loc 1 120 17 view .LVU958
 3378              	@ armwave.c:118:                 scale_value = (word & 0xff) * g_armwave_state.vscale;
 118:armwave.c     ****                 write_buffer = write_buffer_base + ((yy + ys) * g_armwave_state.target_height);
 3379              		.loc 1 118 45 is_stmt 0 view .LVU959
 3380 00fc 1CB099E5 		ldr	fp, [r9, #28]	@ g_armwave_state.vscale, g_armwave_state.vscale
 3381              	@ armwave.c:119:                 write_buffer = write_buffer_base + ((yy + ys) * g_armwave_state.ta
 119:armwave.c     ****                 *(write_buffer + scale_value) += 1;
 3382              		.loc 1 119 63 view .LVU960
 3383 0100 384099E5 		ldr	r4, [r9, #56]	@ g_armwave_state.target_height, g_armwave_state.target_height
 3384              	@ armwave.c:120:                 *(write_buffer + scale_value) += 1;
 120:armwave.c     ****                 word >>= 8;
 3385              		.loc 1 120 47 view .LVU961
 3386 0104 9B0C2CE0 		mla	ip, fp, ip, r0	@ tmp236, g_armwave_state.vscale, word, _19
 3387 0108 94C62CE0 		mla	ip, r4, r6, ip	@ tmp241, g_armwave_state.target_height, tmp238, tmp236
 3388 010c 0C40D2E7 		ldrb	r4, [r2, ip]	@ zero_extendqisi2	@ *_107, *_107
 3389 0110 014084E2 		add	r4, r4, #1	@ tmp244, *_107,
 3390 0114 0C40C2E7 		strb	r4, [r2, ip]	@ tmp244, *_107
 121:armwave.c     ****             }
 3391              		.loc 1 121 17 is_stmt 1 view .LVU962
 3392              	.LVL244:
 118:armwave.c     ****                 write_buffer = write_buffer_base + ((yy + ys) * g_armwave_state.target_height);
 3393              		.loc 1 118 17 view .LVU963
 119:armwave.c     ****                 *(write_buffer + scale_value) += 1;
 3394              		.loc 1 119 17 view .LVU964
 120:armwave.c     ****                 word >>= 8;
 3395              		.loc 1 120 17 view .LVU965
 3396              	@ armwave.c:118:                 scale_value = (word & 0xff) * g_armwave_state.vscale;
 118:armwave.c     ****                 write_buffer = write_buffer_base + ((yy + ys) * g_armwave_state.target_height);
 3397              		.loc 1 118 45 is_stmt 0 view .LVU966
 3398 0118 1C4099E5 		ldr	r4, [r9, #28]	@ g_armwave_state.vscale, g_armwave_state.vscale
 3399              	@ armwave.c:119:                 write_buffer = write_buffer_base + ((yy + ys) * g_armwave_state.ta
 119:armwave.c     ****                 *(write_buffer + scale_value) += 1;
 3400              		.loc 1 119 63 view .LVU967
 3401 011c 38C099E5 		ldr	ip, [r9, #56]	@ g_armwave_state.target_height, g_armwave_state.target_height
 3402              	@ armwave.c:120:                 *(write_buffer + scale_value) += 1;
 120:armwave.c     ****                 word >>= 8;
 3403              		.loc 1 120 47 view .LVU968
 3404 0120 940323E0 		mla	r3, r4, r3, r0	@ tmp250, g_armwave_state.vscale, word, _19
 3405 0124 9C3523E0 		mla	r3, ip, r5, r3	@ tmp255, g_armwave_state.target_height, tmp252, tmp250
 3406 0128 03C0D2E7 		ldrb	ip, [r2, r3]	@ zero_extendqisi2	@ *_127, *_127
 3407 012c 01C08CE2 		add	ip, ip, #1	@ tmp258, *_127,
 3408 0130 03C0C2E7 		strb	ip, [r2, r3]	@ tmp258, *_127
 121:armwave.c     ****             }
 3409              		.loc 1 121 17 is_stmt 1 view .LVU969
 3410              	.LVL245:
 3411              	@ armwave.c:114:         for(yy = 0; yy < height; yy += 4) {
 114:armwave.c     ****             word = *(uint32_t*)(wave_base + yy);
 3412              		.loc 1 114 9 is_stmt 0 view .LVU970
 3413 0134 D6FFFF8A 		bhi	.L186		@,
 3414 0138 246099E5 		ldr	r6, [r9, #36]	@ prephitmp_178, g_armwave_state.waves
 3415              	.LVL246:
 3416              	.L185:
 3417              	@ armwave.c:109:     for(w = 0; w < g_armwave_state.waves; w++) {
 109:armwave.c     ****         wave_base = g_armwave_state.wave_buffer + slice_y + (w * g_armwave_state.wave_stride);
 3418              		.loc 1 109 44 view .LVU971
 3419 013c 017087E2 		add	r7, r7, #1	@ w, w,
 3420              	.LVL247:
 3421              	@ armwave.c:109:     for(w = 0; w < g_armwave_state.waves; w++) {
 109:armwave.c     ****         wave_base = g_armwave_state.wave_buffer + slice_y + (w * g_armwave_state.wave_stride);
 3422              		.loc 1 109 5 view .LVU972
 3423 0140 060057E1 		cmp	r7, r6	@ w, prephitmp_178
 3424 0144 C9FFFF3A 		bcc	.L187		@,
 3425 0148 285099E5 		ldr	r5, [r9, #40]	@ _61, g_armwave_state.slice_height
 3426              	.LVL248:
 3427              	.L184:
 109:armwave.c     ****         wave_base = g_armwave_state.wave_buffer + slice_y + (w * g_armwave_state.wave_stride);
 3428              		.loc 1 109 5 view .LVU973
 3429              	.LBE34:
 3430              	.LBE35:
 3431              	@ armwave.c:439:         for(yy = 0; yy < (2048 / g_armwave_state.slice_height); yy++) {
 439:armwave.c     ****             //printf("Rendering slice y=%d at y_pos=%d\n", yy, yy * g_armwave_state.slice_height);
 3432              		.loc 1 439 32 discriminator 3 view .LVU974
 3433 014c 0510A0E1 		mov	r1, r5	@, _61
 3434 0150 020BA0E3 		mov	r0, #2048	@,
 3435              	.LVL249:
 439:armwave.c     ****             //printf("Rendering slice y=%d at y_pos=%d\n", yy, yy * g_armwave_state.slice_height);
 3436              		.loc 1 439 32 discriminator 3 view .LVU975
 3437 0154 FEFFFFEB 		bl	__aeabi_uidiv		@
 3438              	.LVL250:
 3439              	@ armwave.c:439:         for(yy = 0; yy < (2048 / g_armwave_state.slice_height); yy++) {
 439:armwave.c     ****             //printf("Rendering slice y=%d at y_pos=%d\n", yy, yy * g_armwave_state.slice_height);
 3440              		.loc 1 439 67 discriminator 3 view .LVU976
 3441 0158 018088E2 		add	r8, r8, #1	@ yy, yy,
 3442              	.LVL251:
 3443              	@ armwave.c:439:         for(yy = 0; yy < (2048 / g_armwave_state.slice_height); yy++) {
 439:armwave.c     ****             //printf("Rendering slice y=%d at y_pos=%d\n", yy, yy * g_armwave_state.slice_height);
 3444              		.loc 1 439 9 discriminator 3 view .LVU977
 3445 015c 080050E1 		cmp	r0, r8	@, yy
 3446 0160 B8FFFF8A 		bhi	.L188		@,
 3447              	.LVL252:
 3448              	.L191:
 3449              	@ armwave.c:438:     for(n = 0; n < 5000; n++) {
 438:armwave.c     ****         for(yy = 0; yy < (2048 / g_armwave_state.slice_height); yy++) {
 3450              		.loc 1 438 5 discriminator 2 view .LVU978
 3451 0164 04309DE5 		ldr	r3, [sp, #4]	@ ivtmp_191, %sfp
 3452 0168 013053E2 		subs	r3, r3, #1	@ ivtmp_191, ivtmp_191,
 3453 016c 04308DE5 		str	r3, [sp, #4]	@ ivtmp_191, %sfp
 3454 0170 AFFFFF1A 		bne	.L183		@,
 3455 0174 0300A0E1 		mov	r0, r3	@, ivtmp_191
 442:armwave.c     ****         }
 443:armwave.c     ****     }
 444:armwave.c     **** 
 445:armwave.c     ****     /*
 446:armwave.c     ****     printf("Creating pixbuf\n");
 447:armwave.c     ****     out_buffer = malloc(sizeof(uint32_t) * g_armwave_state.size);
 448:armwave.c     ****     armwave_fill_pixbuf(out_buffer);
 449:armwave.c     **** 
 450:armwave.c     ****     printf("Dumping pixbuf\n");
 451:armwave.c     ****     armwave_dump_ppm_debug(out_buffer, "test.ppm");
 452:armwave.c     ****     */
 453:armwave.c     **** 
 454:armwave.c     ****     return 0;
 3456              		.loc 1 454 5 is_stmt 1 view .LVU979
 3457              	@ armwave.c:455: }
 455:armwave.c     **** }...
 3458              		.loc 1 455 1 is_stmt 0 view .LVU980
 3459 0178 0CD08DE2 		add	sp, sp, #12	@,,
 3460              		.cfi_def_cfa_offset 36
 3461              		@ sp needed	@
 3462 017c F08FBDE8 		pop	{r4, r5, r6, r7, r8, r9, r10, fp, pc}	@
 3463              	.L203:
 3464              		.align	2
 3465              	.L202:
 3466 0180 00000000 		.word	g_armwave_state
 3467 0184 88130000 		.word	5000
 3468              		.cfi_endproc
 3469              	.LFE71:
 3471              		.global	mod_depth
 3472              		.global	overall_scale
 3473              		.comm	gamma_table,256,4
 3474              		.comm	test_wave_buffer,131072,4
 3475              		.comm	g_armwave_state,100,4
 3476              		.section	.rodata
 3477              		.align	2
 3478              		.set	.LANCHOR0,. + 0
 3481              	__PRETTY_FUNCTION__.17001:
 3482 0000 61726D77 		.ascii	"armwave_setup_render\000"
 3482      6176655F 
 3482      73657475 
 3482      705F7265 
 3482      6E646572 
 3483 0015 000000   		.space	3
 3486              	__PRETTY_FUNCTION__.17029:
 3487 0018 61726D77 		.ascii	"armwave_fill_pixbuf_256\000"
 3487      6176655F 
 3487      66696C6C 
 3487      5F706978 
 3487      6275665F 
 3490              	__PRETTY_FUNCTION__.17059:
 3491 0030 61726D77 		.ascii	"armwave_fill_pixbuf_scaled\000"
 3491      6176655F 
 3491      66696C6C 
 3491      5F706978 
 3491      6275665F 
 3492 004b 00       		.space	1
 3495              	overall_scale:
 3496 004c 00002041 		.word	1092616192
 3497              		.bss
 3498              		.align	2
 3499              		.set	.LANCHOR1,. + 0
 3502              	mod_depth:
 3503 0000 00000000 		.space	4
 3504              		.section	.rodata.str1.4,"aMS",%progbits,1
 3505              		.align	2
 3506              	.LC0:
 3507 0000 61726D77 		.ascii	"armwave.c\000"
 3507      6176652E 
 3507      6300
 3508 000a 0000     		.space	2
 3509              	.LC1:
 3510 000c 74617267 		.ascii	"target_height == 256 || target_height == 512 || tar"
 3510      65745F68 
 3510      65696768 
 3510      74203D3D 
 3510      20323536 
 3511 003f 6765745F 		.ascii	"get_height == 1024 || target_height == 2048\000"
 3511      68656967 
 3511      6874203D 
 3511      3D203130 
 3511      3234207C 
 3512 006b 00       		.space	1
 3513              	.LC2:
 3514 006c 675F6172 		.ascii	"g_armwave_state.ch1_buffer != NULL\000"
 3514      6D776176 
 3514      655F7374 
 3514      6174652E 
 3514      6368315F 
 3515 008f 00       		.space	1
 3516              	.LC3:
 3517 0090 675F6172 		.ascii	"g_armwave_state.xcoord_to_xpixel != NULL\000"
 3517      6D776176 
 3517      655F7374 
 3517      6174652E 
 3517      78636F6F 
 3518 00b9 000000   		.space	3
 3519              	.LC4:
 3520 00bc 73746172 		.ascii	"start_point < end_point\000"
 3520      745F706F 
 3520      696E7420 
 3520      3C20656E 
 3520      645F706F 
 3521              	.LC5:
 3522 00d4 6F75745F 		.ascii	"out_buffer != NULL\000"
 3522      62756666 
 3522      65722021 
 3522      3D204E55 
 3522      4C4C00
 3523 00e7 00       		.space	1
 3524              	.LC6:
 3525 00e8 6E703D25 		.ascii	"np=%d w=%d v=%d\012\000"
 3525      6420773D 
 3525      25642076 
 3525      3D25640A 
 3525      00
 3526 00f9 000000   		.space	3
 3527              	.LC7:
 3528 00fc 776200   		.ascii	"wb\000"
 3529 00ff 00       		.space	1
 3530              	.LC8:
 3531 0100 50330A00 		.ascii	"P3\012\000"
 3532              	.LC9:
 3533 0104 25642025 		.ascii	"%d %d\012\000"
 3533      640A00
 3534 010b 00       		.space	1
 3535              	.LC10:
 3536 010c 3235350A 		.ascii	"255\012\000"
 3536      00
 3537 0111 000000   		.space	3
 3538              	.LC11:
 3539 0114 25336420 		.ascii	"%3d %3d %3d\012\000"
 3539      25336420 
 3539      2533640A 
 3539      00
 3540 0121 000000   		.space	3
 3541              	.LC12:
 3542 0124 76302E30 		.ascii	"v0.0.1\000"
 3542      2E3100
 3543 012b 00       		.space	1
 3544              	.LC13:
 3545 012c 61726D77 		.ascii	"armwave version: %s\012\000"
 3545      61766520 
 3545      76657273 
 3545      696F6E3A 
 3545      2025730A 
 3546              		.text
 3547              	.Letext0:
 3548              		.file 2 "/usr/lib/gcc/arm-linux-gnueabihf/8/include/stddef.h"
 3549              		.file 3 "/usr/include/arm-linux-gnueabihf/bits/types.h"
 3550              		.file 4 "/usr/include/arm-linux-gnueabihf/bits/types/struct_FILE.h"
 3551              		.file 5 "/usr/include/arm-linux-gnueabihf/bits/types/FILE.h"
 3552              		.file 6 "/usr/include/stdio.h"
 3553              		.file 7 "/usr/include/arm-linux-gnueabihf/bits/sys_errlist.h"
 3554              		.file 8 "/usr/include/errno.h"
 3555              		.file 9 "/usr/include/arm-linux-gnueabihf/bits/stdint-intn.h"
 3556              		.file 10 "/usr/include/unistd.h"
 3557              		.file 11 "/usr/include/arm-linux-gnueabihf/bits/getopt_core.h"
 3558              		.file 12 "/usr/include/arm-linux-gnueabihf/bits/stdint-uintn.h"
 3559              		.file 13 "/usr/local/include/python3.8/pyport.h"
 3560              		.file 14 "/usr/include/math.h"
 3561              		.file 15 "/usr/include/arm-linux-gnueabihf/sys/time.h"
 3562              		.file 16 "/usr/include/time.h"
 3563              		.file 17 "/usr/local/include/python3.8/pymem.h"
 3564              		.file 18 "/usr/local/include/python3.8/object.h"
 3565              		.file 19 "/usr/local/include/python3.8/cpython/object.h"
 3566              		.file 20 "/usr/local/include/python3.8/methodobject.h"
 3567              		.file 21 "/usr/local/include/python3.8/descrobject.h"
 3568              		.file 22 "/usr/local/include/python3.8/pyhash.h"
 3569              		.file 23 "/usr/local/include/python3.8/pydebug.h"
 3570              		.file 24 "/usr/local/include/python3.8/bytearrayobject.h"
 3571              		.file 25 "/usr/local/include/python3.8/bytesobject.h"
 3572              		.file 26 "/usr/local/include/python3.8/unicodeobject.h"
 3573              		.file 27 "/usr/local/include/python3.8/cpython/unicodeobject.h"
 3574              		.file 28 "/usr/local/include/python3.8/longintrepr.h"
 3575              		.file 29 "/usr/local/include/python3.8/longobject.h"
 3576              		.file 30 "/usr/local/include/python3.8/boolobject.h"
 3577              		.file 31 "/usr/local/include/python3.8/floatobject.h"
 3578              		.file 32 "/usr/local/include/python3.8/complexobject.h"
 3579              		.file 33 "/usr/local/include/python3.8/rangeobject.h"
 3580              		.file 34 "/usr/local/include/python3.8/memoryobject.h"
 3581              		.file 35 "/usr/local/include/python3.8/tupleobject.h"
 3582              		.file 36 "/usr/local/include/python3.8/listobject.h"
 3583              		.file 37 "/usr/local/include/python3.8/dictobject.h"
 3584              		.file 38 "/usr/local/include/python3.8/odictobject.h"
 3585              		.file 39 "/usr/local/include/python3.8/enumobject.h"
 3586              		.file 40 "/usr/local/include/python3.8/setobject.h"
 3587              		.file 41 "/usr/local/include/python3.8/moduleobject.h"
 3588              		.file 42 "/usr/local/include/python3.8/funcobject.h"
 3589              		.file 43 "/usr/local/include/python3.8/classobject.h"
 3590              		.file 44 "/usr/local/include/python3.8/fileobject.h"
 3591              		.file 45 "/usr/local/include/python3.8/cpython/fileobject.h"
 3592              		.file 46 "/usr/local/include/python3.8/pycapsule.h"
 3593              		.file 47 "/usr/local/include/python3.8/traceback.h"
 3594              		.file 48 "/usr/local/include/python3.8/sliceobject.h"
 3595              		.file 49 "/usr/local/include/python3.8/cellobject.h"
 3596              		.file 50 "/usr/local/include/python3.8/iterobject.h"
 3597              		.file 51 "/usr/local/include/python3.8/pystate.h"
 3598              		.file 52 "/usr/local/include/python3.8/cpython/pystate.h"
 3599              		.file 53 "/usr/local/include/python3.8/genobject.h"
 3600              		.file 54 "/usr/local/include/python3.8/weakrefobject.h"
 3601              		.file 55 "/usr/local/include/python3.8/structseq.h"
 3602              		.file 56 "/usr/local/include/python3.8/namespaceobject.h"
 3603              		.file 57 "/usr/local/include/python3.8/picklebufobject.h"
 3604              		.file 58 "/usr/local/include/python3.8/codecs.h"
 3605              		.file 59 "/usr/local/include/python3.8/pyerrors.h"
 3606              		.file 60 "/usr/local/include/python3.8/context.h"
 3607              		.file 61 "/usr/local/include/python3.8/modsupport.h"
 3608              		.file 62 "/usr/local/include/python3.8/code.h"
 3609              		.file 63 "/usr/local/include/python3.8/pythonrun.h"
 3610              		.file 64 "/usr/local/include/python3.8/ceval.h"
 3611              		.file 65 "/usr/local/include/python3.8/import.h"
 3612              		.file 66 "/usr/local/include/python3.8/bltinmodule.h"
 3613              		.file 67 "/usr/local/include/python3.8/pyctype.h"
 3614              		.file 68 "armwave.h"
 3615              		.file 69 "/usr/include/stdlib.h"
 3616              		.file 70 "/usr/local/include/python3.8/cpython/abstract.h"
 3617              		.file 71 "<built-in>"
 3618              		.file 72 "/usr/include/assert.h"
 3619              		.file 73 "/usr/include/arm-linux-gnueabihf/bits/mathcalls.h"
